

Microchip MPLAB XC8 Assembler V2.45 build 20230818022343 
                                                                                               Sun Dec 31 16:19:02 2023

Microchip MPLAB XC8 C Compiler v2.45 (Free license) build 20230818022343 Og1 
     1                           	processor	18F14K50
     2                           	fnconf	rparam,??,?,0
     3                           	pagewidth 120
     4                           	opt	flic
     5                           	psect	smallconst,global,reloc=2,class=SMALLCONST,delta=1,noexec
     6                           	psect	cinit,global,reloc=2,class=CODE,delta=1
     7                           	psect	bssCOMRAM,global,class=COMRAM,space=1,delta=1,lowdata,noexec
     8                           	psect	bssBANK0,global,class=BANK0,space=1,delta=1,lowdata,noexec
     9                           	psect	cstackBANK0,global,class=BANK0,space=1,delta=1,lowdata,noexec
    10                           	psect	cstackCOMRAM,global,class=COMRAM,space=1,delta=1,lowdata,noexec
    11                           	psect	text0,global,reloc=2,class=CODE,delta=1
    12                           	psect	text1,global,reloc=2,class=CODE,delta=1
    13                           	psect	text2,global,reloc=2,class=CODE,delta=1,group=2
    14                           	psect	text3,global,reloc=2,class=CODE,delta=1
    15                           	psect	text4,global,reloc=2,class=CODE,delta=1
    16                           	psect	text5,global,reloc=2,class=CODE,delta=1
    17                           	psect	text6,global,reloc=2,class=CODE,delta=1
    18                           	psect	text7,global,reloc=2,class=CODE,delta=1
    19                           	psect	text8,global,reloc=2,class=CODE,delta=1
    20                           	psect	text9,global,reloc=2,class=CODE,delta=1
    21                           	psect	intcode,global,reloc=2,class=CODE,delta=1
    22                           	psect	text11,global,reloc=2,class=CODE,delta=1
    23                           	psect	text12,global,reloc=2,class=CODE,delta=1
    24                           	psect	text13,global,reloc=2,class=CODE,delta=1
    25                           	psect	text14,global,reloc=2,class=CODE,delta=1
    26                           	psect	text15,global,reloc=2,class=CODE,delta=1
    27                           	psect	text16,global,reloc=2,class=CODE,delta=1
    28                           	psect	text17,global,reloc=2,class=CODE,delta=1
    29                           	psect	text18,global,reloc=2,class=CODE,delta=1,group=2
    30                           	psect	text19,global,reloc=2,class=CODE,delta=1
    31                           	psect	text20,global,reloc=2,class=CODE,delta=1
    32                           	psect	text21,global,reloc=2,class=CODE,delta=1
    33                           	psect	text22,global,reloc=2,class=CODE,delta=1
    34                           	psect	text23,global,reloc=2,class=CODE,delta=1
    35                           	psect	text24,global,reloc=2,class=CODE,delta=1
    36                           	psect	text25,global,reloc=2,class=CODE,delta=1
    37                           	psect	text26,global,reloc=2,class=CODE,delta=1
    38                           	psect	text27,global,reloc=2,class=CODE,delta=1
    39                           	psect	text28,global,reloc=2,class=CODE,delta=1
    40                           	psect	text29,global,reloc=2,class=CODE,delta=1
    41                           	psect	text30,global,reloc=2,class=CODE,delta=1
    42                           	psect	text31,global,reloc=2,class=CODE,delta=1
    43                           	psect	text32,global,reloc=2,class=CODE,delta=1
    44                           	psect	text33,global,reloc=2,class=CODE,delta=1
    45                           	psect	text34,global,reloc=2,class=CODE,delta=1
    46                           	psect	text35,global,reloc=2,class=CODE,delta=1
    47                           	psect	text36,global,reloc=2,class=CODE,delta=1
    48                           	psect	text37,global,reloc=2,class=CODE,delta=1
    49                           	psect	text38,global,reloc=2,class=CODE,delta=1
    50                           	psect	intsave_regs,global,class=BIGRAM,space=1,delta=1,noexec
    51                           	psect	rparam,global,class=COMRAM,space=1,delta=1,noexec
    52                           	psect	temp,global,ovrld,common,class=COMRAM,space=1,delta=1
    53                           	psect	config,global,abs,ovrld,class=CONFIG,space=4,delta=1,noexec
    54                           	dabs	1,0x260,64,_ReceivedData
    55                           	dabs	1,0x200,32,_BDT
    56                           	dabs	1,0x2A0,64,_SendData
    57                           	dabs	1,0x228,8,_CtrlTrfData
    58                           	dabs	1,0x220,8,_SetupPkt
    59   000000                     
    60                           ; Generated 21/07/2023 GMT
    61                           ; 
    62                           ; Copyright © 2023, Microchip Technology Inc. and its subsidiaries ("Microchip")
    63                           ; All rights reserved.
    64                           ; 
    65                           ; This software is developed by Microchip Technology Inc. and its subsidiaries ("Microch
      +                          ip").
    66                           ; 
    67                           ; Redistribution and use in source and binary forms, with or without modification, are
    68                           ; permitted provided that the following conditions are met:
    69                           ; 
    70                           ;     1. Redistributions of source code must retain the above copyright notice, this lis
      +                          t of
    71                           ;        conditions and the following disclaimer.
    72                           ; 
    73                           ;     2. Redistributions in binary form must reproduce the above copyright notice, this 
      +                          list
    74                           ;        of conditions and the following disclaimer in the documentation and/or other
    75                           ;        materials provided with the distribution. Publication is not required when
    76                           ;        this file is used in an embedded application.
    77                           ; 
    78                           ;     3. Microchip's name may not be used to endorse or promote products derived from th
      +                          is
    79                           ;        software without specific prior written permission.
    80                           ; 
    81                           ; THIS SOFTWARE IS PROVIDED BY MICROCHIP "AS IS" AND ANY EXPRESS OR IMPLIED WARRANTIES,
    82                           ; INCLUDING, BUT NOT LIMITED TO, THE IMPLIED WARRANTIES OF MERCHANTABILITY AND FITNESS F
      +                          OR
    83                           ; PURPOSE ARE DISCLAIMED.  IN NO EVENT SHALL MICROCHIP BE LIABLE FOR ANY DIRECT, INDIREC
      +                          T,
    84                           ; INCIDENTAL, SPECIAL, EXEMPLARY, OR CONSEQUENTIAL DAMAGES (INCLUDING BUT NOT LIMITED TO
    85                           ; PROCUREMENT OF SUBSTITUTE GOODS OR SERVICES; LOSS OF USE, DATA OR PROFITS; OR BUSINESS
    86                           ; INTERRUPTION) HOWSOEVER CAUSED AND ON ANY THEORY OF LIABILITY, WHETHER IN CONTRACT, ST
      +                          RICT
    87                           ; LIABILITY, OR TORT (INCLUDING NEGLIGENCE OR OTHERWISE) ARISING IN ANY WAY OUT OF THE U
      +                          SE OF
    88                           ; THIS SOFTWARE, EVEN IF ADVISED OF THE POSSIBILITY OF SUCH DAMAGE.
    89                           ; 
    90                           ; 
    91                           ; Code-generator required, PIC18F14K50 Definitions
    92                           ; 
    93                           ; SFR Addresses
    94   000000                     
    95                           	psect	smallconst
    96   000300                     __psmallconst:
    97                           	callstack 0
    98   000300  00                 	db	0
    99   000301                     _USB_SD_Ptr:
   100                           	callstack 0
   101   000301  BF                 	db	low _sd000
   102   000302  05                 	db	low _sd001
   103   000303  39                 	db	low _sd002
   104   000304                     __end_of_USB_SD_Ptr:
   105                           	callstack 0
   106   000304                     _USB_CD_Ptr:
   107                           	callstack 0
   108   000304  67                 	db	low _configDescriptor1
   109   000305                     __end_of_USB_CD_Ptr:
   110                           	callstack 0
   111   000305                     _sd001:
   112                           	callstack 0
   113   000305  34                 	db	52
   114   000306  03                 	db	3
   115   000307  004D               	dw	77
   116   000309  0069               	dw	105
   117   00030B  0063               	dw	99
   118   00030D  0072               	dw	114
   119   00030F  006F               	dw	111
   120   000311  0063               	dw	99
   121   000313  0068               	dw	104
   122   000315  0069               	dw	105
   123   000317  0070               	dw	112
   124   000319  0020               	dw	32
   125   00031B  0054               	dw	84
   126   00031D  0065               	dw	101
   127   00031F  0063               	dw	99
   128   000321  0068               	dw	104
   129   000323  006E               	dw	110
   130   000325  006F               	dw	111
   131   000327  006C               	dw	108
   132   000329  006F               	dw	111
   133   00032B  0067               	dw	103
   134   00032D  0079               	dw	121
   135   00032F  0020               	dw	32
   136   000331  0049               	dw	73
   137   000333  006E               	dw	110
   138   000335  0063               	dw	99
   139   000337  002E               	dw	46
   140   000339                     __end_of_sd001:
   141                           	callstack 0
   142   000339                     _sd002:
   143                           	callstack 0
   144   000339  2E                 	db	46
   145   00033A  03                 	db	3
   146   00033B  0053               	dw	83
   147   00033D  0069               	dw	105
   148   00033F  006D               	dw	109
   149   000341  0070               	dw	112
   150   000343  006C               	dw	108
   151   000345  0065               	dw	101
   152   000347  0020               	dw	32
   153   000349  0048               	dw	72
   154   00034B  0049               	dw	73
   155   00034D  0044               	dw	68
   156   00034F  0020               	dw	32
   157   000351  0044               	dw	68
   158   000353  0065               	dw	101
   159   000355  0076               	dw	118
   160   000357  0069               	dw	105
   161   000359  0063               	dw	99
   162   00035B  0065               	dw	101
   163   00035D  0020               	dw	32
   164   00035F  0044               	dw	68
   165   000361  0065               	dw	101
   166   000363  006D               	dw	109
   167   000365  006F               	dw	111
   168   000367                     __end_of_sd002:
   169                           	callstack 0
   170   000367                     _configDescriptor1:
   171                           	callstack 0
   172   000367  09                 	db	9
   173   000368  02                 	db	2
   174   000369  29                 	db	41
   175   00036A  00                 	db	0
   176   00036B  01                 	db	1
   177   00036C  01                 	db	1
   178   00036D  00                 	db	0
   179   00036E  C0                 	db	192
   180   00036F  32                 	db	50
   181   000370  09                 	db	9
   182   000371  04                 	db	4
   183   000372  00                 	db	0
   184   000373  00                 	db	0
   185   000374  02                 	db	2
   186   000375  03                 	db	3
   187   000376  00                 	db	0
   188   000377  00                 	db	0
   189   000378  00                 	db	0
   190   000379  09                 	db	9
   191   00037A  21                 	db	33
   192   00037B  11                 	db	17
   193   00037C  01                 	db	1
   194   00037D  00                 	db	0
   195   00037E  01                 	db	1
   196   00037F  22                 	db	34
   197   000380  1D                 	db	29
   198   000381  00                 	db	0
   199   000382  07                 	db	7
   200   000383  05                 	db	5
   201   000384  81                 	db	129
   202   000385  03                 	db	3
   203   000386  40                 	db	64
   204   000387  00                 	db	0
   205   000388  01                 	db	1
   206   000389  07                 	db	7
   207   00038A  05                 	db	5
   208   00038B  01                 	db	1
   209   00038C  03                 	db	3
   210   00038D  40                 	db	64
   211   00038E  00                 	db	0
   212   00038F  01                 	db	1
   213   000390                     __end_of_configDescriptor1:
   214                           	callstack 0
   215   000390                     _hid_rpt01:
   216                           	callstack 0
   217   000390  06                 	db	6
   218   000391  00                 	db	0
   219   000392  FF                 	db	255
   220   000393  09                 	db	9
   221   000394  01                 	db	1
   222   000395  A1                 	db	161
   223   000396  01                 	db	1
   224   000397  19                 	db	25
   225   000398  01                 	db	1
   226   000399  29                 	db	41
   227   00039A  40                 	db	64
   228   00039B  15                 	db	21
   229   00039C  00                 	db	0
   230   00039D  26                 	db	38
   231   00039E  FF                 	db	255
   232   00039F  00                 	db	0
   233   0003A0  75                 	db	117
   234   0003A1  08                 	db	8
   235   0003A2  95                 	db	149
   236   0003A3  40                 	db	64
   237   0003A4  81                 	db	129
   238   0003A5  00                 	db	0
   239   0003A6  19                 	db	25
   240   0003A7  01                 	db	1
   241   0003A8  29                 	db	41
   242   0003A9  40                 	db	64
   243   0003AA  91                 	db	145
   244   0003AB  00                 	db	0
   245   0003AC  C0                 	db	192
   246   0003AD                     __end_of_hid_rpt01:
   247                           	callstack 0
   248   0003AD                     _device_dsc:
   249                           	callstack 0
   250   0003AD  12                 	db	18
   251   0003AE  01                 	db	1
   252   0003AF  0200               	dw	512
   253   0003B1  00                 	db	0
   254   0003B2  00                 	db	0
   255   0003B3  00                 	db	0
   256   0003B4  08                 	db	8
   257   0003B5  04D8               	dw	1240
   258   0003B7  003F               	dw	63
   259   0003B9  0100               	dw	256
   260   0003BB  01                 	db	1
   261   0003BC  02                 	db	2
   262   0003BD  00                 	db	0
   263   0003BE  01                 	db	1
   264   0003BF                     __end_of_device_dsc:
   265                           	callstack 0
   266   0003BF                     _sd000:
   267                           	callstack 0
   268   0003BF  04                 	db	4
   269   0003C0  03                 	db	3
   270   0003C1  0409               	dw	1033
   271   0003C3                     __end_of_sd000:
   272                           	callstack 0
   273   000000                     _USTAT	set	3939
   274   000000                     _UIE	set	3936
   275   000000                     _UCFG	set	3937
   276   000000                     _UIR	set	3938
   277   000000                     _ADRESL	set	4035
   278   000000                     _ADRESH	set	4036
   279   000000                     _UEP0bits	set	3923
   280   000000                     _UCON	set	3940
   281   000000                     _UIEbits	set	3936
   282   000000                     _UIRbits	set	3938
   283   000000                     _ADCON2bits	set	4032
   284   000000                     _ADCON0	set	4034
   285   000000                     _UEIE	set	3931
   286   000000                     _UEIR	set	3935
   287   000000                     _UCONbits	set	3940
   288   000000                     _UEP1	set	3924
   289   000000                     _UEP0	set	3923
   290   000000                     _WPUBbits	set	3960
   291   000000                     _ANSELHbits	set	3967
   292   000000                     _PORTBbits	set	3969
   293   000000                     _TRISBbits	set	3987
   294   000000                     _ADCON2	set	4032
   295   000000                     _ADCON1	set	4033
   296   000000                     _ADCON0bits	set	4034
   297   000000                     _PORTC	set	3970
   298   000000                     _RCONbits	set	4048
   299   000000                     _INTCON2bits	set	4081
   300   000000                     _PIE2bits	set	4000
   301   000000                     _TRISC	set	3988
   302   000000                     _INTCONbits	set	4082
   303   000000                     _IPR2bits	set	4002
   304   000000                     _PIR2bits	set	4001
   305   000000                     _UADDR	set	3932
   306   0003C3  00                 	db	0	; dummy byte at the end
   307   000000                     
   308                           ; #config settings
   309                           
   310                           	psect	cinit
   311   002174                     __pcinit:
   312                           	callstack 0
   313   002174                     start_initialization:
   314                           	callstack 0
   315   002174                     __initialization:
   316                           	callstack 0
   317                           
   318                           ; Clear objects allocated to BANK0 (26 bytes)
   319   002174  EE00  F060         	lfsr	0,__pbssBANK0
   320   002178  0E1A               	movlw	26
   321   00217A                     clear_0:
   322   00217A  6AEE               	clrf	postinc0,c
   323   00217C  06E8               	decf	wreg,f,c
   324   00217E  E1FD               	bnz	clear_0
   325                           
   326                           ; Clear objects allocated to COMRAM (33 bytes)
   327   002180  EE00  F02C         	lfsr	0,__pbssCOMRAM
   328   002184  0E21               	movlw	33
   329   002186                     clear_1:
   330   002186  6AEE               	clrf	postinc0,c
   331   002188  06E8               	decf	wreg,f,c
   332   00218A  E1FD               	bnz	clear_1
   333   00218C                     end_of_initialization:
   334                           	callstack 0
   335   00218C                     __end_of__initialization:
   336                           	callstack 0
   337   00218C  904D               	bcf	int$flags,0,c	;clear compiler interrupt flag (level 1)
   338   00218E  924D               	bcf	int$flags,1,c	;clear compiler interrupt flag (level 2)
   339   002190  0E00               	movlw	low (__Lmediumconst shr (0+16))
   340   002192  6EF8               	movwf	tblptru,c
   341   002194  0100               	movlb	0
   342   002196  EF50  F00E         	goto	_main	;jump to C main() function
   343                           
   344                           	psect	bssCOMRAM
   345   00002C                     __pbssCOMRAM:
   346                           	callstack 0
   347   00002C                     _USB1msTickCount:
   348                           	callstack 0
   349   00002C                     	ds	4
   350   000030                     _pDst:
   351                           	callstack 0
   352   000030                     	ds	2
   353   000032                     _pBDTEntryEP0OutNext:
   354                           	callstack 0
   355   000032                     	ds	2
   356   000034                     _pBDTEntryEP0OutCurrent:
   357                           	callstack 0
   358   000034                     	ds	2
   359   000036                     _USBInHandle:
   360                           	callstack 0
   361   000036                     	ds	2
   362   000038                     _USBOutHandle:
   363                           	callstack 0
   364   000038                     	ds	2
   365   00003A                     _USBTicksSinceSuspendEnd:
   366                           	callstack 0
   367   00003A                     	ds	1
   368   00003B                     _USBDeferOUTDataStagePackets:
   369                           	callstack 0
   370   00003B                     	ds	1
   371   00003C                     _USBDeferINDataStagePackets:
   372                           	callstack 0
   373   00003C                     	ds	1
   374   00003D                     _USBStatusStageEnabledFlag2:
   375                           	callstack 0
   376   00003D                     	ds	1
   377   00003E                     _USBStatusStageEnabledFlag1:
   378                           	callstack 0
   379   00003E                     	ds	1
   380   00003F                     _USBDeferStatusStagePacket:
   381                           	callstack 0
   382   00003F                     	ds	1
   383   000040                     _USBStatusStageTimeoutCounter:
   384                           	callstack 0
   385   000040                     	ds	1
   386   000041                     _BothEP0OutUOWNsSet:
   387                           	callstack 0
   388   000041                     	ds	1
   389   000042                     _endpoint_number:
   390                           	callstack 0
   391   000042                     	ds	1
   392   000043                     _USBBusIsSuspended:
   393                           	callstack 0
   394   000043                     	ds	1
   395   000044                     _RemoteWakeup:
   396                           	callstack 0
   397   000044                     	ds	1
   398   000045                     _controlTransferState:
   399                           	callstack 0
   400   000045                     	ds	1
   401   000046                     _shortPacketStatus:
   402                           	callstack 0
   403   000046                     	ds	1
   404   000047                     _USBDeviceState:
   405                           	callstack 0
   406   000047                     	ds	1
   407   000048                     _active_protocol:
   408                           	callstack 0
   409   000048                     	ds	1
   410   000049                     _idle_rate:
   411                           	callstack 0
   412   000049                     	ds	1
   413   00004A                     _USTATcopy:
   414                           	callstack 0
   415   00004A                     	ds	1
   416   00004B                     _USBAlternateInterface:
   417                           	callstack 0
   418   00004B                     	ds	1
   419   00004C                     _USBActiveConfiguration:
   420                           	callstack 0
   421   00004C                     	ds	1
   422                           
   423                           	psect	bssBANK0
   424   000060                     __pbssBANK0:
   425                           	callstack 0
   426   000060                     _outPipes:
   427                           	callstack 0
   428   000060                     	ds	8
   429   000068                     _inPipes:
   430                           	callstack 0
   431   000068                     	ds	6
   432   00006E                     _pBDTEntryIn:
   433                           	callstack 0
   434   00006E                     	ds	4
   435   000072                     _pBDTEntryOut:
   436                           	callstack 0
   437   000072                     	ds	4
   438   000076                     _ep_data_out:
   439                           	callstack 0
   440   000076                     	ds	2
   441   000078                     _ep_data_in:
   442                           	callstack 0
   443   000078                     	ds	2
   444                           
   445                           	psect	cstackBANK0
   446   00007A                     __pcstackBANK0:
   447                           	callstack 0
   448   00007A                     ?_USBTransferOnePacket:
   449                           	callstack 0
   450   00007A                     ?_ADC_Read10bit:
   451                           	callstack 0
   452   00007A                     USBTransferOnePacket@dir:
   453                           	callstack 0
   454   00007A                     memset@dest:
   455                           	callstack 0
   456                           
   457                           ; 2 bytes @ 0x0
   458   00007A                     	ds	1
   459   00007B                     USBTransferOnePacket@data:
   460                           	callstack 0
   461                           
   462                           ; 2 bytes @ 0x1
   463   00007B                     	ds	1
   464   00007C                     ADC_Read10bit@result:
   465                           	callstack 0
   466   00007C                     memset@c:
   467                           	callstack 0
   468                           
   469                           ; 2 bytes @ 0x2
   470   00007C                     	ds	1
   471   00007D                     USBTransferOnePacket@len:
   472                           	callstack 0
   473                           
   474                           ; 1 bytes @ 0x3
   475   00007D                     	ds	1
   476   00007E                     ??_USBTransferOnePacket:
   477   00007E                     Chek_ADC@pot:
   478                           	callstack 0
   479   00007E                     memset@n:
   480                           	callstack 0
   481                           
   482                           ; 2 bytes @ 0x4
   483   00007E                     	ds	2
   484   000080                     memset@p:
   485                           	callstack 0
   486                           
   487                           ; 2 bytes @ 0x6
   488   000080                     	ds	2
   489   000082                     USBDeviceInit@i:
   490                           	callstack 0
   491   000082                     USBTransferOnePacket@ep:
   492                           	callstack 0
   493                           
   494                           ; 1 bytes @ 0x8
   495   000082                     	ds	1
   496   000083                     USBTransferOnePacket@handle:
   497                           	callstack 0
   498                           
   499                           ; 2 bytes @ 0x9
   500   000083                     	ds	2
   501   000085                     main@i:
   502                           	callstack 0
   503                           
   504                           ; 2 bytes @ 0xB
   505   000085                     	ds	2
   506   000087                     main@i_443:
   507                           	callstack 0
   508                           
   509                           ; 2 bytes @ 0xD
   510   000087                     	ds	2
   511                           
   512                           	psect	cstackCOMRAM
   513   000001                     __pcstackCOMRAM:
   514                           	callstack 0
   515   000001                     ??_USBCheckHIDRequest:
   516   000001                     ??_USBStdGetDscHandler:
   517   000001                     ??_USBStdGetStatusHandler:
   518   000001                     ?i2_USBTransferOnePacket:
   519                           	callstack 0
   520   000001                     USBConfigureEndpoint@direction:
   521                           	callstack 0
   522   000001                     USBCtrlTrfTxService@byteToSend:
   523                           	callstack 0
   524   000001                     USBCtrlTrfRxService@i:
   525                           	callstack 0
   526   000001                     i2USBTransferOnePacket@dir:
   527                           	callstack 0
   528   000001                     memcpy@d1:
   529                           	callstack 0
   530   000001                     i2memset@dest:
   531                           	callstack 0
   532                           
   533                           ; 2 bytes @ 0x0
   534   000001                     	ds	1
   535   000002                     ??_USBConfigureEndpoint:
   536   000002                     USBCtrlTrfRxService@byteToRead:
   537                           	callstack 0
   538   000002                     USBCtrlTrfInHandler@lastDTS:
   539                           	callstack 0
   540   000002                     i2USBTransferOnePacket@data:
   541                           	callstack 0
   542                           
   543                           ; 2 bytes @ 0x1
   544   000002                     	ds	1
   545   000003                     USBStdGetStatusHandler@p:
   546                           	callstack 0
   547   000003                     memcpy@s1:
   548                           	callstack 0
   549   000003                     i2memset@c:
   550                           	callstack 0
   551                           
   552                           ; 2 bytes @ 0x2
   553   000003                     	ds	1
   554   000004                     i2USBTransferOnePacket@len:
   555                           	callstack 0
   556                           
   557                           ; 1 bytes @ 0x3
   558   000004                     	ds	1
   559   000005                     ??i2_USBTransferOnePacket:
   560   000005                     memcpy@n:
   561                           	callstack 0
   562   000005                     i2memset@n:
   563                           	callstack 0
   564                           
   565                           ; 2 bytes @ 0x4
   566   000005                     	ds	2
   567   000007                     memcpy@d:
   568                           	callstack 0
   569   000007                     i2memset@p:
   570                           	callstack 0
   571                           
   572                           ; 2 bytes @ 0x6
   573   000007                     	ds	1
   574   000008                     USBConfigureEndpoint@EPNum:
   575                           	callstack 0
   576                           
   577                           ; 1 bytes @ 0x7
   578   000008                     	ds	1
   579   000009                     i2USBDeviceInit@i:
   580                           	callstack 0
   581   000009                     i2USBTransferOnePacket@ep:
   582                           	callstack 0
   583   000009                     USBConfigureEndpoint@handle:
   584                           	callstack 0
   585   000009                     memcpy@s:
   586                           	callstack 0
   587                           
   588                           ; 2 bytes @ 0x8
   589   000009                     	ds	1
   590   00000A                     i2USBTransferOnePacket@handle:
   591                           	callstack 0
   592                           
   593                           ; 2 bytes @ 0x9
   594   00000A                     	ds	1
   595   00000B                     USBEnableEndpoint@options:
   596                           	callstack 0
   597   00000B                     memcpy@tmp:
   598                           	callstack 0
   599                           
   600                           ; 1 bytes @ 0xA
   601   00000B                     	ds	1
   602   00000C                     USBEnableEndpoint@p:
   603                           	callstack 0
   604                           
   605                           ; 2 bytes @ 0xB
   606   00000C                     	ds	2
   607   00000E                     USBEnableEndpoint@ep:
   608                           	callstack 0
   609                           
   610                           ; 1 bytes @ 0xD
   611   00000E                     	ds	1
   612   00000F                     USER_USB_CALLBACK_EVENT_HANDLER@event:
   613                           	callstack 0
   614                           
   615                           ; 2 bytes @ 0xE
   616   00000F                     	ds	2
   617   000011                     USER_USB_CALLBACK_EVENT_HANDLER@pdata:
   618                           	callstack 0
   619                           
   620                           ; 2 bytes @ 0x10
   621   000011                     	ds	2
   622   000013                     USER_USB_CALLBACK_EVENT_HANDLER@size:
   623                           	callstack 0
   624                           
   625                           ; 2 bytes @ 0x12
   626   000013                     	ds	2
   627   000015                     ??_USER_USB_CALLBACK_EVENT_HANDLER:
   628                           
   629                           ; 1 bytes @ 0x14
   630   000015                     	ds	2
   631   000017                     ??_USBStdFeatureReqHandler:
   632   000017                     USBStdSetCfgHandler@i:
   633                           	callstack 0
   634                           
   635                           ; 1 bytes @ 0x16
   636   000017                     	ds	2
   637   000019                     USBStdFeatureReqHandler@pUEP:
   638                           	callstack 0
   639                           
   640                           ; 2 bytes @ 0x18
   641   000019                     	ds	2
   642   00001B                     USBStdFeatureReqHandler@current_ep_data:
   643                           	callstack 0
   644                           
   645                           ; 1 bytes @ 0x1A
   646   00001B                     	ds	1
   647   00001C                     USBStdFeatureReqHandler@p:
   648                           	callstack 0
   649                           
   650                           ; 2 bytes @ 0x1B
   651   00001C                     	ds	2
   652   00001E                     ??_USBCheckStdRequest:
   653                           
   654                           ; 1 bytes @ 0x1D
   655   00001E                     	ds	2
   656   000020                     ??_USBCtrlEPService:
   657   000020                     
   658                           ; 1 bytes @ 0x1F
   659   000020                     	ds	1
   660   000021                     USBDeviceTasks@i:
   661                           	callstack 0
   662                           
   663                           ; 1 bytes @ 0x20
   664   000021                     	ds	1
   665   000022                     ??_SYS_InterruptHigh:
   666                           
   667                           ; 1 bytes @ 0x21
   668   000022                     	ds	10
   669                           
   670 ;;
   671 ;;Main: autosize = 0, tempsize = 0, incstack = 0, save=0
   672 ;;
   673 ;; *************** function _main *****************
   674 ;; Defined at:
   675 ;;		line 181 in file "newmain.c"
   676 ;; Parameters:    Size  Location     Type
   677 ;;		None
   678 ;; Auto vars:     Size  Location     Type
   679 ;;  i               2   13[BANK0 ] int 
   680 ;;  i               2   11[BANK0 ] int 
   681 ;; Return value:  Size  Location     Type
   682 ;;                  1    wreg      void 
   683 ;; Registers used:
   684 ;;		wreg, fsr2l, fsr2h, status,2, status,0, prodl, prodh, cstack
   685 ;; Tracked objects:
   686 ;;		On entry : 0/0
   687 ;;		On exit  : 0/0
   688 ;;		Unchanged: 0/0
   689 ;; Data sizes:     COMRAM   BANK0   BANK1  BANK2h  BANK2l
   690 ;;      Params:         0       0       0       0       0
   691 ;;      Locals:         0       4       0       0       0
   692 ;;      Temps:          0       0       0       0       0
   693 ;;      Totals:         0       4       0       0       0
   694 ;;Total ram usage:        4 bytes
   695 ;; Hardware stack levels required when called: 12
   696 ;; This function calls:
   697 ;;		_Check_Button
   698 ;;		_Chek_ADC
   699 ;;		_Read_Write_USB
   700 ;;		_SYSTEM_Initialize
   701 ;;		_USBDeviceAttach
   702 ;;		_USBDeviceInit
   703 ;; This function is called by:
   704 ;;		Startup code after reset
   705 ;; This function uses a non-reentrant model
   706 ;;
   707                           
   708                           	psect	text0
   709   001CA0                     __ptext0:
   710                           	callstack 0
   711   001CA0                     _main:
   712                           	callstack 19
   713   001CA0  ECCD  F010         	call	_SYSTEM_Initialize	;wreg free
   714   001CA4  EC35  F007         	call	_USBDeviceInit	;wreg free
   715   001CA8  ECBB  F00F         	call	_USBDeviceAttach	;wreg free
   716   001CAC  0E00               	movlw	0
   717   001CAE  0100               	movlb	0	; () banked
   718   001CB0  6F86               	movwf	(main@i+1)& (0+255),b
   719   001CB2  0E00               	movlw	0
   720   001CB4  6F85               	movwf	main@i& (0+255),b
   721   001CB6                     l4205:
   722                           
   723                           ; BSR set to: 0
   724   001CB6  0EA0               	movlw	160
   725   001CB8  2585               	addwf	main@i& (0+255),w,b
   726   001CBA  6ED9               	movwf	fsr2l,c
   727   001CBC  0E02               	movlw	2
   728   001CBE  2186               	addwfc	(main@i+1)& (0+255),w,b
   729   001CC0  6EDA               	movwf	fsr2h,c
   730   001CC2  6ADF               	clrf	indf2,c
   731   001CC4                     
   732                           ; BSR set to: 0
   733   001CC4  4B85               	infsnz	main@i& (0+255),f,b
   734   001CC6  2B86               	incf	(main@i+1)& (0+255),f,b
   735   001CC8                     
   736                           ; BSR set to: 0
   737   001CC8  BF86               	btfsc	(main@i+1)& (0+255),7,b
   738   001CCA  EF70  F00E         	goto	u3031
   739   001CCE  5186               	movf	(main@i+1)& (0+255),w,b
   740   001CD0  E109               	bnz	u3030
   741   001CD2  0E40               	movlw	64
   742   001CD4  5D85               	subwf	main@i& (0+255),w,b
   743   001CD6  A0D8               	btfss	status,0,c
   744   001CD8  EF70  F00E         	goto	u3031
   745   001CDC  EF72  F00E         	goto	u3030
   746   001CE0                     u3031:
   747   001CE0  EF5B  F00E         	goto	l4205
   748   001CE4                     u3030:
   749   001CE4                     
   750                           ; BSR set to: 0
   751   001CE4  0E00               	movlw	0
   752   001CE6  6F88               	movwf	(main@i_443+1)& (0+255),b
   753   001CE8  0E00               	movlw	0
   754   001CEA  6F87               	movwf	main@i_443& (0+255),b
   755   001CEC                     l4217:
   756                           
   757                           ; BSR set to: 0
   758   001CEC  0E60               	movlw	96
   759   001CEE  2587               	addwf	main@i_443& (0+255),w,b
   760   001CF0  6ED9               	movwf	fsr2l,c
   761   001CF2  0E02               	movlw	2
   762   001CF4  2188               	addwfc	(main@i_443+1)& (0+255),w,b
   763   001CF6  6EDA               	movwf	fsr2h,c
   764   001CF8  6ADF               	clrf	indf2,c
   765   001CFA                     
   766                           ; BSR set to: 0
   767   001CFA  4B87               	infsnz	main@i_443& (0+255),f,b
   768   001CFC  2B88               	incf	(main@i_443+1)& (0+255),f,b
   769   001CFE                     
   770                           ; BSR set to: 0
   771   001CFE  BF88               	btfsc	(main@i_443+1)& (0+255),7,b
   772   001D00  EF8B  F00E         	goto	u3041
   773   001D04  5188               	movf	(main@i_443+1)& (0+255),w,b
   774   001D06  E109               	bnz	u3040
   775   001D08  0E40               	movlw	64
   776   001D0A  5D87               	subwf	main@i_443& (0+255),w,b
   777   001D0C  A0D8               	btfss	status,0,c
   778   001D0E  EF8B  F00E         	goto	u3041
   779   001D12  EF8D  F00E         	goto	u3040
   780   001D16                     u3041:
   781   001D16  EF76  F00E         	goto	l4217
   782   001D1A                     u3040:
   783   001D1A                     l4223:
   784   001D1A  ECA0  F00C         	call	_Read_Write_USB	;wreg free
   785   001D1E  EC6E  F00F         	call	_Check_Button	;wreg free
   786   001D22  ECDF  F00F         	call	_Chek_ADC	;wreg free
   787   001D26  EF8D  F00E         	goto	l4223
   788   001D2A  EF31  F000         	goto	start
   789   001D2E                     __end_of_main:
   790                           	callstack 0
   791                           
   792 ;; *************** function _USBDeviceInit *****************
   793 ;; Defined at:
   794 ;;		line 281 in file "usb/src/usb_device.c"
   795 ;; Parameters:    Size  Location     Type
   796 ;;		None
   797 ;; Auto vars:     Size  Location     Type
   798 ;;  i               1    8[BANK0 ] unsigned char 
   799 ;; Return value:  Size  Location     Type
   800 ;;                  1    wreg      void 
   801 ;; Registers used:
   802 ;;		wreg, fsr2l, fsr2h, status,2, status,0, prodl, prodh, cstack
   803 ;; Tracked objects:
   804 ;;		On entry : 0/0
   805 ;;		On exit  : 0/0
   806 ;;		Unchanged: 0/0
   807 ;; Data sizes:     COMRAM   BANK0   BANK1  BANK2h  BANK2l
   808 ;;      Params:         0       0       0       0       0
   809 ;;      Locals:         0       1       0       0       0
   810 ;;      Temps:          0       0       0       0       0
   811 ;;      Totals:         0       1       0       0       0
   812 ;;Total ram usage:        1 bytes
   813 ;; Hardware stack levels used: 1
   814 ;; Hardware stack levels required when called: 11
   815 ;; This function calls:
   816 ;;		_memset
   817 ;; This function is called by:
   818 ;;		_main
   819 ;; This function uses a non-reentrant model
   820 ;;
   821                           
   822                           	psect	text1
   823   000E6A                     __ptext1:
   824                           	callstack 0
   825   000E6A                     _USBDeviceInit:
   826                           	callstack 19
   827   000E6A                     
   828                           ;usb/src/usb_device.c: 283:     uint8_t i;;usb/src/usb_device.c: 285:     {PIE2bits.USBI
      +                          E = 0;};
   829   000E6A  94A0               	bcf	160,2,c	;volatile
   830   000E6C                     
   831                           ;usb/src/usb_device.c: 292:     {UEIR = 0;};
   832   000E6C  0E00               	movlw	0
   833   000E6E  010F               	movlb	15	; () banked
   834   000E70  6F5F               	movwf	95,b	;volatile
   835                           
   836                           ;usb/src/usb_device.c: 295:     {UIR = 0;};
   837   000E72  0E00               	movlw	0
   838   000E74  6E62               	movwf	98,c	;volatile
   839                           
   840                           ;usb/src/usb_device.c: 298:     UEP0 = 0;
   841   000E76  0E00               	movlw	0
   842   000E78  6F53               	movwf	83,b	;volatile
   843   000E7A                     
   844                           ; BSR set to: 15
   845                           ;usb/src/usb_device.c: 300:     memset((void*)&UEP1,0x00,(1));;
   846   000E7A  0E54               	movlw	84
   847   000E7C  0100               	movlb	0	; () banked
   848   000E7E  6F7A               	movwf	memset@dest& (0+255),b
   849   000E80  0E0F               	movlw	15
   850   000E82  6F7B               	movwf	(memset@dest+1)& (0+255),b
   851   000E84  0E00               	movlw	0
   852   000E86  6F7D               	movwf	(memset@c+1)& (0+255),b
   853   000E88  0E00               	movlw	0
   854   000E8A  6F7C               	movwf	memset@c& (0+255),b
   855   000E8C  0E00               	movlw	0
   856   000E8E  6F7F               	movwf	(memset@n+1)& (0+255),b
   857   000E90  0E01               	movlw	1
   858   000E92  6F7E               	movwf	memset@n& (0+255),b
   859   000E94  EC1F  F010         	call	_memset	;wreg free
   860   000E98                     
   861                           ;usb/src/usb_device.c: 302:     { UCFG = 0x10 | 0x00 | 0x04 | 0x02; UEIE = 0x9F; UIE = 0
      +                          x39 | 0x40 | 0x02; };
   862   000E98  0E16               	movlw	22
   863   000E9A  6E61               	movwf	97,c	;volatile
   864   000E9C  0E9F               	movlw	159
   865   000E9E  010F               	movlb	15	; () banked
   866   000EA0  6F5B               	movwf	91,b	;volatile
   867   000EA2                     
   868                           ; BSR set to: 15
   869   000EA2  0E7B               	movlw	123
   870   000EA4  6E60               	movwf	96,c	;volatile
   871   000EA6                     
   872                           ; BSR set to: 15
   873                           ;usb/src/usb_device.c: 311:     for(i = 0; i < (sizeof(BDT)/sizeof(BDT_ENTRY)); i++)
   874   000EA6  0E00               	movlw	0
   875   000EA8  0100               	movlb	0	; () banked
   876   000EAA  6F82               	movwf	USBDeviceInit@i& (0+255),b
   877   000EAC                     l4121:
   878                           
   879                           ; BSR set to: 0
   880                           ;usb/src/usb_device.c: 312:     {;usb/src/usb_device.c: 313:         BDT[i].Val = 0x00;
   881   000EAC  5182               	movf	USBDeviceInit@i& (0+255),w,b
   882   000EAE  0D04               	mullw	4
   883   000EB0  0E00               	movlw	0
   884   000EB2  24F3               	addwf	243,w,c
   885   000EB4  6ED9               	movwf	fsr2l,c
   886   000EB6  0E02               	movlw	2
   887   000EB8  20F4               	addwfc	prodh,w,c
   888   000EBA  6EDA               	movwf	fsr2h,c
   889   000EBC  6ADE               	clrf	postinc2,c
   890   000EBE  6ADE               	clrf	postinc2,c
   891   000EC0  6ADE               	clrf	postinc2,c
   892   000EC2  6ADD               	clrf	postdec2,c
   893   000EC4                     
   894                           ; BSR set to: 0
   895                           ;usb/src/usb_device.c: 314:     }
   896   000EC4  2B82               	incf	USBDeviceInit@i& (0+255),f,b
   897   000EC6                     
   898                           ; BSR set to: 0
   899   000EC6  0E07               	movlw	7
   900   000EC8  6582               	cpfsgt	USBDeviceInit@i& (0+255),b
   901   000ECA  EF69  F007         	goto	u2981
   902   000ECE  EF6B  F007         	goto	u2980
   903   000ED2                     u2981:
   904   000ED2  EF56  F007         	goto	l4121
   905   000ED6                     u2980:
   906   000ED6                     
   907                           ; BSR set to: 0
   908                           ;usb/src/usb_device.c: 317:     UCONbits.PPBRST = 1;
   909   000ED6  8C64               	bsf	100,6,c	;volatile
   910   000ED8                     
   911                           ; BSR set to: 0
   912                           ;usb/src/usb_device.c: 320:     UADDR = 0x00;
   913   000ED8  0E00               	movlw	0
   914   000EDA  010F               	movlb	15	; () banked
   915   000EDC  6F5C               	movwf	92,b	;volatile
   916   000EDE                     
   917                           ; BSR set to: 15
   918                           ;usb/src/usb_device.c: 323:     UCONbits.PKTDIS = 0;
   919   000EDE  9864               	bcf	100,4,c	;volatile
   920   000EE0                     
   921                           ; BSR set to: 15
   922                           ;usb/src/usb_device.c: 326:     UCONbits.PPBRST = 0;
   923   000EE0  9C64               	bcf	100,6,c	;volatile
   924   000EE2                     l4133:
   925                           
   926                           ;usb/src/usb_device.c: 330:     {;usb/src/usb_device.c: 331:         (UIR &= 0xF7);
   927   000EE2  9662               	bcf	98,3,c	;volatile
   928   000EE4                     
   929                           ;usb/src/usb_device.c: 333:         inPipes[0].info.Val = 0;
   930   000EE4  0E00               	movlw	0
   931   000EE6  0100               	movlb	0	; () banked
   932   000EE8  6F6B               	movwf	(_inPipes+3)& (0+255),b	;volatile
   933   000EEA                     
   934                           ; BSR set to: 0
   935                           ;usb/src/usb_device.c: 334:         outPipes[0].info.Val = 0;
   936   000EEA  0E00               	movlw	0
   937   000EEC  6F63               	movwf	(_outPipes+3)& (0+255),b	;volatile
   938   000EEE                     
   939                           ; BSR set to: 0
   940                           ;usb/src/usb_device.c: 335:         outPipes[0].wCount.Val = 0;
   941   000EEE  0E00               	movlw	0
   942   000EF0  6F65               	movwf	(_outPipes+5)& (0+255),b	;volatile
   943   000EF2  0E00               	movlw	0
   944   000EF4  6F64               	movwf	(_outPipes+4)& (0+255),b	;volatile
   945   000EF6                     
   946                           ; BSR set to: 0
   947                           ;usb/src/usb_device.c: 336:     }while(UIRbits.TRNIF == 1);
   948   000EF6  B662               	btfsc	98,3,c	;volatile
   949   000EF8  EF80  F007         	goto	u2991
   950   000EFC  EF82  F007         	goto	u2990
   951   000F00                     u2991:
   952   000F00  EF71  F007         	goto	l4133
   953   000F04                     u2990:
   954   000F04                     
   955                           ; BSR set to: 0
   956                           ;usb/src/usb_device.c: 340:     USBStatusStageEnabledFlag1 = 1;
   957   000F04  0E01               	movlw	1
   958   000F06  6E3E               	movwf	_USBStatusStageEnabledFlag1^0,c	;volatile
   959                           
   960                           ;usb/src/usb_device.c: 341:     USBStatusStageEnabledFlag2 = 1;
   961   000F08  0E01               	movlw	1
   962   000F0A  6E3D               	movwf	_USBStatusStageEnabledFlag2^0,c	;volatile
   963                           
   964                           ;usb/src/usb_device.c: 343:     USBDeferINDataStagePackets = 0;
   965   000F0C  0E00               	movlw	0
   966   000F0E  6E3C               	movwf	_USBDeferINDataStagePackets^0,c	;volatile
   967                           
   968                           ;usb/src/usb_device.c: 344:     USBDeferOUTDataStagePackets = 0;
   969   000F10  0E00               	movlw	0
   970   000F12  6E3B               	movwf	_USBDeferOUTDataStagePackets^0,c	;volatile
   971                           
   972                           ;usb/src/usb_device.c: 345:     USBBusIsSuspended = 0;
   973   000F14  0E00               	movlw	0
   974   000F16  6E43               	movwf	_USBBusIsSuspended^0,c	;volatile
   975                           
   976                           ;usb/src/usb_device.c: 349:     for(i = 0; i < (uint8_t)(1 +1u); i++)
   977   000F18  0E00               	movlw	0
   978   000F1A  6F82               	movwf	USBDeviceInit@i& (0+255),b
   979   000F1C                     l4149:
   980                           
   981                           ; BSR set to: 0
   982                           ;usb/src/usb_device.c: 350:     {;usb/src/usb_device.c: 351:         pBDTEntryIn[i] = 0u
      +                          ;
   983   000F1C  5182               	movf	USBDeviceInit@i& (0+255),w,b
   984   000F1E  0D02               	mullw	2
   985   000F20  50F3               	movf	243,w,c
   986   000F22  0F6E               	addlw	low _pBDTEntryIn
   987   000F24  6ED9               	movwf	fsr2l,c
   988   000F26  6ADA               	clrf	fsr2h,c
   989   000F28  6ADE               	clrf	postinc2,c
   990   000F2A  6ADD               	clrf	postdec2,c
   991                           
   992                           ;usb/src/usb_device.c: 352:         pBDTEntryOut[i] = 0u;
   993   000F2C  5182               	movf	USBDeviceInit@i& (0+255),w,b
   994   000F2E  0D02               	mullw	2
   995   000F30  50F3               	movf	243,w,c
   996   000F32  0F72               	addlw	low _pBDTEntryOut
   997   000F34  6ED9               	movwf	fsr2l,c
   998   000F36  6ADA               	clrf	fsr2h,c
   999   000F38  6ADE               	clrf	postinc2,c
  1000   000F3A  6ADD               	clrf	postdec2,c
  1001   000F3C                     
  1002                           ; BSR set to: 0
  1003                           ;usb/src/usb_device.c: 353:         ep_data_in[i].Val = 0u;
  1004   000F3C  5182               	movf	USBDeviceInit@i& (0+255),w,b
  1005   000F3E  0F78               	addlw	low _ep_data_in
  1006   000F40  6ED9               	movwf	fsr2l,c
  1007   000F42  6ADA               	clrf	fsr2h,c
  1008   000F44  6ADF               	clrf	indf2,c
  1009   000F46                     
  1010                           ; BSR set to: 0
  1011                           ;usb/src/usb_device.c: 354:         ep_data_out[i].Val = 0u;
  1012   000F46  5182               	movf	USBDeviceInit@i& (0+255),w,b
  1013   000F48  0F76               	addlw	low _ep_data_out
  1014   000F4A  6ED9               	movwf	fsr2l,c
  1015   000F4C  6ADA               	clrf	fsr2h,c
  1016   000F4E  6ADF               	clrf	indf2,c
  1017   000F50                     
  1018                           ; BSR set to: 0
  1019                           ;usb/src/usb_device.c: 355:     }
  1020   000F50  2B82               	incf	USBDeviceInit@i& (0+255),f,b
  1021   000F52                     
  1022                           ; BSR set to: 0
  1023   000F52  0E01               	movlw	1
  1024   000F54  6582               	cpfsgt	USBDeviceInit@i& (0+255),b
  1025   000F56  EFAF  F007         	goto	u3001
  1026   000F5A  EFB1  F007         	goto	u3000
  1027   000F5E                     u3001:
  1028   000F5E  EF8E  F007         	goto	l4149
  1029   000F62                     u3000:
  1030   000F62                     
  1031                           ; BSR set to: 0
  1032                           ;usb/src/usb_device.c: 358:     pBDTEntryIn[0] = (volatile BDT_ENTRY*)&BDT[2];
  1033   000F62  0E08               	movlw	8
  1034   000F64  6F6E               	movwf	_pBDTEntryIn& (0+255),b
  1035   000F66  0E02               	movlw	2
  1036   000F68  6F6F               	movwf	(_pBDTEntryIn+1)& (0+255),b
  1037   000F6A                     
  1038                           ; BSR set to: 0
  1039                           ;usb/src/usb_device.c: 360:     UEP0 = 0x06|0x10;
  1040   000F6A  0E16               	movlw	22
  1041   000F6C  010F               	movlb	15	; () banked
  1042   000F6E  6F53               	movwf	83,b	;volatile
  1043   000F70                     
  1044                           ; BSR set to: 15
  1045                           ;usb/src/usb_device.c: 362:     BDT[0].ADR = ((uint16_t)(&SetupPkt));
  1046   000F70  0E02               	movlw	2
  1047   000F72  0102               	movlb	2	; () banked
  1048   000F74  6F03               	movwf	3,b	;volatile
  1049   000F76  0E20               	movlw	32
  1050   000F78  6F02               	movwf	2,b	;volatile
  1051   000F7A                     
  1052                           ; BSR set to: 2
  1053                           ;usb/src/usb_device.c: 363:     BDT[0].CNT = 8;
  1054   000F7A  0E08               	movlw	8
  1055   000F7C  6F01               	movwf	1,b	;volatile
  1056   000F7E                     
  1057                           ; BSR set to: 2
  1058                           ;usb/src/usb_device.c: 364:     BDT[0].STAT.Val = 0x00|0x04;
  1059   000F7E  0E04               	movlw	4
  1060   000F80  6F00               	movwf	0,b	;volatile
  1061   000F82                     
  1062                           ; BSR set to: 2
  1063                           ;usb/src/usb_device.c: 365:     BDT[0].STAT.Val |= 0x80;
  1064   000F82  8F00               	bsf	0,7,b	;volatile
  1065   000F84                     
  1066                           ; BSR set to: 2
  1067                           ;usb/src/usb_device.c: 368:     USBActiveConfiguration = 0;
  1068   000F84  0E00               	movlw	0
  1069   000F86  6E4C               	movwf	_USBActiveConfiguration^0,c	;volatile
  1070   000F88                     
  1071                           ; BSR set to: 2
  1072                           ;usb/src/usb_device.c: 370:     USB1msTickCount = 0;
  1073   000F88  0E00               	movlw	0
  1074   000F8A  6E2C               	movwf	_USB1msTickCount^0,c	;volatile
  1075   000F8C  0E00               	movlw	0
  1076   000F8E  6E2D               	movwf	(_USB1msTickCount+1)^0,c	;volatile
  1077   000F90  0E00               	movlw	0
  1078   000F92  6E2E               	movwf	(_USB1msTickCount+2)^0,c	;volatile
  1079   000F94  0E00               	movlw	0
  1080   000F96  6E2F               	movwf	(_USB1msTickCount+3)^0,c	;volatile
  1081   000F98                     
  1082                           ; BSR set to: 2
  1083                           ;usb/src/usb_device.c: 371:     USBTicksSinceSuspendEnd = 0;
  1084   000F98  0E00               	movlw	0
  1085   000F9A  6E3A               	movwf	_USBTicksSinceSuspendEnd^0,c	;volatile
  1086   000F9C                     
  1087                           ; BSR set to: 2
  1088                           ;usb/src/usb_device.c: 374:     USBDeviceState = DETACHED_STATE;
  1089   000F9C  0E00               	movlw	0
  1090   000F9E  6E47               	movwf	_USBDeviceState^0,c	;volatile
  1091   000FA0                     
  1092                           ; BSR set to: 2
  1093   000FA0  0012               	return		;funcret
  1094   000FA2                     __end_of_USBDeviceInit:
  1095                           	callstack 0
  1096                           
  1097 ;; *************** function _memset *****************
  1098 ;; Defined at:
  1099 ;;		line 3 in file "C:\Program Files\Microchip\xc8\v2.45\pic\sources\c99\common\memset.c"
  1100 ;; Parameters:    Size  Location     Type
  1101 ;;  dest            2    0[BANK0 ] PTR void 
  1102 ;;		 -> USBAlternateInterface(1), BDT(32), UEP1(1), 
  1103 ;;  c               2    2[BANK0 ] int 
  1104 ;;  n               2    4[BANK0 ] unsigned int 
  1105 ;; Auto vars:     Size  Location     Type
  1106 ;;  p               2    6[BANK0 ] PTR unsigned char 
  1107 ;;		 -> USBAlternateInterface(1), BDT(32), UEP1(1), 
  1108 ;; Return value:  Size  Location     Type
  1109 ;;                  2    0[BANK0 ] PTR void 
  1110 ;; Registers used:
  1111 ;;		wreg, fsr2l, fsr2h, status,2, status,0
  1112 ;; Tracked objects:
  1113 ;;		On entry : 0/0
  1114 ;;		On exit  : 0/0
  1115 ;;		Unchanged: 0/0
  1116 ;; Data sizes:     COMRAM   BANK0   BANK1  BANK2h  BANK2l
  1117 ;;      Params:         0       6       0       0       0
  1118 ;;      Locals:         0       2       0       0       0
  1119 ;;      Temps:          0       0       0       0       0
  1120 ;;      Totals:         0       8       0       0       0
  1121 ;;Total ram usage:        8 bytes
  1122 ;; Hardware stack levels used: 1
  1123 ;; Hardware stack levels required when called: 10
  1124 ;; This function calls:
  1125 ;;		Nothing
  1126 ;; This function is called by:
  1127 ;;		_USBDeviceInit
  1128 ;; This function uses a non-reentrant model
  1129 ;;
  1130                           
  1131                           	psect	text2
  1132   00203E                     __ptext2:
  1133                           	callstack 0
  1134   00203E                     _memset:
  1135                           	callstack 19
  1136   00203E  C07A  F080         	movff	memset@dest,memset@p
  1137   002042  C07B  F081         	movff	memset@dest+1,memset@p+1
  1138   002046  EF2D  F010         	goto	l4051
  1139   00204A                     l4047:
  1140                           
  1141                           ; BSR set to: 0
  1142   00204A  C080  FFD9         	movff	memset@p,fsr2l
  1143   00204E  C081  FFDA         	movff	memset@p+1,fsr2h
  1144   002052  C07C  FFDF         	movff	memset@c,indf2
  1145   002056                     
  1146                           ; BSR set to: 0
  1147   002056  4B80               	infsnz	memset@p& (0+255),f,b
  1148   002058  2B81               	incf	(memset@p+1)& (0+255),f,b
  1149   00205A                     l4051:
  1150   00205A  0100               	movlb	0	; () banked
  1151   00205C  077E               	decf	memset@n& (0+255),f,b
  1152   00205E  A0D8               	btfss	status,0,c
  1153   002060  077F               	decf	(memset@n+1)& (0+255),f,b
  1154   002062  297E               	incf	memset@n& (0+255),w,b
  1155   002064  E106               	bnz	u2861
  1156   002066  297F               	incf	(memset@n+1)& (0+255),w,b
  1157   002068  A4D8               	btfss	status,2,c
  1158   00206A  EF39  F010         	goto	u2861
  1159   00206E  EF3B  F010         	goto	u2860
  1160   002072                     u2861:
  1161   002072  EF25  F010         	goto	l4047
  1162   002076                     u2860:
  1163   002076                     
  1164                           ; BSR set to: 0
  1165   002076  0012               	return		;funcret
  1166   002078                     __end_of_memset:
  1167                           	callstack 0
  1168                           
  1169 ;; *************** function _USBDeviceAttach *****************
  1170 ;; Defined at:
  1171 ;;		line 1356 in file "usb/src/usb_device.c"
  1172 ;; Parameters:    Size  Location     Type
  1173 ;;		None
  1174 ;; Auto vars:     Size  Location     Type
  1175 ;;		None
  1176 ;; Return value:  Size  Location     Type
  1177 ;;                  1    wreg      void 
  1178 ;; Registers used:
  1179 ;;		wreg, status,2
  1180 ;; Tracked objects:
  1181 ;;		On entry : 0/0
  1182 ;;		On exit  : 0/0
  1183 ;;		Unchanged: 0/0
  1184 ;; Data sizes:     COMRAM   BANK0   BANK1  BANK2h  BANK2l
  1185 ;;      Params:         0       0       0       0       0
  1186 ;;      Locals:         0       0       0       0       0
  1187 ;;      Temps:          0       0       0       0       0
  1188 ;;      Totals:         0       0       0       0       0
  1189 ;;Total ram usage:        0 bytes
  1190 ;; Hardware stack levels used: 1
  1191 ;; Hardware stack levels required when called: 10
  1192 ;; This function calls:
  1193 ;;		Nothing
  1194 ;; This function is called by:
  1195 ;;		_main
  1196 ;; This function uses a non-reentrant model
  1197 ;;
  1198                           
  1199                           	psect	text3
  1200   001F76                     __ptext3:
  1201                           	callstack 0
  1202   001F76                     _USBDeviceAttach:
  1203                           	callstack 20
  1204   001F76                     
  1205                           ;usb/src/usb_device.c: 1360:     {;usb/src/usb_device.c: 1361:         if(1 == 1)
  1206   001F76  5047               	movf	_USBDeviceState^0,w,c	;volatile
  1207   001F78  A4D8               	btfss	status,2,c
  1208   001F7A  EFC1  F00F         	goto	u3011
  1209   001F7E  EFC3  F00F         	goto	u3010
  1210   001F82                     u3011:
  1211   001F82  EFDE  F00F         	goto	l324
  1212   001F86                     u3010:
  1213   001F86                     
  1214                           ;usb/src/usb_device.c: 1362:         {;usb/src/usb_device.c: 1364:             UCON = 0;
  1215   001F86  0E00               	movlw	0
  1216   001F88  6E64               	movwf	100,c	;volatile
  1217                           
  1218                           ;usb/src/usb_device.c: 1367:             UIE = 0;
  1219   001F8A  0E00               	movlw	0
  1220   001F8C  6E60               	movwf	96,c	;volatile
  1221                           
  1222                           ;usb/src/usb_device.c: 1371:             { UCFG = 0x10 | 0x00 | 0x04 | 0x02; UEIE = 0x9F
      +                          ; UIE = 0x39 | 0x40 | 0x02; };
  1223   001F8E  0E16               	movlw	22
  1224   001F90  6E61               	movwf	97,c	;volatile
  1225   001F92  0E9F               	movlw	159
  1226   001F94  010F               	movlb	15	; () banked
  1227   001F96  6F5B               	movwf	91,b	;volatile
  1228   001F98  0E7B               	movlw	123
  1229   001F9A  6E60               	movwf	96,c	;volatile
  1230   001F9C                     
  1231                           ; BSR set to: 15
  1232                           ;usb/src/usb_device.c: 1373:             {RCONbits.IPEN = 1;IPR2bits.USBIP = 1;PIE2bits.
      +                          USBIE = 1;INTCONbits.GIEH = 1;};
  1233   001F9C  8ED0               	bsf	208,7,c	;volatile
  1234   001F9E                     
  1235                           ; BSR set to: 15
  1236   001F9E  84A2               	bsf	162,2,c	;volatile
  1237   001FA0                     
  1238                           ; BSR set to: 15
  1239   001FA0  84A0               	bsf	160,2,c	;volatile
  1240   001FA2                     
  1241                           ; BSR set to: 15
  1242   001FA2  8EF2               	bsf	242,7,c	;volatile
  1243                           
  1244                           ;usb/src/usb_device.c: 1376:             while(!UCONbits.USBEN){UCONbits.USBEN = 1;}
  1245   001FA4  EFD5  F00F         	goto	l321
  1246   001FA8                     l322:
  1247   001FA8  8664               	bsf	100,3,c	;volatile
  1248   001FAA                     l321:
  1249   001FAA  A664               	btfss	100,3,c	;volatile
  1250   001FAC  EFDA  F00F         	goto	u3021
  1251   001FB0  EFDC  F00F         	goto	u3020
  1252   001FB4                     u3021:
  1253   001FB4  EFD4  F00F         	goto	l322
  1254   001FB8                     u3020:
  1255   001FB8                     
  1256                           ;usb/src/usb_device.c: 1379:             USBDeviceState = ATTACHED_STATE;
  1257   001FB8  0E01               	movlw	1
  1258   001FBA  6E47               	movwf	_USBDeviceState^0,c	;volatile
  1259   001FBC                     l324:
  1260   001FBC  0012               	return		;funcret
  1261   001FBE                     __end_of_USBDeviceAttach:
  1262                           	callstack 0
  1263                           
  1264 ;; *************** function _SYSTEM_Initialize *****************
  1265 ;; Defined at:
  1266 ;;		line 161 in file "newmain.c"
  1267 ;; Parameters:    Size  Location     Type
  1268 ;;		None
  1269 ;; Auto vars:     Size  Location     Type
  1270 ;;		None
  1271 ;; Return value:  Size  Location     Type
  1272 ;;                  1    wreg      void 
  1273 ;; Registers used:
  1274 ;;		wreg, status,2
  1275 ;; Tracked objects:
  1276 ;;		On entry : 0/0
  1277 ;;		On exit  : 0/0
  1278 ;;		Unchanged: 0/0
  1279 ;; Data sizes:     COMRAM   BANK0   BANK1  BANK2h  BANK2l
  1280 ;;      Params:         0       0       0       0       0
  1281 ;;      Locals:         0       0       0       0       0
  1282 ;;      Temps:          0       0       0       0       0
  1283 ;;      Totals:         0       0       0       0       0
  1284 ;;Total ram usage:        0 bytes
  1285 ;; Hardware stack levels used: 1
  1286 ;; Hardware stack levels required when called: 10
  1287 ;; This function calls:
  1288 ;;		Nothing
  1289 ;; This function is called by:
  1290 ;;		_main
  1291 ;; This function uses a non-reentrant model
  1292 ;;
  1293                           
  1294                           	psect	text4
  1295   00219A                     __ptext4:
  1296                           	callstack 0
  1297   00219A                     _SYSTEM_Initialize:
  1298                           	callstack 20
  1299   00219A                     
  1300                           ;newmain.c: 164:     }
  1301   00219A  0E29               	movlw	41
  1302   00219C  6EC2               	movwf	194,c	;volatile
  1303                           
  1304                           ;newmain.c: 165: }
  1305   00219E  50C2               	movf	194,w,c	;volatile
  1306   0021A0  0BC3               	andlw	-61
  1307   0021A2  0928               	iorlw	40
  1308   0021A4  6EC2               	movwf	194,c	;volatile
  1309   0021A6  0E00               	movlw	0
  1310   0021A8  6EC1               	movwf	193,c	;volatile
  1311   0021AA  0E3E               	movlw	62
  1312   0021AC  6EC0               	movwf	192,c	;volatile
  1313   0021AE  8EC0               	bsf	192,7,c	;volatile
  1314   0021B0  8893               	bsf	147,4,c	;volatile
  1315   0021B2  847F               	bsf	127,2,c	;volatile
  1316   0021B4  8E93               	bsf	147,7,c	;volatile
  1317   0021B6  8E78               	bsf	120,7,c	;volatile
  1318   0021B8  9EF1               	bcf	241,7,c	;volatile
  1319   0021BA  0E00               	movlw	0
  1320   0021BC  6E94               	movwf	148,c	;volatile
  1321   0021BE  0012               	return		;funcret
  1322   0021C0                     __end_of_SYSTEM_Initialize:
  1323                           	callstack 0
  1324                           
  1325 ;; *************** function _Read_Write_USB *****************
  1326 ;; Defined at:
  1327 ;;		line 104 in file "newmain.c"
  1328 ;; Parameters:    Size  Location     Type
  1329 ;;		None
  1330 ;; Auto vars:     Size  Location     Type
  1331 ;;		None
  1332 ;; Return value:  Size  Location     Type
  1333 ;;                  1    wreg      void 
  1334 ;; Registers used:
  1335 ;;		wreg, fsr2l, fsr2h, status,2, status,0, prodl, prodh, cstack
  1336 ;; Tracked objects:
  1337 ;;		On entry : 0/0
  1338 ;;		On exit  : 0/0
  1339 ;;		Unchanged: 0/0
  1340 ;; Data sizes:     COMRAM   BANK0   BANK1  BANK2h  BANK2l
  1341 ;;      Params:         0       0       0       0       0
  1342 ;;      Locals:         0       0       0       0       0
  1343 ;;      Temps:          0       0       0       0       0
  1344 ;;      Totals:         0       0       0       0       0
  1345 ;;Total ram usage:        0 bytes
  1346 ;; Hardware stack levels used: 1
  1347 ;; Hardware stack levels required when called: 11
  1348 ;; This function calls:
  1349 ;;		_USBTransferOnePacket
  1350 ;; This function is called by:
  1351 ;;		_main
  1352 ;; This function uses a non-reentrant model
  1353 ;;
  1354                           
  1355                           	psect	text5
  1356   001940                     __ptext5:
  1357                           	callstack 0
  1358   001940                     _Read_Write_USB:
  1359                           	callstack 19
  1360   001940                     
  1361                           ;newmain.c: 106: uint16_t ADC_Read10bit()
  1362   001940  0E20               	movlw	32
  1363   001942  6047               	cpfslt	_USBDeviceState^0,c	;volatile
  1364   001944  EFA6  F00C         	goto	u2871
  1365   001948  EFA8  F00C         	goto	u2870
  1366   00194C                     u2871:
  1367   00194C  EFAA  F00C         	goto	l78
  1368   001950                     u2870:
  1369   001950  EFFD  F00C         	goto	l79
  1370   001954                     l78:
  1371                           
  1372                           ;newmain.c: 108:     uint16_t result;
  1373   001954  A264               	btfss	100,1,c	;volatile
  1374   001956  EFAF  F00C         	goto	u2881
  1375   00195A  EFB1  F00C         	goto	u2880
  1376   00195E                     u2881:
  1377   00195E  EFB3  F00C         	goto	l4059
  1378   001962                     u2880:
  1379   001962  EFFD  F00C         	goto	l79
  1380   001966                     l4059:
  1381                           
  1382                           ;newmain.c: 110:     ADCON0bits.GO = 1;
  1383   001966  5038               	movf	_USBOutHandle^0,w,c
  1384   001968  1039               	iorwf	(_USBOutHandle+1)^0,w,c
  1385   00196A  B4D8               	btfsc	status,2,c
  1386   00196C  EFBA  F00C         	goto	u2891
  1387   001970  EFBC  F00C         	goto	u2890
  1388   001974                     u2891:
  1389   001974  EFC7  F00C         	goto	l4063
  1390   001978                     u2890:
  1391   001978  C038  FFD9         	movff	_USBOutHandle,fsr2l
  1392   00197C  C039  FFDA         	movff	_USBOutHandle+1,fsr2h
  1393   001980  BEDF               	btfsc	indf2,7,c
  1394   001982  EFC5  F00C         	goto	u2901
  1395   001986  EFC7  F00C         	goto	u2900
  1396   00198A                     u2901:
  1397   00198A  EFFD  F00C         	goto	l79
  1398   00198E                     u2900:
  1399   00198E                     l4063:
  1400                           
  1401                           ;newmain.c: 111:     while(ADCON0bits.NOT_DONE);;newmain.c: 112:     result = ADRESH;
  1402   00198E  5036               	movf	_USBInHandle^0,w,c
  1403   001990  1037               	iorwf	(_USBInHandle+1)^0,w,c
  1404   001992  B4D8               	btfsc	status,2,c
  1405   001994  EFCE  F00C         	goto	u2911
  1406   001998  EFD0  F00C         	goto	u2910
  1407   00199C                     u2911:
  1408   00199C  EFDB  F00C         	goto	l86
  1409   0019A0                     u2910:
  1410   0019A0  C036  FFD9         	movff	_USBInHandle,fsr2l
  1411   0019A4  C037  FFDA         	movff	_USBInHandle+1,fsr2h
  1412   0019A8  BEDF               	btfsc	indf2,7,c
  1413   0019AA  EFD9  F00C         	goto	u2921
  1414   0019AE  EFDB  F00C         	goto	u2920
  1415   0019B2                     u2921:
  1416   0019B2  EFED  F00C         	goto	l84
  1417   0019B6                     u2920:
  1418   0019B6                     l86:
  1419                           
  1420                           ;newmain.c: 113:     result <<=8;;newmain.c: 116: }
  1421   0019B6  C260 F2A0          	movff	608,672
  1422   0019BA                     
  1423                           ;newmain.c: 117: void Chek_ADC()
  1424   0019BA  0E01               	movlw	1
  1425   0019BC  0100               	movlb	0	; () banked
  1426   0019BE  6F7A               	movwf	USBTransferOnePacket@dir& (0+255),b
  1427   0019C0  0EA0               	movlw	160
  1428   0019C2  6F7B               	movwf	USBTransferOnePacket@data& (0+255),b
  1429   0019C4  0E02               	movlw	2
  1430   0019C6  6F7C               	movwf	(USBTransferOnePacket@data+1)& (0+255),b
  1431   0019C8  0E40               	movlw	64
  1432   0019CA  6F7D               	movwf	USBTransferOnePacket@len& (0+255),b
  1433   0019CC  0E01               	movlw	1
  1434   0019CE  EC6C  F008         	call	_USBTransferOnePacket
  1435   0019D2  C07A  F036         	movff	?_USBTransferOnePacket,_USBInHandle
  1436   0019D6  C07B  F037         	movff	?_USBTransferOnePacket+1,_USBInHandle+1
  1437   0019DA                     l84:
  1438                           
  1439                           ;newmain.c: 119:     if(!((USBInHandle != 0x0000) && ((*(volatile uint8_t*)USBInHandle &
      +                           0x80) != 0x00)))
  1440   0019DA  0E00               	movlw	0
  1441   0019DC  0100               	movlb	0	; () banked
  1442   0019DE  6F7A               	movwf	USBTransferOnePacket@dir& (0+255),b
  1443   0019E0  0E60               	movlw	96
  1444   0019E2  6F7B               	movwf	USBTransferOnePacket@data& (0+255),b
  1445   0019E4  0E02               	movlw	2
  1446   0019E6  6F7C               	movwf	(USBTransferOnePacket@data+1)& (0+255),b
  1447   0019E8  0E40               	movlw	64
  1448   0019EA  6F7D               	movwf	USBTransferOnePacket@len& (0+255),b
  1449   0019EC  0E01               	movlw	1
  1450   0019EE  EC6C  F008         	call	_USBTransferOnePacket
  1451   0019F2  C07A  F038         	movff	?_USBTransferOnePacket,_USBOutHandle
  1452   0019F6  C07B  F039         	movff	?_USBTransferOnePacket+1,_USBOutHandle+1
  1453   0019FA                     l79:
  1454   0019FA  0012               	return		;funcret
  1455   0019FC                     __end_of_Read_Write_USB:
  1456                           	callstack 0
  1457                           
  1458 ;; *************** function _USBTransferOnePacket *****************
  1459 ;; Defined at:
  1460 ;;		line 999 in file "usb/src/usb_device.c"
  1461 ;; Parameters:    Size  Location     Type
  1462 ;;  ep              1    wreg     unsigned char 
  1463 ;;  dir             1    0[BANK0 ] unsigned char 
  1464 ;;  data            2    1[BANK0 ] PTR unsigned char 
  1465 ;;		 -> SendData(64), ReceivedData(64), 
  1466 ;;  len             1    3[BANK0 ] unsigned char 
  1467 ;; Auto vars:     Size  Location     Type
  1468 ;;  ep              1    8[BANK0 ] unsigned char 
  1469 ;;  handle          2    9[BANK0 ] PTR volatile struct __BD
  1470 ;;		 -> RAM(767), BDT(32), NULL(0), 
  1471 ;; Return value:  Size  Location     Type
  1472 ;;                  2    0[BANK0 ] PTR void 
  1473 ;; Registers used:
  1474 ;;		wreg, fsr2l, fsr2h, status,2, status,0, prodl, prodh
  1475 ;; Tracked objects:
  1476 ;;		On entry : 0/0
  1477 ;;		On exit  : 0/0
  1478 ;;		Unchanged: 0/0
  1479 ;; Data sizes:     COMRAM   BANK0   BANK1  BANK2h  BANK2l
  1480 ;;      Params:         0       4       0       0       0
  1481 ;;      Locals:         0       3       0       0       0
  1482 ;;      Temps:          0       4       0       0       0
  1483 ;;      Totals:         0      11       0       0       0
  1484 ;;Total ram usage:       11 bytes
  1485 ;; Hardware stack levels used: 1
  1486 ;; Hardware stack levels required when called: 10
  1487 ;; This function calls:
  1488 ;;		Nothing
  1489 ;; This function is called by:
  1490 ;;		_Read_Write_USB
  1491 ;; This function uses a non-reentrant model
  1492 ;;
  1493                           
  1494                           	psect	text6
  1495   0010D8                     __ptext6:
  1496                           	callstack 0
  1497   0010D8                     _USBTransferOnePacket:
  1498                           	callstack 19
  1499                           
  1500                           ;incstack = 0
  1501                           ;USBTransferOnePacket@ep stored from wreg
  1502   0010D8  0100               	movlb	0	; () banked
  1503   0010DA  6F82               	movwf	USBTransferOnePacket@ep& (0+255),b
  1504   0010DC                     
  1505                           ;usb/src/usb_device.c: 999: void* USBTransferOnePacket(uint8_t ep,uint8_t dir,uint8_t* d
      +                          ata,uint8_t len);usb/src/usb_device.c: 1000: {;usb/src/usb_device.c: 1001:     volatile 
      +                          BDT_ENTRY* handle;;usb/src/usb_device.c: 1004:     if(dir != 0)
  1506   0010DC  0100               	movlb	0	; () banked
  1507   0010DE  517A               	movf	USBTransferOnePacket@dir& (0+255),w,b
  1508   0010E0  B4D8               	btfsc	status,2,c
  1509   0010E2  EF75  F008         	goto	u2821
  1510   0010E6  EF77  F008         	goto	u2820
  1511   0010EA                     u2821:
  1512   0010EA  EF83  F008         	goto	l4007
  1513   0010EE                     u2820:
  1514   0010EE                     
  1515                           ; BSR set to: 0
  1516                           ;usb/src/usb_device.c: 1005:     {;usb/src/usb_device.c: 1007:         handle = pBDTEntr
      +                          yIn[ep];
  1517   0010EE  5182               	movf	USBTransferOnePacket@ep& (0+255),w,b
  1518   0010F0  0D02               	mullw	2
  1519   0010F2  50F3               	movf	243,w,c
  1520   0010F4  0F6E               	addlw	low _pBDTEntryIn
  1521   0010F6  6ED9               	movwf	fsr2l,c
  1522   0010F8  6ADA               	clrf	fsr2h,c
  1523   0010FA  CFDE F083          	movff	postinc2,USBTransferOnePacket@handle
  1524   0010FE  CFDD F084          	movff	postdec2,USBTransferOnePacket@handle+1
  1525                           
  1526                           ;usb/src/usb_device.c: 1008:     }
  1527   001102  EF8D  F008         	goto	l4009
  1528   001106                     l4007:
  1529                           
  1530                           ; BSR set to: 0
  1531                           ;usb/src/usb_device.c: 1010:     {;usb/src/usb_device.c: 1012:         handle = pBDTEntr
      +                          yOut[ep];
  1532   001106  5182               	movf	USBTransferOnePacket@ep& (0+255),w,b
  1533   001108  0D02               	mullw	2
  1534   00110A  50F3               	movf	243,w,c
  1535   00110C  0F72               	addlw	low _pBDTEntryOut
  1536   00110E  6ED9               	movwf	fsr2l,c
  1537   001110  6ADA               	clrf	fsr2h,c
  1538   001112  CFDE F083          	movff	postinc2,USBTransferOnePacket@handle
  1539   001116  CFDD F084          	movff	postdec2,USBTransferOnePacket@handle+1
  1540   00111A                     l4009:
  1541                           
  1542                           ; BSR set to: 0
  1543                           ;usb/src/usb_device.c: 1017:     if(handle == 0)
  1544   00111A  5183               	movf	USBTransferOnePacket@handle& (0+255),w,b
  1545   00111C  1184               	iorwf	(USBTransferOnePacket@handle+1)& (0+255),w,b
  1546   00111E  A4D8               	btfss	status,2,c
  1547   001120  EF94  F008         	goto	u2831
  1548   001124  EF96  F008         	goto	u2830
  1549   001128                     u2831:
  1550   001128  EF9C  F008         	goto	l4015
  1551   00112C                     u2830:
  1552   00112C                     
  1553                           ; BSR set to: 0
  1554                           ;usb/src/usb_device.c: 1018:     {;usb/src/usb_device.c: 1019:         return 0;
  1555   00112C  0E00               	movlw	0
  1556   00112E  6F7A               	movwf	?_USBTransferOnePacket& (0+255),b
  1557   001130  0E00               	movlw	0
  1558   001132  6F7B               	movwf	(?_USBTransferOnePacket+1)& (0+255),b
  1559   001134  EF00  F009         	goto	l302
  1560   001138                     l4015:
  1561                           
  1562                           ; BSR set to: 0
  1563                           ;usb/src/usb_device.c: 1033:     handle->ADR = ((uint16_t)(data));
  1564   001138  EE20 F002          	lfsr	2,2
  1565   00113C  5183               	movf	USBTransferOnePacket@handle& (0+255),w,b
  1566   00113E  26D9               	addwf	fsr2l,f,c
  1567   001140  5184               	movf	(USBTransferOnePacket@handle+1)& (0+255),w,b
  1568   001142  22DA               	addwfc	fsr2h,f,c
  1569   001144  C07B  FFDE         	movff	USBTransferOnePacket@data,postinc2
  1570   001148  C07C  FFDD         	movff	USBTransferOnePacket@data+1,postdec2
  1571                           
  1572                           ;usb/src/usb_device.c: 1034:     handle->CNT = len;
  1573   00114C  EE20 F001          	lfsr	2,1
  1574   001150  5183               	movf	USBTransferOnePacket@handle& (0+255),w,b
  1575   001152  26D9               	addwf	fsr2l,f,c
  1576   001154  5184               	movf	(USBTransferOnePacket@handle+1)& (0+255),w,b
  1577   001156  22DA               	addwfc	fsr2h,f,c
  1578   001158  C07D  FFDF         	movff	USBTransferOnePacket@len,indf2
  1579   00115C                     
  1580                           ; BSR set to: 0
  1581                           ;usb/src/usb_device.c: 1035:     handle->STAT.Val &= 0x40;
  1582   00115C  C083  FFD9         	movff	USBTransferOnePacket@handle,fsr2l
  1583   001160  C084  FFDA         	movff	USBTransferOnePacket@handle+1,fsr2h
  1584   001164  0E40               	movlw	64
  1585   001166  16DF               	andwf	indf2,f,c
  1586   001168                     
  1587                           ; BSR set to: 0
  1588                           ;usb/src/usb_device.c: 1036:     handle->STAT.Val |= (0x08 & 0x08);
  1589   001168  C083  FFD9         	movff	USBTransferOnePacket@handle,fsr2l
  1590   00116C  C084  FFDA         	movff	USBTransferOnePacket@handle+1,fsr2h
  1591   001170  0E00               	movlw	0
  1592   001172  86DB               	bsf	plusw2,3,c
  1593   001174                     
  1594                           ; BSR set to: 0
  1595                           ;usb/src/usb_device.c: 1037:     handle->STAT.Val |= 0x80;
  1596   001174  C083  FFD9         	movff	USBTransferOnePacket@handle,fsr2l
  1597   001178  C084  FFDA         	movff	USBTransferOnePacket@handle+1,fsr2h
  1598   00117C  0E00               	movlw	0
  1599   00117E  8EDB               	bsf	plusw2,7,c
  1600   001180                     
  1601                           ; BSR set to: 0
  1602                           ;usb/src/usb_device.c: 1040:     if(dir != 0)
  1603   001180  517A               	movf	USBTransferOnePacket@dir& (0+255),w,b
  1604   001182  B4D8               	btfsc	status,2,c
  1605   001184  EFC6  F008         	goto	u2841
  1606   001188  EFC8  F008         	goto	u2840
  1607   00118C                     u2841:
  1608   00118C  EFE3  F008         	goto	l4027
  1609   001190                     u2840:
  1610   001190                     
  1611                           ; BSR set to: 0
  1612                           ;usb/src/usb_device.c: 1041:     {;usb/src/usb_device.c: 1043:         pBDTEntryIn[ep] =
      +                           (BDT_ENTRY*)(((uint16_t)pBDTEntryIn[ep]) ^ 0x0004);
  1613   001190  5182               	movf	USBTransferOnePacket@ep& (0+255),w,b
  1614   001192  0D02               	mullw	2
  1615   001194  50F3               	movf	243,w,c
  1616   001196  0F6E               	addlw	low _pBDTEntryIn
  1617   001198  6ED9               	movwf	fsr2l,c
  1618   00119A  6ADA               	clrf	fsr2h,c
  1619   00119C  CFDE F07E          	movff	postinc2,??_USBTransferOnePacket
  1620   0011A0  CFDD F07F          	movff	postdec2,??_USBTransferOnePacket+1
  1621   0011A4  0E04               	movlw	4
  1622   0011A6  197E               	xorwf	??_USBTransferOnePacket& (0+255),w,b
  1623   0011A8  6F80               	movwf	(??_USBTransferOnePacket+2)& (0+255),b
  1624   0011AA  517F               	movf	(??_USBTransferOnePacket+1)& (0+255),w,b
  1625   0011AC  6F81               	movwf	(??_USBTransferOnePacket+3)& (0+255),b
  1626   0011AE  5182               	movf	USBTransferOnePacket@ep& (0+255),w,b
  1627   0011B0  0D02               	mullw	2
  1628   0011B2  50F3               	movf	243,w,c
  1629   0011B4  0F6E               	addlw	low _pBDTEntryIn
  1630   0011B6  6ED9               	movwf	fsr2l,c
  1631   0011B8  6ADA               	clrf	fsr2h,c
  1632   0011BA  C080  FFDE         	movff	??_USBTransferOnePacket+2,postinc2
  1633   0011BE  C081  FFDD         	movff	??_USBTransferOnePacket+3,postdec2
  1634                           
  1635                           ;usb/src/usb_device.c: 1044:     }
  1636   0011C2  EFFC  F008         	goto	l4029
  1637   0011C6                     l4027:
  1638                           
  1639                           ; BSR set to: 0
  1640                           ;usb/src/usb_device.c: 1046:     {;usb/src/usb_device.c: 1048:         pBDTEntryOut[ep] 
      +                          = (BDT_ENTRY*)(((uint16_t)pBDTEntryOut[ep]) ^ 0x0004);
  1641   0011C6  5182               	movf	USBTransferOnePacket@ep& (0+255),w,b
  1642   0011C8  0D02               	mullw	2
  1643   0011CA  50F3               	movf	243,w,c
  1644   0011CC  0F72               	addlw	low _pBDTEntryOut
  1645   0011CE  6ED9               	movwf	fsr2l,c
  1646   0011D0  6ADA               	clrf	fsr2h,c
  1647   0011D2  CFDE F07E          	movff	postinc2,??_USBTransferOnePacket
  1648   0011D6  CFDD F07F          	movff	postdec2,??_USBTransferOnePacket+1
  1649   0011DA  0E04               	movlw	4
  1650   0011DC  197E               	xorwf	??_USBTransferOnePacket& (0+255),w,b
  1651   0011DE  6F80               	movwf	(??_USBTransferOnePacket+2)& (0+255),b
  1652   0011E0  517F               	movf	(??_USBTransferOnePacket+1)& (0+255),w,b
  1653   0011E2  6F81               	movwf	(??_USBTransferOnePacket+3)& (0+255),b
  1654   0011E4  5182               	movf	USBTransferOnePacket@ep& (0+255),w,b
  1655   0011E6  0D02               	mullw	2
  1656   0011E8  50F3               	movf	243,w,c
  1657   0011EA  0F72               	addlw	low _pBDTEntryOut
  1658   0011EC  6ED9               	movwf	fsr2l,c
  1659   0011EE  6ADA               	clrf	fsr2h,c
  1660   0011F0  C080  FFDE         	movff	??_USBTransferOnePacket+2,postinc2
  1661   0011F4  C081  FFDD         	movff	??_USBTransferOnePacket+3,postdec2
  1662   0011F8                     l4029:
  1663                           
  1664                           ; BSR set to: 0
  1665                           ;usb/src/usb_device.c: 1050:     return (void*)handle;
  1666   0011F8  C083  F07A         	movff	USBTransferOnePacket@handle,?_USBTransferOnePacket
  1667   0011FC  C084  F07B         	movff	USBTransferOnePacket@handle+1,?_USBTransferOnePacket+1
  1668   001200                     l302:
  1669                           
  1670                           ; BSR set to: 0
  1671   001200  0012               	return		;funcret
  1672   001202                     __end_of_USBTransferOnePacket:
  1673                           	callstack 0
  1674                           
  1675 ;; *************** function _Chek_ADC *****************
  1676 ;; Defined at:
  1677 ;;		line 151 in file "newmain.c"
  1678 ;; Parameters:    Size  Location     Type
  1679 ;;		None
  1680 ;; Auto vars:     Size  Location     Type
  1681 ;;  pot             2    4[BANK0 ] unsigned short 
  1682 ;; Return value:  Size  Location     Type
  1683 ;;                  1    wreg      void 
  1684 ;; Registers used:
  1685 ;;		wreg, fsr2l, fsr2h, status,2, status,0, cstack
  1686 ;; Tracked objects:
  1687 ;;		On entry : 0/0
  1688 ;;		On exit  : 0/0
  1689 ;;		Unchanged: 0/0
  1690 ;; Data sizes:     COMRAM   BANK0   BANK1  BANK2h  BANK2l
  1691 ;;      Params:         0       0       0       0       0
  1692 ;;      Locals:         0       2       0       0       0
  1693 ;;      Temps:          0       0       0       0       0
  1694 ;;      Totals:         0       2       0       0       0
  1695 ;;Total ram usage:        2 bytes
  1696 ;; Hardware stack levels used: 1
  1697 ;; Hardware stack levels required when called: 11
  1698 ;; This function calls:
  1699 ;;		_ADC_Read10bit
  1700 ;; This function is called by:
  1701 ;;		_main
  1702 ;; This function uses a non-reentrant model
  1703 ;;
  1704                           
  1705                           	psect	text7
  1706   001FBE                     __ptext7:
  1707                           	callstack 0
  1708   001FBE                     _Chek_ADC:
  1709                           	callstack 19
  1710   001FBE                     
  1711                           ;newmain.c: 153:     for (int i = 0; i < 64; i++)
  1712   001FBE  5036               	movf	_USBInHandle^0,w,c
  1713   001FC0  1037               	iorwf	(_USBInHandle+1)^0,w,c
  1714   001FC2  B4D8               	btfsc	status,2,c
  1715   001FC4  EFE6  F00F         	goto	u2961
  1716   001FC8  EFE8  F00F         	goto	u2960
  1717   001FCC                     u2961:
  1718   001FCC  EFF3  F00F         	goto	l4083
  1719   001FD0                     u2960:
  1720   001FD0  C036  FFD9         	movff	_USBInHandle,fsr2l
  1721   001FD4  C037  FFDA         	movff	_USBInHandle+1,fsr2h
  1722   001FD8  BEDF               	btfsc	indf2,7,c
  1723   001FDA  EFF1  F00F         	goto	u2971
  1724   001FDE  EFF3  F00F         	goto	u2970
  1725   001FE2                     u2971:
  1726   001FE2  EFFF  F00F         	goto	l106
  1727   001FE6                     u2970:
  1728   001FE6                     l4083:
  1729                           
  1730                           ;newmain.c: 154:         SendData[i] = 0;;newmain.c: 155:     for (int i = 0; i < 64; i+
      +                          +)
  1731   001FE6  EC58  F010         	call	_ADC_Read10bit	;wreg free
  1732   001FEA  C07A  F07E         	movff	?_ADC_Read10bit,Chek_ADC@pot
  1733   001FEE  C07B  F07F         	movff	?_ADC_Read10bit+1,Chek_ADC@pot+1
  1734   001FF2                     
  1735                           ;newmain.c: 156:         ReceivedData[i] = 0;
  1736   001FF2  C07E  F2A2         	movff	Chek_ADC@pot,674
  1737   001FF6                     
  1738                           ;newmain.c: 157: 
  1739   001FF6  0100               	movlb	0	; () banked
  1740   001FF8  517F               	movf	(Chek_ADC@pot+1)& (0+255),w,b
  1741   001FFA  0102               	movlb	2	; () banked
  1742   001FFC  6FA3               	movwf	163,b
  1743   001FFE                     l106:
  1744   001FFE  0012               	return		;funcret
  1745   002000                     __end_of_Chek_ADC:
  1746                           	callstack 0
  1747                           
  1748 ;; *************** function _ADC_Read10bit *****************
  1749 ;; Defined at:
  1750 ;;		line 140 in file "newmain.c"
  1751 ;; Parameters:    Size  Location     Type
  1752 ;;		None
  1753 ;; Auto vars:     Size  Location     Type
  1754 ;;  result          2    2[BANK0 ] unsigned short 
  1755 ;; Return value:  Size  Location     Type
  1756 ;;                  2    0[BANK0 ] unsigned short 
  1757 ;; Registers used:
  1758 ;;		wreg, status,2, status,0
  1759 ;; Tracked objects:
  1760 ;;		On entry : 0/0
  1761 ;;		On exit  : 0/0
  1762 ;;		Unchanged: 0/0
  1763 ;; Data sizes:     COMRAM   BANK0   BANK1  BANK2h  BANK2l
  1764 ;;      Params:         0       2       0       0       0
  1765 ;;      Locals:         0       2       0       0       0
  1766 ;;      Temps:          0       0       0       0       0
  1767 ;;      Totals:         0       4       0       0       0
  1768 ;;Total ram usage:        4 bytes
  1769 ;; Hardware stack levels used: 1
  1770 ;; Hardware stack levels required when called: 10
  1771 ;; This function calls:
  1772 ;;		Nothing
  1773 ;; This function is called by:
  1774 ;;		_Chek_ADC
  1775 ;; This function uses a non-reentrant model
  1776 ;;
  1777                           
  1778                           	psect	text8
  1779   0020B0                     __ptext8:
  1780                           	callstack 0
  1781   0020B0                     _ADC_Read10bit:
  1782                           	callstack 19
  1783   0020B0                     
  1784                           ;newmain.c: 142: ;newmain.c: 143: 
  1785   0020B0  50C2               	movf	194,w,c	;volatile
  1786   0020B2  0BC3               	andlw	-61
  1787   0020B4  0928               	iorlw	40
  1788   0020B6  6EC2               	movwf	194,c	;volatile
  1789   0020B8                     
  1790                           ;newmain.c: 144:     TRISC = 0x00;
  1791   0020B8  82C2               	bsf	194,1,c	;volatile
  1792   0020BA                     l97:
  1793   0020BA  B2C2               	btfsc	194,1,c	;volatile
  1794   0020BC  EF62  F010         	goto	u2851
  1795   0020C0  EF64  F010         	goto	u2850
  1796   0020C4                     u2851:
  1797   0020C4  EF5D  F010         	goto	l97
  1798   0020C8                     u2850:
  1799   0020C8                     
  1800                           ;newmain.c: 146: 
  1801   0020C8  CFC4 F07C          	movff	4036,ADC_Read10bit@result	;volatile
  1802   0020CC  0100               	movlb	0	; () banked
  1803   0020CE  6B7D               	clrf	(ADC_Read10bit@result+1)& (0+255),b
  1804   0020D0                     
  1805                           ; BSR set to: 0
  1806                           ;newmain.c: 147: void main(void)
  1807   0020D0  517C               	movf	ADC_Read10bit@result& (0+255),w,b
  1808   0020D2  6F7D               	movwf	(ADC_Read10bit@result+1)& (0+255),b
  1809   0020D4  6B7C               	clrf	ADC_Read10bit@result& (0+255),b
  1810   0020D6                     
  1811                           ; BSR set to: 0
  1812                           ;newmain.c: 148: {
  1813   0020D6  50C3               	movf	195,w,c	;volatile
  1814   0020D8  137C               	iorwf	ADC_Read10bit@result& (0+255),f,b
  1815   0020DA                     
  1816                           ; BSR set to: 0
  1817                           ;newmain.c: 149:     SYSTEM_Initialize();
  1818   0020DA  C07C  F07A         	movff	ADC_Read10bit@result,?_ADC_Read10bit
  1819   0020DE  C07D  F07B         	movff	ADC_Read10bit@result+1,?_ADC_Read10bit+1
  1820   0020E2                     
  1821                           ; BSR set to: 0
  1822   0020E2  0012               	return		;funcret
  1823   0020E4                     __end_of_ADC_Read10bit:
  1824                           	callstack 0
  1825                           
  1826 ;; *************** function _Check_Button *****************
  1827 ;; Defined at:
  1828 ;;		line 123 in file "newmain.c"
  1829 ;; Parameters:    Size  Location     Type
  1830 ;;		None
  1831 ;; Auto vars:     Size  Location     Type
  1832 ;;		None
  1833 ;; Return value:  Size  Location     Type
  1834 ;;                  1    wreg      void 
  1835 ;; Registers used:
  1836 ;;		wreg, fsr2l, fsr2h, status,2, status,0
  1837 ;; Tracked objects:
  1838 ;;		On entry : 0/0
  1839 ;;		On exit  : 0/0
  1840 ;;		Unchanged: 0/0
  1841 ;; Data sizes:     COMRAM   BANK0   BANK1  BANK2h  BANK2l
  1842 ;;      Params:         0       0       0       0       0
  1843 ;;      Locals:         0       0       0       0       0
  1844 ;;      Temps:          0       0       0       0       0
  1845 ;;      Totals:         0       0       0       0       0
  1846 ;;Total ram usage:        0 bytes
  1847 ;; Hardware stack levels used: 1
  1848 ;; Hardware stack levels required when called: 10
  1849 ;; This function calls:
  1850 ;;		Nothing
  1851 ;; This function is called by:
  1852 ;;		_main
  1853 ;; This function uses a non-reentrant model
  1854 ;;
  1855                           
  1856                           	psect	text9
  1857   001EDC                     __ptext9:
  1858                           	callstack 0
  1859   001EDC                     _Check_Button:
  1860                           	callstack 20
  1861   001EDC                     
  1862                           ;newmain.c: 125: }
  1863   001EDC  5036               	movf	_USBInHandle^0,w,c
  1864   001EDE  1037               	iorwf	(_USBInHandle+1)^0,w,c
  1865   001EE0  B4D8               	btfsc	status,2,c
  1866   001EE2  EF75  F00F         	goto	u2931
  1867   001EE6  EF77  F00F         	goto	u2930
  1868   001EEA                     u2931:
  1869   001EEA  EF82  F00F         	goto	l91
  1870   001EEE                     u2930:
  1871   001EEE  C036  FFD9         	movff	_USBInHandle,fsr2l
  1872   001EF2  C037  FFDA         	movff	_USBInHandle+1,fsr2h
  1873   001EF6  BEDF               	btfsc	indf2,7,c
  1874   001EF8  EF80  F00F         	goto	u2941
  1875   001EFC  EF82  F00F         	goto	u2940
  1876   001F00                     u2941:
  1877   001F00  EF94  F00F         	goto	l94
  1878   001F04                     u2940:
  1879   001F04                     l91:
  1880                           
  1881                           ;newmain.c: 126: ;newmain.c: 127: void SYSTEM_Initialize()
  1882   001F04  BE81               	btfsc	129,7,c	;volatile
  1883   001F06  EF87  F00F         	goto	u2951
  1884   001F0A  EF89  F00F         	goto	u2950
  1885   001F0E                     u2951:
  1886   001F0E  EF8F  F00F         	goto	l4077
  1887   001F12                     u2950:
  1888   001F12                     
  1889                           ;newmain.c: 128: {;newmain.c: 129: 
  1890   001F12  0E00               	movlw	0
  1891   001F14  0102               	movlb	2	; () banked
  1892   001F16  6FA1               	movwf	161,b
  1893   001F18                     
  1894                           ; BSR set to: 2
  1895                           ;newmain.c: 130:     ADCON0=0x29;
  1896   001F18  6882               	setf	130,c	;volatile
  1897                           
  1898                           ;newmain.c: 131:     ADCON0bits.CHS = 0b00001010;
  1899   001F1A  EF94  F00F         	goto	l94
  1900   001F1E                     l4077:
  1901                           
  1902                           ;newmain.c: 133:     ADCON2=0x3E;;newmain.c: 134:     ADCON2bits.ADFM = 1;
  1903   001F1E  0E01               	movlw	1
  1904   001F20  0102               	movlb	2	; () banked
  1905   001F22  6FA1               	movwf	161,b
  1906                           
  1907                           ;newmain.c: 135:     TRISBbits.TRISB4 = 1;
  1908   001F24  0E00               	movlw	0
  1909   001F26  6E82               	movwf	130,c	;volatile
  1910   001F28                     l94:
  1911   001F28  0012               	return		;funcret
  1912   001F2A                     __end_of_Check_Button:
  1913                           	callstack 0
  1914                           
  1915 ;; *************** function _SYS_InterruptHigh *****************
  1916 ;; Defined at:
  1917 ;;		line 46 in file "newmain.c"
  1918 ;; Parameters:    Size  Location     Type
  1919 ;;		None
  1920 ;; Auto vars:     Size  Location     Type
  1921 ;;		None
  1922 ;; Return value:  Size  Location     Type
  1923 ;;                  1    wreg      void 
  1924 ;; Registers used:
  1925 ;;		wreg, fsr1l, fsr1h, fsr2l, fsr2h, status,2, status,0, tblptrl, tblptrh, tblptru, prodl, prodh, cstack
  1926 ;; Tracked objects:
  1927 ;;		On entry : 0/0
  1928 ;;		On exit  : 0/0
  1929 ;;		Unchanged: 0/0
  1930 ;; Data sizes:     COMRAM   BANK0   BANK1  BANK2h  BANK2l
  1931 ;;      Params:         0       0       0       0       0
  1932 ;;      Locals:         0       0       0       0       0
  1933 ;;      Temps:         10       0       0       0       0
  1934 ;;      Totals:        10       0       0       0       0
  1935 ;;Total ram usage:       10 bytes
  1936 ;; Hardware stack levels used: 1
  1937 ;; Hardware stack levels required when called: 9
  1938 ;; This function calls:
  1939 ;;		_USBDeviceTasks
  1940 ;; This function is called by:
  1941 ;;		Interrupt level 2
  1942 ;; This function uses a non-reentrant model
  1943 ;;
  1944                           
  1945                           	psect	intcode
  1946   000008                     __pintcode:
  1947                           	callstack 0
  1948   000008                     _SYS_InterruptHigh:
  1949                           	callstack 19
  1950                           
  1951                           ;incstack = 0
  1952   000008  824D               	bsf	int$flags,1,c	;set compiler interrupt flag (level 2)
  1953   00000A  CFE1 F022          	movff	fsr1l,??_SYS_InterruptHigh
  1954   00000E  CFE2 F023          	movff	fsr1h,??_SYS_InterruptHigh+1
  1955   000012  CFD9 F024          	movff	fsr2l,??_SYS_InterruptHigh+2
  1956   000016  CFDA F025          	movff	fsr2h,??_SYS_InterruptHigh+3
  1957   00001A  CFF3 F026          	movff	prodl,??_SYS_InterruptHigh+4
  1958   00001E  CFF4 F027          	movff	prodh,??_SYS_InterruptHigh+5
  1959   000022  CFF6 F028          	movff	tblptrl,??_SYS_InterruptHigh+6
  1960   000026  CFF7 F029          	movff	tblptrh,??_SYS_InterruptHigh+7
  1961   00002A  CFF8 F02A          	movff	tblptru,??_SYS_InterruptHigh+8
  1962   00002E  CFF5 F02B          	movff	tablat,??_SYS_InterruptHigh+9
  1963   000032                     
  1964                           ;newmain.c: 49:             break;
  1965   000032  EC6E  F003         	call	_USBDeviceTasks	;wreg free
  1966   000036  C02B  FFF5         	movff	??_SYS_InterruptHigh+9,tablat
  1967   00003A  C02A  FFF8         	movff	??_SYS_InterruptHigh+8,tblptru
  1968   00003E  C029  FFF7         	movff	??_SYS_InterruptHigh+7,tblptrh
  1969   000042  C028  FFF6         	movff	??_SYS_InterruptHigh+6,tblptrl
  1970   000046  C027  FFF4         	movff	??_SYS_InterruptHigh+5,prodh
  1971   00004A  C026  FFF3         	movff	??_SYS_InterruptHigh+4,prodl
  1972   00004E  C025  FFDA         	movff	??_SYS_InterruptHigh+3,fsr2h
  1973   000052  C024  FFD9         	movff	??_SYS_InterruptHigh+2,fsr2l
  1974   000056  C023  FFE2         	movff	??_SYS_InterruptHigh+1,fsr1h
  1975   00005A  C022  FFE1         	movff	??_SYS_InterruptHigh,fsr1l
  1976   00005E  924D               	bcf	int$flags,1,c	;clear compiler interrupt flag (level 2)
  1977   000060  0011               	retfie		f
  1978   000062                     __end_of_SYS_InterruptHigh:
  1979                           	callstack 0
  1980                           
  1981 ;; *************** function _USBDeviceTasks *****************
  1982 ;; Defined at:
  1983 ;;		line 481 in file "usb/src/usb_device.c"
  1984 ;; Parameters:    Size  Location     Type
  1985 ;;		None
  1986 ;; Auto vars:     Size  Location     Type
  1987 ;;  i               1   32[COMRAM] unsigned char 
  1988 ;; Return value:  Size  Location     Type
  1989 ;;                  1    wreg      void 
  1990 ;; Registers used:
  1991 ;;		wreg, fsr1l, fsr1h, fsr2l, fsr2h, status,2, status,0, tblptrl, tblptrh, tblptru, prodl, prodh, cstack
  1992 ;; Tracked objects:
  1993 ;;		On entry : 0/0
  1994 ;;		On exit  : 0/0
  1995 ;;		Unchanged: 0/0
  1996 ;; Data sizes:     COMRAM   BANK0   BANK1  BANK2h  BANK2l
  1997 ;;      Params:         0       0       0       0       0
  1998 ;;      Locals:         1       0       0       0       0
  1999 ;;      Temps:          0       0       0       0       0
  2000 ;;      Totals:         1       0       0       0       0
  2001 ;;Total ram usage:        1 bytes
  2002 ;; Hardware stack levels used: 1
  2003 ;; Hardware stack levels required when called: 8
  2004 ;; This function calls:
  2005 ;;		_USBCtrlEPAllowStatusStage
  2006 ;;		_USBCtrlEPService
  2007 ;;		_USBIncrement1msInternalTimers
  2008 ;;		_USBStallHandler
  2009 ;;		_USBSuspend
  2010 ;;		_USBWakeFromSuspend
  2011 ;;		_USER_USB_CALLBACK_EVENT_HANDLER
  2012 ;;		i2_USBDeviceInit
  2013 ;; This function is called by:
  2014 ;;		_SYS_InterruptHigh
  2015 ;; This function uses a non-reentrant model
  2016 ;;
  2017                           
  2018                           	psect	text11
  2019   0006DC                     __ptext11:
  2020                           	callstack 0
  2021   0006DC                     _USBDeviceTasks:
  2022                           	callstack 19
  2023   0006DC                     
  2024                           ;usb/src/usb_device.c: 483:     uint8_t i;;usb/src/usb_device.c: 594:     if(USBDeviceSt
      +                          ate == ATTACHED_STATE)
  2025   0006DC  0447               	decf	_USBDeviceState^0,w,c	;volatile
  2026   0006DE  A4D8               	btfss	status,2,c
  2027   0006E0  EF74  F003         	goto	i2u239_41
  2028   0006E4  EF76  F003         	goto	i2u239_40
  2029   0006E8                     i2u239_41:
  2030   0006E8  EF83  F003         	goto	i2l3533
  2031   0006EC                     i2u239_40:
  2032   0006EC                     
  2033                           ;usb/src/usb_device.c: 595:     {;usb/src/usb_device.c: 605:         if(!UCONbits.SE0)
  2034   0006EC  BA64               	btfsc	100,5,c	;volatile
  2035   0006EE  EF7B  F003         	goto	i2u240_41
  2036   0006F2  EF7D  F003         	goto	i2u240_40
  2037   0006F6                     i2u240_41:
  2038   0006F6  EF83  F003         	goto	i2l3533
  2039   0006FA                     i2u240_40:
  2040   0006FA                     
  2041                           ;usb/src/usb_device.c: 606:         {;usb/src/usb_device.c: 612:                 {UIR = 
      +                          0;};
  2042   0006FA  0E00               	movlw	0
  2043   0006FC  6E62               	movwf	98,c	;volatile
  2044   0006FE                     
  2045                           ;usb/src/usb_device.c: 618:             UIEbits.URSTIE = 1;
  2046   0006FE  8060               	bsf	96,0,c	;volatile
  2047   000700                     
  2048                           ;usb/src/usb_device.c: 619:             UIEbits.IDLEIE = 1;
  2049   000700  8860               	bsf	96,4,c	;volatile
  2050                           
  2051                           ;usb/src/usb_device.c: 620:             USBDeviceState = POWERED_STATE;
  2052   000702  0E02               	movlw	2
  2053   000704  6E47               	movwf	_USBDeviceState^0,c	;volatile
  2054   000706                     i2l3533:
  2055                           
  2056                           ;usb/src/usb_device.c: 638:     if(UIRbits.ACTVIF && UIEbits.ACTVIE)
  2057   000706  A462               	btfss	98,2,c	;volatile
  2058   000708  EF88  F003         	goto	i2u241_41
  2059   00070C  EF8A  F003         	goto	i2u241_40
  2060   000710                     i2u241_41:
  2061   000710  EF94  F003         	goto	i2l3541
  2062   000714                     i2u241_40:
  2063   000714  A460               	btfss	96,2,c	;volatile
  2064   000716  EF8F  F003         	goto	i2u242_41
  2065   00071A  EF91  F003         	goto	i2u242_40
  2066   00071E                     i2u242_41:
  2067   00071E  EF94  F003         	goto	i2l3541
  2068   000722                     i2u242_40:
  2069   000722                     
  2070                           ;usb/src/usb_device.c: 639:     {;usb/src/usb_device.c: 640:         (UIR &= 0xFB);
  2071   000722  9462               	bcf	98,2,c	;volatile
  2072   000724                     
  2073                           ;usb/src/usb_device.c: 644:             USBWakeFromSuspend();
  2074   000724  EC00  F010         	call	_USBWakeFromSuspend	;wreg free
  2075   000728                     i2l3541:
  2076                           
  2077                           ;usb/src/usb_device.c: 651:     if(UCONbits.SUSPND==1)
  2078   000728  A264               	btfss	100,1,c	;volatile
  2079   00072A  EF99  F003         	goto	i2u243_41
  2080   00072E  EF9B  F003         	goto	i2u243_40
  2081   000732                     i2u243_41:
  2082   000732  EF9E  F003         	goto	i2l272
  2083   000736                     i2u243_40:
  2084   000736                     
  2085                           ;usb/src/usb_device.c: 652:     {;usb/src/usb_device.c: 653:         {PIR2bits.USBIF = 0
      +                          ;};
  2086   000736  94A1               	bcf	161,2,c	;volatile
  2087                           
  2088                           ;usb/src/usb_device.c: 654:         return;
  2089   000738  EF7D  F004         	goto	i2l273
  2090   00073C                     i2l272:
  2091                           
  2092                           ;usb/src/usb_device.c: 667:     if(UIRbits.URSTIF && UIEbits.URSTIE)
  2093   00073C  A062               	btfss	98,0,c	;volatile
  2094   00073E  EFA3  F003         	goto	i2u244_41
  2095   000742  EFA5  F003         	goto	i2u244_40
  2096   000746                     i2u244_41:
  2097   000746  EFB2  F003         	goto	i2l3555
  2098   00074A                     i2u244_40:
  2099   00074A  A060               	btfss	96,0,c	;volatile
  2100   00074C  EFAA  F003         	goto	i2u245_41
  2101   000750  EFAC  F003         	goto	i2u245_40
  2102   000754                     i2u245_41:
  2103   000754  EFB2  F003         	goto	i2l3555
  2104   000758                     i2u245_40:
  2105   000758                     
  2106                           ;usb/src/usb_device.c: 668:     {;usb/src/usb_device.c: 669:         USBDeviceInit();
  2107   000758  ECD1  F007         	call	i2_USBDeviceInit	;wreg free
  2108   00075C                     
  2109                           ;usb/src/usb_device.c: 673:         {PIE2bits.USBIE = 1;};
  2110   00075C  84A0               	bsf	160,2,c	;volatile
  2111   00075E                     
  2112                           ;usb/src/usb_device.c: 675:         USBDeviceState = DEFAULT_STATE;
  2113   00075E  0E04               	movlw	4
  2114   000760  6E47               	movwf	_USBDeviceState^0,c	;volatile
  2115   000762                     
  2116                           ;usb/src/usb_device.c: 685:         (UIR &= 0xFE);
  2117   000762  9062               	bcf	98,0,c	;volatile
  2118   000764                     i2l3555:
  2119                           
  2120                           ;usb/src/usb_device.c: 691:     if(UIRbits.IDLEIF && UIEbits.IDLEIE)
  2121   000764  A862               	btfss	98,4,c	;volatile
  2122   000766  EFB7  F003         	goto	i2u246_41
  2123   00076A  EFB9  F003         	goto	i2u246_40
  2124   00076E                     i2u246_41:
  2125   00076E  EFC2  F003         	goto	i2l3561
  2126   000772                     i2u246_40:
  2127   000772  A860               	btfss	96,4,c	;volatile
  2128   000774  EFBE  F003         	goto	i2u247_41
  2129   000778  EFC0  F003         	goto	i2u247_40
  2130   00077C                     i2u247_41:
  2131   00077C  EFC2  F003         	goto	i2l3561
  2132   000780                     i2u247_40:
  2133   000780                     
  2134                           ;usb/src/usb_device.c: 692:     {;usb/src/usb_device.c: 698:             USBSuspend();
  2135   000780  ECA4  F010         	call	_USBSuspend	;wreg free
  2136   000784                     i2l3561:
  2137                           
  2138                           ;usb/src/usb_device.c: 712:     if(UIRbits.SOFIF)
  2139   000784  AC62               	btfss	98,6,c	;volatile
  2140   000786  EFC7  F003         	goto	i2u248_41
  2141   00078A  EFC9  F003         	goto	i2u248_40
  2142   00078E                     i2u248_41:
  2143   00078E  EFF4  F003         	goto	i2l3579
  2144   000792                     i2u248_40:
  2145   000792                     
  2146                           ;usb/src/usb_device.c: 713:     {;usb/src/usb_device.c: 715:         if(UIEbits.SOFIE)
  2147   000792  AC60               	btfss	96,6,c	;volatile
  2148   000794  EFCE  F003         	goto	i2u249_41
  2149   000798  EFD0  F003         	goto	i2u249_40
  2150   00079C                     i2u249_41:
  2151   00079C  EFDE  F003         	goto	i2l3567
  2152   0007A0                     i2u249_40:
  2153   0007A0                     
  2154                           ;usb/src/usb_device.c: 716:         {;usb/src/usb_device.c: 717:             USER_USB_CA
      +                          LLBACK_EVENT_HANDLER((USB_EVENT)EVENT_SOF,0,1);
  2155   0007A0  0E00               	movlw	0
  2156   0007A2  6E10               	movwf	(USER_USB_CALLBACK_EVENT_HANDLER@event+1)^0,c
  2157   0007A4  0E73               	movlw	115
  2158   0007A6  6E0F               	movwf	USER_USB_CALLBACK_EVENT_HANDLER@event^0,c
  2159   0007A8  0E00               	movlw	0
  2160   0007AA  6E11               	movwf	USER_USB_CALLBACK_EVENT_HANDLER@pdata^0,c
  2161   0007AC  0E00               	movlw	0
  2162   0007AE  6E12               	movwf	(USER_USB_CALLBACK_EVENT_HANDLER@pdata+1)^0,c
  2163   0007B0  0E00               	movlw	0
  2164   0007B2  6E14               	movwf	(USER_USB_CALLBACK_EVENT_HANDLER@size+1)^0,c
  2165   0007B4  0E01               	movlw	1
  2166   0007B6  6E13               	movwf	USER_USB_CALLBACK_EVENT_HANDLER@size^0,c
  2167   0007B8  EC97  F00E         	call	_USER_USB_CALLBACK_EVENT_HANDLER	;wreg free
  2168   0007BC                     i2l3567:
  2169                           
  2170                           ;usb/src/usb_device.c: 719:         (UIR &= 0xBF);
  2171   0007BC  9C62               	bcf	98,6,c	;volatile
  2172   0007BE                     
  2173                           ;usb/src/usb_device.c: 722:             USBIncrement1msInternalTimers();
  2174   0007BE  EC72  F010         	call	_USBIncrement1msInternalTimers	;wreg free
  2175   0007C2                     
  2176                           ;usb/src/usb_device.c: 739:             if(USBStatusStageTimeoutCounter != 0u)
  2177   0007C2  5040               	movf	_USBStatusStageTimeoutCounter^0,w,c	;volatile
  2178   0007C4  B4D8               	btfsc	status,2,c
  2179   0007C6  EFE7  F003         	goto	i2u250_41
  2180   0007CA  EFE9  F003         	goto	i2u250_40
  2181   0007CE                     i2u250_41:
  2182   0007CE  EFEA  F003         	goto	i2l3575
  2183   0007D2                     i2u250_40:
  2184   0007D2                     
  2185                           ;usb/src/usb_device.c: 740:             {;usb/src/usb_device.c: 741:                 USB
      +                          StatusStageTimeoutCounter--;
  2186   0007D2  0640               	decf	_USBStatusStageTimeoutCounter^0,f,c	;volatile
  2187   0007D4                     i2l3575:
  2188                           
  2189                           ;usb/src/usb_device.c: 748:             if(USBStatusStageTimeoutCounter == 0)
  2190   0007D4  5040               	movf	_USBStatusStageTimeoutCounter^0,w,c	;volatile
  2191   0007D6  A4D8               	btfss	status,2,c
  2192   0007D8  EFF0  F003         	goto	i2u251_41
  2193   0007DC  EFF2  F003         	goto	i2u251_40
  2194   0007E0                     i2u251_41:
  2195   0007E0  EFF4  F003         	goto	i2l3579
  2196   0007E4                     i2u251_40:
  2197   0007E4                     
  2198                           ;usb/src/usb_device.c: 749:             {;usb/src/usb_device.c: 750:                 USB
      +                          CtrlEPAllowStatusStage();
  2199   0007E4  ECBB  F00B         	call	_USBCtrlEPAllowStatusStage	;wreg free
  2200   0007E8                     i2l3579:
  2201                           
  2202                           ;usb/src/usb_device.c: 755:     if(UIRbits.STALLIF && UIEbits.STALLIE)
  2203   0007E8  AA62               	btfss	98,5,c	;volatile
  2204   0007EA  EFF9  F003         	goto	i2u252_41
  2205   0007EE  EFFB  F003         	goto	i2u252_40
  2206   0007F2                     i2u252_41:
  2207   0007F2  EF04  F004         	goto	i2l3585
  2208   0007F6                     i2u252_40:
  2209   0007F6  AA60               	btfss	96,5,c	;volatile
  2210   0007F8  EF00  F004         	goto	i2u253_41
  2211   0007FC  EF02  F004         	goto	i2u253_40
  2212   000800                     i2u253_41:
  2213   000800  EF04  F004         	goto	i2l3585
  2214   000804                     i2u253_40:
  2215   000804                     
  2216                           ;usb/src/usb_device.c: 756:     {;usb/src/usb_device.c: 757:         USBStallHandler();
  2217   000804  EC15  F00F         	call	_USBStallHandler	;wreg free
  2218   000808                     i2l3585:
  2219                           
  2220                           ;usb/src/usb_device.c: 760:     if(UIRbits.UERRIF && UIEbits.UERRIE)
  2221   000808  A262               	btfss	98,1,c	;volatile
  2222   00080A  EF09  F004         	goto	i2u254_41
  2223   00080E  EF0B  F004         	goto	i2u254_40
  2224   000812                     i2u254_41:
  2225   000812  EF22  F004         	goto	i2l3593
  2226   000816                     i2u254_40:
  2227   000816  A260               	btfss	96,1,c	;volatile
  2228   000818  EF10  F004         	goto	i2u255_41
  2229   00081C  EF12  F004         	goto	i2u255_40
  2230   000820                     i2u255_41:
  2231   000820  EF22  F004         	goto	i2l3593
  2232   000824                     i2u255_40:
  2233   000824                     
  2234                           ;usb/src/usb_device.c: 761:     {;usb/src/usb_device.c: 762:         USER_USB_CALLBACK_E
      +                          VENT_HANDLER((USB_EVENT)EVENT_BUS_ERROR,0,1);
  2235   000824  0E7F               	movlw	127
  2236   000826  6E10               	movwf	(USER_USB_CALLBACK_EVENT_HANDLER@event+1)^0,c
  2237   000828  680F               	setf	USER_USB_CALLBACK_EVENT_HANDLER@event^0,c
  2238   00082A  0E00               	movlw	0
  2239   00082C  6E11               	movwf	USER_USB_CALLBACK_EVENT_HANDLER@pdata^0,c
  2240   00082E  0E00               	movlw	0
  2241   000830  6E12               	movwf	(USER_USB_CALLBACK_EVENT_HANDLER@pdata+1)^0,c
  2242   000832  0E00               	movlw	0
  2243   000834  6E14               	movwf	(USER_USB_CALLBACK_EVENT_HANDLER@size+1)^0,c
  2244   000836  0E01               	movlw	1
  2245   000838  6E13               	movwf	USER_USB_CALLBACK_EVENT_HANDLER@size^0,c
  2246   00083A  EC97  F00E         	call	_USER_USB_CALLBACK_EVENT_HANDLER	;wreg free
  2247   00083E                     
  2248                           ;usb/src/usb_device.c: 763:         {UEIR = 0;};
  2249   00083E  0E00               	movlw	0
  2250   000840  010F               	movlb	15	; () banked
  2251   000842  6F5F               	movwf	95,b	;volatile
  2252   000844                     i2l3593:
  2253                           
  2254                           ;usb/src/usb_device.c: 778:     if(USBDeviceState < DEFAULT_STATE)
  2255   000844  0E04               	movlw	4
  2256   000846  6047               	cpfslt	_USBDeviceState^0,c	;volatile
  2257   000848  EF28  F004         	goto	i2u256_41
  2258   00084C  EF2A  F004         	goto	i2u256_40
  2259   000850                     i2u256_41:
  2260   000850  EF2D  F004         	goto	i2l282
  2261   000854                     i2u256_40:
  2262   000854                     
  2263                           ;usb/src/usb_device.c: 779:     {;usb/src/usb_device.c: 780:         {PIR2bits.USBIF = 0
      +                          ;};
  2264   000854  94A1               	bcf	161,2,c	;volatile
  2265                           
  2266                           ;usb/src/usb_device.c: 781:         return;
  2267   000856  EF7D  F004         	goto	i2l273
  2268   00085A                     i2l282:
  2269                           
  2270                           ;usb/src/usb_device.c: 787:     if(UIEbits.TRNIE)
  2271   00085A  A660               	btfss	96,3,c	;volatile
  2272   00085C  EF32  F004         	goto	i2u257_41
  2273   000860  EF34  F004         	goto	i2u257_40
  2274   000864                     i2u257_41:
  2275   000864  EF7C  F004         	goto	i2l283
  2276   000868                     i2u257_40:
  2277   000868                     
  2278                           ;usb/src/usb_device.c: 788:     {;usb/src/usb_device.c: 789:         for(i = 0; i < 4u; 
      +                          i++)
  2279   000868  0E00               	movlw	0
  2280   00086A  6E21               	movwf	USBDeviceTasks@i^0,c
  2281   00086C                     i2l284:
  2282                           
  2283                           ;usb/src/usb_device.c: 790:         {;usb/src/usb_device.c: 791:             if(UIRbits.
      +                          TRNIF)
  2284   00086C  A662               	btfss	98,3,c	;volatile
  2285   00086E  EF3B  F004         	goto	i2u258_41
  2286   000872  EF3D  F004         	goto	i2u258_40
  2287   000876                     i2u258_41:
  2288   000876  EF7C  F004         	goto	i2l283
  2289   00087A                     i2u258_40:
  2290   00087A                     
  2291                           ;usb/src/usb_device.c: 792:             {;usb/src/usb_device.c: 794:                 UST
      +                          ATcopy.Val = USTAT;
  2292   00087A  CF63 F04A          	movff	3939,_USTATcopy	;volatile
  2293   00087E                     
  2294                           ;usb/src/usb_device.c: 795:                 endpoint_number = USTATcopy.endpoint_number;
  2295   00087E  304A               	rrcf	_USTATcopy^0,w,c	;volatile
  2296   000880  32E8               	rrcf	wreg,f,c
  2297   000882  32E8               	rrcf	wreg,f,c
  2298   000884  0B0F               	andlw	15
  2299   000886  6E42               	movwf	_endpoint_number^0,c	;volatile
  2300   000888                     
  2301                           ;usb/src/usb_device.c: 797:                 (UIR &= 0xF7);
  2302   000888  9662               	bcf	98,3,c	;volatile
  2303   00088A                     
  2304                           ;usb/src/usb_device.c: 802:                 if(USTATcopy.direction == 0)
  2305   00088A  B44A               	btfsc	_USTATcopy^0,2,c	;volatile
  2306   00088C  EF4A  F004         	goto	i2u259_41
  2307   000890  EF4C  F004         	goto	i2u259_40
  2308   000894                     i2u259_41:
  2309   000894  EF54  F004         	goto	i2l3613
  2310   000898                     i2u259_40:
  2311   000898                     
  2312                           ;usb/src/usb_device.c: 803:                 {;usb/src/usb_device.c: 804:                
      +                               ep_data_out[endpoint_number].bits.ping_pong_state ^= 1;
  2313   000898  5042               	movf	_endpoint_number^0,w,c
  2314   00089A  0F76               	addlw	low _ep_data_out
  2315   00089C  6ED9               	movwf	fsr2l,c
  2316   00089E  6ADA               	clrf	fsr2h,c
  2317   0008A0  0100               	movlb	0	; () banked
  2318   0008A2  70DF               	btg	indf2,0,c
  2319                           
  2320                           ;usb/src/usb_device.c: 805:                 }
  2321   0008A4  EF5A  F004         	goto	i2l3615
  2322   0008A8                     i2l3613:
  2323                           
  2324                           ;usb/src/usb_device.c: 807:                 {;usb/src/usb_device.c: 808:                
      +                               ep_data_in[endpoint_number].bits.ping_pong_state ^= 1;
  2325   0008A8  5042               	movf	_endpoint_number^0,w,c
  2326   0008AA  0F78               	addlw	low _ep_data_in
  2327   0008AC  6ED9               	movwf	fsr2l,c
  2328   0008AE  6ADA               	clrf	fsr2h,c
  2329   0008B0  0100               	movlb	0	; () banked
  2330   0008B2  70DF               	btg	indf2,0,c
  2331   0008B4                     i2l3615:
  2332                           
  2333                           ; BSR set to: 0
  2334                           ;usb/src/usb_device.c: 814:                 if(endpoint_number == 0)
  2335   0008B4  5042               	movf	_endpoint_number^0,w,c	;volatile
  2336   0008B6  A4D8               	btfss	status,2,c
  2337   0008B8  EF60  F004         	goto	i2u260_41
  2338   0008BC  EF62  F004         	goto	i2u260_40
  2339   0008C0                     i2u260_41:
  2340   0008C0  EF66  F004         	goto	i2l3619
  2341   0008C4                     i2u260_40:
  2342   0008C4                     
  2343                           ; BSR set to: 0
  2344                           ;usb/src/usb_device.c: 815:                 {;usb/src/usb_device.c: 816:                
      +                               USBCtrlEPService();
  2345   0008C4  ECFE  F00C         	call	_USBCtrlEPService	;wreg free
  2346                           
  2347                           ;usb/src/usb_device.c: 817:                 }
  2348   0008C8  EF73  F004         	goto	i2l3621
  2349   0008CC                     i2l3619:
  2350                           
  2351                           ; BSR set to: 0
  2352                           ;usb/src/usb_device.c: 819:                 {;usb/src/usb_device.c: 820:                
      +                               USER_USB_CALLBACK_EVENT_HANDLER((USB_EVENT)EVENT_TRANSFER,(uint8_t*)&USTATcopy.Val,
      +                          0);
  2353   0008CC  0E00               	movlw	0
  2354   0008CE  6E10               	movwf	(USER_USB_CALLBACK_EVENT_HANDLER@event+1)^0,c
  2355   0008D0  0E72               	movlw	114
  2356   0008D2  6E0F               	movwf	USER_USB_CALLBACK_EVENT_HANDLER@event^0,c
  2357   0008D4  0E4A               	movlw	low _USTATcopy
  2358   0008D6  6E11               	movwf	USER_USB_CALLBACK_EVENT_HANDLER@pdata^0,c
  2359   0008D8  6A12               	clrf	(USER_USB_CALLBACK_EVENT_HANDLER@pdata+1)^0,c
  2360   0008DA  0E00               	movlw	0
  2361   0008DC  6E14               	movwf	(USER_USB_CALLBACK_EVENT_HANDLER@size+1)^0,c
  2362   0008DE  0E00               	movlw	0
  2363   0008E0  6E13               	movwf	USER_USB_CALLBACK_EVENT_HANDLER@size^0,c
  2364   0008E2  EC97  F00E         	call	_USER_USB_CALLBACK_EVENT_HANDLER	;wreg free
  2365   0008E6                     i2l3621:
  2366                           
  2367                           ;usb/src/usb_device.c: 827:         }
  2368   0008E6  2A21               	incf	USBDeviceTasks@i^0,f,c
  2369   0008E8  0E03               	movlw	3
  2370   0008EA  6421               	cpfsgt	USBDeviceTasks@i^0,c
  2371   0008EC  EF7A  F004         	goto	i2u261_41
  2372   0008F0  EF7C  F004         	goto	i2u261_40
  2373   0008F4                     i2u261_41:
  2374   0008F4  EF36  F004         	goto	i2l284
  2375   0008F8                     i2u261_40:
  2376   0008F8                     i2l283:
  2377                           
  2378                           ;usb/src/usb_device.c: 830:     {PIR2bits.USBIF = 0;};
  2379   0008F8  94A1               	bcf	161,2,c	;volatile
  2380   0008FA                     i2l273:
  2381   0008FA  0012               	return		;funcret
  2382   0008FC                     __end_of_USBDeviceTasks:
  2383                           	callstack 0
  2384                           
  2385 ;; *************** function i2_USBDeviceInit *****************
  2386 ;; Defined at:
  2387 ;;		line 281 in file "usb/src/usb_device.c"
  2388 ;; Parameters:    Size  Location     Type
  2389 ;;		None
  2390 ;; Auto vars:     Size  Location     Type
  2391 ;;  i               1    8[COMRAM] unsigned char 
  2392 ;; Return value:  Size  Location     Type
  2393 ;;                  1    wreg      void 
  2394 ;; Registers used:
  2395 ;;		wreg, fsr2l, fsr2h, status,2, status,0, prodl, prodh, cstack
  2396 ;; Tracked objects:
  2397 ;;		On entry : 0/0
  2398 ;;		On exit  : 0/0
  2399 ;;		Unchanged: 0/0
  2400 ;; Data sizes:     COMRAM   BANK0   BANK1  BANK2h  BANK2l
  2401 ;;      Params:         0       0       0       0       0
  2402 ;;      Locals:         1       0       0       0       0
  2403 ;;      Temps:          0       0       0       0       0
  2404 ;;      Totals:         1       0       0       0       0
  2405 ;;Total ram usage:        1 bytes
  2406 ;; Hardware stack levels used: 1
  2407 ;; Hardware stack levels required when called: 1
  2408 ;; This function calls:
  2409 ;;		i2_memset
  2410 ;; This function is called by:
  2411 ;;		_USBDeviceTasks
  2412 ;; This function uses a non-reentrant model
  2413 ;;
  2414                           
  2415                           	psect	text12
  2416   000FA2                     __ptext12:
  2417                           	callstack 0
  2418   000FA2                     i2_USBDeviceInit:
  2419                           	callstack 25
  2420   000FA2                     
  2421                           ;usb/src/usb_device.c: 283:     uint8_t i;;usb/src/usb_device.c: 285:     {PIE2bits.USBI
      +                          E = 0;};
  2422   000FA2  94A0               	bcf	160,2,c	;volatile
  2423   000FA4                     
  2424                           ;usb/src/usb_device.c: 292:     {UEIR = 0;};
  2425   000FA4  0E00               	movlw	0
  2426   000FA6  010F               	movlb	15	; () banked
  2427   000FA8  6F5F               	movwf	95,b	;volatile
  2428                           
  2429                           ;usb/src/usb_device.c: 295:     {UIR = 0;};
  2430   000FAA  0E00               	movlw	0
  2431   000FAC  6E62               	movwf	98,c	;volatile
  2432                           
  2433                           ;usb/src/usb_device.c: 298:     UEP0 = 0;
  2434   000FAE  0E00               	movlw	0
  2435   000FB0  6F53               	movwf	83,b	;volatile
  2436   000FB2                     
  2437                           ; BSR set to: 15
  2438                           ;usb/src/usb_device.c: 300:     memset((void*)&UEP1,0x00,(1));;
  2439   000FB2  0E54               	movlw	84
  2440   000FB4  6E01               	movwf	i2memset@dest^0,c
  2441   000FB6  0E0F               	movlw	15
  2442   000FB8  6E02               	movwf	(i2memset@dest+1)^0,c
  2443   000FBA  0E00               	movlw	0
  2444   000FBC  6E04               	movwf	(i2memset@c+1)^0,c
  2445   000FBE  0E00               	movlw	0
  2446   000FC0  6E03               	movwf	i2memset@c^0,c
  2447   000FC2  0E00               	movlw	0
  2448   000FC4  6E06               	movwf	(i2memset@n+1)^0,c
  2449   000FC6  0E01               	movlw	1
  2450   000FC8  6E05               	movwf	i2memset@n^0,c
  2451   000FCA  EC3C  F010         	call	i2_memset	;wreg free
  2452   000FCE                     
  2453                           ;usb/src/usb_device.c: 302:     { UCFG = 0x10 | 0x00 | 0x04 | 0x02; UEIE = 0x9F; UIE = 0
      +                          x39 | 0x40 | 0x02; };
  2454   000FCE  0E16               	movlw	22
  2455   000FD0  6E61               	movwf	97,c	;volatile
  2456   000FD2  0E9F               	movlw	159
  2457   000FD4  010F               	movlb	15	; () banked
  2458   000FD6  6F5B               	movwf	91,b	;volatile
  2459   000FD8                     
  2460                           ; BSR set to: 15
  2461   000FD8  0E7B               	movlw	123
  2462   000FDA  6E60               	movwf	96,c	;volatile
  2463   000FDC                     
  2464                           ; BSR set to: 15
  2465                           ;usb/src/usb_device.c: 311:     for(i = 0; i < (sizeof(BDT)/sizeof(BDT_ENTRY)); i++)
  2466   000FDC  0E00               	movlw	0
  2467   000FDE  6E09               	movwf	i2USBDeviceInit@i^0,c
  2468   000FE0                     i2l3465:
  2469                           
  2470                           ;usb/src/usb_device.c: 312:     {;usb/src/usb_device.c: 313:         BDT[i].Val = 0x00;
  2471   000FE0  5009               	movf	i2USBDeviceInit@i^0,w,c
  2472   000FE2  0D04               	mullw	4
  2473   000FE4  0E00               	movlw	0
  2474   000FE6  24F3               	addwf	243,w,c
  2475   000FE8  6ED9               	movwf	fsr2l,c
  2476   000FEA  0E02               	movlw	2
  2477   000FEC  20F4               	addwfc	prodh,w,c
  2478   000FEE  6EDA               	movwf	fsr2h,c
  2479   000FF0  6ADE               	clrf	postinc2,c
  2480   000FF2  6ADE               	clrf	postinc2,c
  2481   000FF4  6ADE               	clrf	postinc2,c
  2482   000FF6  6ADD               	clrf	postdec2,c
  2483   000FF8                     
  2484                           ;usb/src/usb_device.c: 314:     }
  2485   000FF8  2A09               	incf	i2USBDeviceInit@i^0,f,c
  2486   000FFA  0E07               	movlw	7
  2487   000FFC  6409               	cpfsgt	i2USBDeviceInit@i^0,c
  2488   000FFE  EF03  F008         	goto	i2u236_41
  2489   001002  EF05  F008         	goto	i2u236_40
  2490   001006                     i2u236_41:
  2491   001006  EFF0  F007         	goto	i2l3465
  2492   00100A                     i2u236_40:
  2493   00100A                     
  2494                           ;usb/src/usb_device.c: 317:     UCONbits.PPBRST = 1;
  2495   00100A  8C64               	bsf	100,6,c	;volatile
  2496   00100C                     
  2497                           ;usb/src/usb_device.c: 320:     UADDR = 0x00;
  2498   00100C  0E00               	movlw	0
  2499   00100E  010F               	movlb	15	; () banked
  2500   001010  6F5C               	movwf	92,b	;volatile
  2501   001012                     
  2502                           ; BSR set to: 15
  2503                           ;usb/src/usb_device.c: 323:     UCONbits.PKTDIS = 0;
  2504   001012  9864               	bcf	100,4,c	;volatile
  2505   001014                     
  2506                           ; BSR set to: 15
  2507                           ;usb/src/usb_device.c: 326:     UCONbits.PPBRST = 0;
  2508   001014  9C64               	bcf	100,6,c	;volatile
  2509   001016                     i2l3477:
  2510                           
  2511                           ;usb/src/usb_device.c: 330:     {;usb/src/usb_device.c: 331:         (UIR &= 0xF7);
  2512   001016  9662               	bcf	98,3,c	;volatile
  2513   001018                     
  2514                           ;usb/src/usb_device.c: 333:         inPipes[0].info.Val = 0;
  2515   001018  0E00               	movlw	0
  2516   00101A  0100               	movlb	0	; () banked
  2517   00101C  6F6B               	movwf	(_inPipes+3)& (0+255),b	;volatile
  2518   00101E                     
  2519                           ; BSR set to: 0
  2520                           ;usb/src/usb_device.c: 334:         outPipes[0].info.Val = 0;
  2521   00101E  0E00               	movlw	0
  2522   001020  6F63               	movwf	(_outPipes+3)& (0+255),b	;volatile
  2523   001022                     
  2524                           ; BSR set to: 0
  2525                           ;usb/src/usb_device.c: 335:         outPipes[0].wCount.Val = 0;
  2526   001022  0E00               	movlw	0
  2527   001024  6F65               	movwf	(_outPipes+5)& (0+255),b	;volatile
  2528   001026  0E00               	movlw	0
  2529   001028  6F64               	movwf	(_outPipes+4)& (0+255),b	;volatile
  2530   00102A                     
  2531                           ; BSR set to: 0
  2532                           ;usb/src/usb_device.c: 336:     }while(UIRbits.TRNIF == 1);
  2533   00102A  B662               	btfsc	98,3,c	;volatile
  2534   00102C  EF1A  F008         	goto	i2u237_41
  2535   001030  EF1C  F008         	goto	i2u237_40
  2536   001034                     i2u237_41:
  2537   001034  EF0B  F008         	goto	i2l3477
  2538   001038                     i2u237_40:
  2539   001038                     
  2540                           ; BSR set to: 0
  2541                           ;usb/src/usb_device.c: 340:     USBStatusStageEnabledFlag1 = 1;
  2542   001038  0E01               	movlw	1
  2543   00103A  6E3E               	movwf	_USBStatusStageEnabledFlag1^0,c	;volatile
  2544                           
  2545                           ;usb/src/usb_device.c: 341:     USBStatusStageEnabledFlag2 = 1;
  2546   00103C  0E01               	movlw	1
  2547   00103E  6E3D               	movwf	_USBStatusStageEnabledFlag2^0,c	;volatile
  2548                           
  2549                           ;usb/src/usb_device.c: 343:     USBDeferINDataStagePackets = 0;
  2550   001040  0E00               	movlw	0
  2551   001042  6E3C               	movwf	_USBDeferINDataStagePackets^0,c	;volatile
  2552                           
  2553                           ;usb/src/usb_device.c: 344:     USBDeferOUTDataStagePackets = 0;
  2554   001044  0E00               	movlw	0
  2555   001046  6E3B               	movwf	_USBDeferOUTDataStagePackets^0,c	;volatile
  2556                           
  2557                           ;usb/src/usb_device.c: 345:     USBBusIsSuspended = 0;
  2558   001048  0E00               	movlw	0
  2559   00104A  6E43               	movwf	_USBBusIsSuspended^0,c	;volatile
  2560                           
  2561                           ;usb/src/usb_device.c: 349:     for(i = 0; i < (uint8_t)(1 +1u); i++)
  2562   00104C  0E00               	movlw	0
  2563   00104E  6E09               	movwf	i2USBDeviceInit@i^0,c
  2564   001050                     i2l3493:
  2565                           
  2566                           ;usb/src/usb_device.c: 350:     {;usb/src/usb_device.c: 351:         pBDTEntryIn[i] = 0u
      +                          ;
  2567   001050  5009               	movf	i2USBDeviceInit@i^0,w,c
  2568   001052  0D02               	mullw	2
  2569   001054  50F3               	movf	243,w,c
  2570   001056  0F6E               	addlw	low _pBDTEntryIn
  2571   001058  6ED9               	movwf	fsr2l,c
  2572   00105A  6ADA               	clrf	fsr2h,c
  2573   00105C  6ADE               	clrf	postinc2,c
  2574   00105E  6ADD               	clrf	postdec2,c
  2575                           
  2576                           ;usb/src/usb_device.c: 352:         pBDTEntryOut[i] = 0u;
  2577   001060  5009               	movf	i2USBDeviceInit@i^0,w,c
  2578   001062  0D02               	mullw	2
  2579   001064  50F3               	movf	243,w,c
  2580   001066  0F72               	addlw	low _pBDTEntryOut
  2581   001068  6ED9               	movwf	fsr2l,c
  2582   00106A  6ADA               	clrf	fsr2h,c
  2583   00106C  6ADE               	clrf	postinc2,c
  2584   00106E  6ADD               	clrf	postdec2,c
  2585   001070                     
  2586                           ;usb/src/usb_device.c: 353:         ep_data_in[i].Val = 0u;
  2587   001070  5009               	movf	i2USBDeviceInit@i^0,w,c
  2588   001072  0F78               	addlw	low _ep_data_in
  2589   001074  6ED9               	movwf	fsr2l,c
  2590   001076  6ADA               	clrf	fsr2h,c
  2591   001078  6ADF               	clrf	indf2,c
  2592   00107A                     
  2593                           ;usb/src/usb_device.c: 354:         ep_data_out[i].Val = 0u;
  2594   00107A  5009               	movf	i2USBDeviceInit@i^0,w,c
  2595   00107C  0F76               	addlw	low _ep_data_out
  2596   00107E  6ED9               	movwf	fsr2l,c
  2597   001080  6ADA               	clrf	fsr2h,c
  2598   001082  6ADF               	clrf	indf2,c
  2599   001084                     
  2600                           ;usb/src/usb_device.c: 355:     }
  2601   001084  2A09               	incf	i2USBDeviceInit@i^0,f,c
  2602   001086  0E01               	movlw	1
  2603   001088  6409               	cpfsgt	i2USBDeviceInit@i^0,c
  2604   00108A  EF49  F008         	goto	i2u238_41
  2605   00108E  EF4B  F008         	goto	i2u238_40
  2606   001092                     i2u238_41:
  2607   001092  EF28  F008         	goto	i2l3493
  2608   001096                     i2u238_40:
  2609   001096                     
  2610                           ;usb/src/usb_device.c: 358:     pBDTEntryIn[0] = (volatile BDT_ENTRY*)&BDT[2];
  2611   001096  0E08               	movlw	8
  2612   001098  0100               	movlb	0	; () banked
  2613   00109A  6F6E               	movwf	_pBDTEntryIn& (0+255),b
  2614   00109C  0E02               	movlw	2
  2615   00109E  6F6F               	movwf	(_pBDTEntryIn+1)& (0+255),b
  2616   0010A0                     
  2617                           ; BSR set to: 0
  2618                           ;usb/src/usb_device.c: 360:     UEP0 = 0x06|0x10;
  2619   0010A0  0E16               	movlw	22
  2620   0010A2  010F               	movlb	15	; () banked
  2621   0010A4  6F53               	movwf	83,b	;volatile
  2622   0010A6                     
  2623                           ; BSR set to: 15
  2624                           ;usb/src/usb_device.c: 362:     BDT[0].ADR = ((uint16_t)(&SetupPkt));
  2625   0010A6  0E02               	movlw	2
  2626   0010A8  0102               	movlb	2	; () banked
  2627   0010AA  6F03               	movwf	3,b	;volatile
  2628   0010AC  0E20               	movlw	32
  2629   0010AE  6F02               	movwf	2,b	;volatile
  2630   0010B0                     
  2631                           ; BSR set to: 2
  2632                           ;usb/src/usb_device.c: 363:     BDT[0].CNT = 8;
  2633   0010B0  0E08               	movlw	8
  2634   0010B2  6F01               	movwf	1,b	;volatile
  2635   0010B4                     
  2636                           ; BSR set to: 2
  2637                           ;usb/src/usb_device.c: 364:     BDT[0].STAT.Val = 0x00|0x04;
  2638   0010B4  0E04               	movlw	4
  2639   0010B6  6F00               	movwf	0,b	;volatile
  2640   0010B8                     
  2641                           ; BSR set to: 2
  2642                           ;usb/src/usb_device.c: 365:     BDT[0].STAT.Val |= 0x80;
  2643   0010B8  8F00               	bsf	0,7,b	;volatile
  2644   0010BA                     
  2645                           ; BSR set to: 2
  2646                           ;usb/src/usb_device.c: 368:     USBActiveConfiguration = 0;
  2647   0010BA  0E00               	movlw	0
  2648   0010BC  6E4C               	movwf	_USBActiveConfiguration^0,c	;volatile
  2649   0010BE                     
  2650                           ; BSR set to: 2
  2651                           ;usb/src/usb_device.c: 370:     USB1msTickCount = 0;
  2652   0010BE  0E00               	movlw	0
  2653   0010C0  6E2C               	movwf	_USB1msTickCount^0,c	;volatile
  2654   0010C2  0E00               	movlw	0
  2655   0010C4  6E2D               	movwf	(_USB1msTickCount+1)^0,c	;volatile
  2656   0010C6  0E00               	movlw	0
  2657   0010C8  6E2E               	movwf	(_USB1msTickCount+2)^0,c	;volatile
  2658   0010CA  0E00               	movlw	0
  2659   0010CC  6E2F               	movwf	(_USB1msTickCount+3)^0,c	;volatile
  2660   0010CE                     
  2661                           ; BSR set to: 2
  2662                           ;usb/src/usb_device.c: 371:     USBTicksSinceSuspendEnd = 0;
  2663   0010CE  0E00               	movlw	0
  2664   0010D0  6E3A               	movwf	_USBTicksSinceSuspendEnd^0,c	;volatile
  2665   0010D2                     
  2666                           ; BSR set to: 2
  2667                           ;usb/src/usb_device.c: 374:     USBDeviceState = DETACHED_STATE;
  2668   0010D2  0E00               	movlw	0
  2669   0010D4  6E47               	movwf	_USBDeviceState^0,c	;volatile
  2670   0010D6                     
  2671                           ; BSR set to: 2
  2672   0010D6  0012               	return		;funcret
  2673   0010D8                     __end_ofi2_USBDeviceInit:
  2674                           	callstack 0
  2675                           
  2676 ;; *************** function _USBWakeFromSuspend *****************
  2677 ;; Defined at:
  2678 ;;		line 2310 in file "usb/src/usb_device.c"
  2679 ;; Parameters:    Size  Location     Type
  2680 ;;		None
  2681 ;; Auto vars:     Size  Location     Type
  2682 ;;		None
  2683 ;; Return value:  Size  Location     Type
  2684 ;;                  1    wreg      void 
  2685 ;; Registers used:
  2686 ;;		wreg, fsr2l, fsr2h, status,2, status,0, prodl, prodh, cstack
  2687 ;; Tracked objects:
  2688 ;;		On entry : 0/0
  2689 ;;		On exit  : 0/0
  2690 ;;		Unchanged: 0/0
  2691 ;; Data sizes:     COMRAM   BANK0   BANK1  BANK2h  BANK2l
  2692 ;;      Params:         0       0       0       0       0
  2693 ;;      Locals:         0       0       0       0       0
  2694 ;;      Temps:          0       0       0       0       0
  2695 ;;      Totals:         0       0       0       0       0
  2696 ;;Total ram usage:        0 bytes
  2697 ;; Hardware stack levels used: 1
  2698 ;; Hardware stack levels required when called: 4
  2699 ;; This function calls:
  2700 ;;		_USER_USB_CALLBACK_EVENT_HANDLER
  2701 ;; This function is called by:
  2702 ;;		_USBDeviceTasks
  2703 ;; This function uses a non-reentrant model
  2704 ;;
  2705                           
  2706                           	psect	text13
  2707   002000                     __ptext13:
  2708                           	callstack 0
  2709   002000                     _USBWakeFromSuspend:
  2710                           	callstack 22
  2711   002000                     
  2712                           ;usb/src/usb_device.c: 2312:     USBBusIsSuspended = 0;
  2713   002000  0E00               	movlw	0
  2714   002002  6E43               	movwf	_USBBusIsSuspended^0,c	;volatile
  2715   002004                     
  2716                           ;usb/src/usb_device.c: 2318:     USER_USB_CALLBACK_EVENT_HANDLER((USB_EVENT)EVENT_RESUME
      +                          ,0,0);
  2717   002004  0E00               	movlw	0
  2718   002006  6E10               	movwf	(USER_USB_CALLBACK_EVENT_HANDLER@event+1)^0,c
  2719   002008  0E74               	movlw	116
  2720   00200A  6E0F               	movwf	USER_USB_CALLBACK_EVENT_HANDLER@event^0,c
  2721   00200C  0E00               	movlw	0
  2722   00200E  6E11               	movwf	USER_USB_CALLBACK_EVENT_HANDLER@pdata^0,c
  2723   002010  0E00               	movlw	0
  2724   002012  6E12               	movwf	(USER_USB_CALLBACK_EVENT_HANDLER@pdata+1)^0,c
  2725   002014  0E00               	movlw	0
  2726   002016  6E14               	movwf	(USER_USB_CALLBACK_EVENT_HANDLER@size+1)^0,c
  2727   002018  0E00               	movlw	0
  2728   00201A  6E13               	movwf	USER_USB_CALLBACK_EVENT_HANDLER@size^0,c
  2729   00201C  EC97  F00E         	call	_USER_USB_CALLBACK_EVENT_HANDLER	;wreg free
  2730   002020                     
  2731                           ;usb/src/usb_device.c: 2325:         UCONbits.SUSPND = 0;
  2732   002020  9264               	bcf	100,1,c	;volatile
  2733   002022                     
  2734                           ;usb/src/usb_device.c: 2330:     UIEbits.ACTVIE = 0;
  2735   002022  9460               	bcf	96,2,c	;volatile
  2736                           
  2737                           ;usb/src/usb_device.c: 2348:     while(UIRbits.ACTVIF)
  2738   002024  EF15  F010         	goto	i2l3387
  2739   002028                     i2l3385:
  2740                           
  2741                           ;usb/src/usb_device.c: 2350:     {;usb/src/usb_device.c: 2351:         (UIR &= 0xFB);
  2742   002028  9462               	bcf	98,2,c	;volatile
  2743   00202A                     i2l3387:
  2744                           
  2745                           ;usb/src/usb_device.c: 2348:     while(UIRbits.ACTVIF)
  2746   00202A  B462               	btfsc	98,2,c	;volatile
  2747   00202C  EF1A  F010         	goto	i2u227_41
  2748   002030  EF1C  F010         	goto	i2u227_40
  2749   002034                     i2u227_41:
  2750   002034  EF14  F010         	goto	i2l3385
  2751   002038                     i2u227_40:
  2752   002038                     
  2753                           ;usb/src/usb_device.c: 2354:     USBTicksSinceSuspendEnd = 0;
  2754   002038  0E00               	movlw	0
  2755   00203A  6E3A               	movwf	_USBTicksSinceSuspendEnd^0,c	;volatile
  2756   00203C  0012               	return		;funcret
  2757   00203E                     __end_of_USBWakeFromSuspend:
  2758                           	callstack 0
  2759                           
  2760 ;; *************** function _USBSuspend *****************
  2761 ;; Defined at:
  2762 ;;		line 2252 in file "usb/src/usb_device.c"
  2763 ;; Parameters:    Size  Location     Type
  2764 ;;		None
  2765 ;; Auto vars:     Size  Location     Type
  2766 ;;		None
  2767 ;; Return value:  Size  Location     Type
  2768 ;;                  1    wreg      void 
  2769 ;; Registers used:
  2770 ;;		wreg, fsr2l, fsr2h, status,2, status,0, prodl, prodh, cstack
  2771 ;; Tracked objects:
  2772 ;;		On entry : 0/0
  2773 ;;		On exit  : 0/0
  2774 ;;		Unchanged: 0/0
  2775 ;; Data sizes:     COMRAM   BANK0   BANK1  BANK2h  BANK2l
  2776 ;;      Params:         0       0       0       0       0
  2777 ;;      Locals:         0       0       0       0       0
  2778 ;;      Temps:          0       0       0       0       0
  2779 ;;      Totals:         0       0       0       0       0
  2780 ;;Total ram usage:        0 bytes
  2781 ;; Hardware stack levels used: 1
  2782 ;; Hardware stack levels required when called: 4
  2783 ;; This function calls:
  2784 ;;		_USER_USB_CALLBACK_EVENT_HANDLER
  2785 ;; This function is called by:
  2786 ;;		_USBDeviceTasks
  2787 ;; This function uses a non-reentrant model
  2788 ;;
  2789                           
  2790                           	psect	text14
  2791   002148                     __ptext14:
  2792                           	callstack 0
  2793   002148                     _USBSuspend:
  2794                           	callstack 22
  2795   002148                     
  2796                           ;usb/src/usb_device.c: 2277:     UIEbits.ACTVIE = 1;
  2797   002148  8460               	bsf	96,2,c	;volatile
  2798   00214A                     
  2799                           ;usb/src/usb_device.c: 2278:     (UIR &= 0xEF);
  2800   00214A  9862               	bcf	98,4,c	;volatile
  2801   00214C                     
  2802                           ;usb/src/usb_device.c: 2281:         UCONbits.SUSPND = 1;
  2803   00214C  8264               	bsf	100,1,c	;volatile
  2804   00214E                     
  2805                           ;usb/src/usb_device.c: 2284:     USBBusIsSuspended = 1;
  2806   00214E  0E01               	movlw	1
  2807   002150  6E43               	movwf	_USBBusIsSuspended^0,c	;volatile
  2808   002152                     
  2809                           ;usb/src/usb_device.c: 2285:     USBTicksSinceSuspendEnd = 0;
  2810   002152  0E00               	movlw	0
  2811   002154  6E3A               	movwf	_USBTicksSinceSuspendEnd^0,c	;volatile
  2812   002156                     
  2813                           ;usb/src/usb_device.c: 2292:     USER_USB_CALLBACK_EVENT_HANDLER((USB_EVENT)EVENT_SUSPEN
      +                          D,0,0);
  2814   002156  0E00               	movlw	0
  2815   002158  6E10               	movwf	(USER_USB_CALLBACK_EVENT_HANDLER@event+1)^0,c
  2816   00215A  0E75               	movlw	117
  2817   00215C  6E0F               	movwf	USER_USB_CALLBACK_EVENT_HANDLER@event^0,c
  2818   00215E  0E00               	movlw	0
  2819   002160  6E11               	movwf	USER_USB_CALLBACK_EVENT_HANDLER@pdata^0,c
  2820   002162  0E00               	movlw	0
  2821   002164  6E12               	movwf	(USER_USB_CALLBACK_EVENT_HANDLER@pdata+1)^0,c
  2822   002166  0E00               	movlw	0
  2823   002168  6E14               	movwf	(USER_USB_CALLBACK_EVENT_HANDLER@size+1)^0,c
  2824   00216A  0E00               	movlw	0
  2825   00216C  6E13               	movwf	USER_USB_CALLBACK_EVENT_HANDLER@size^0,c
  2826   00216E  EC97  F00E         	call	_USER_USB_CALLBACK_EVENT_HANDLER	;wreg free
  2827   002172  0012               	return		;funcret
  2828   002174                     __end_of_USBSuspend:
  2829                           	callstack 0
  2830                           
  2831 ;; *************** function _USBStallHandler *****************
  2832 ;; Defined at:
  2833 ;;		line 2209 in file "usb/src/usb_device.c"
  2834 ;; Parameters:    Size  Location     Type
  2835 ;;		None
  2836 ;; Auto vars:     Size  Location     Type
  2837 ;;		None
  2838 ;; Return value:  Size  Location     Type
  2839 ;;                  1    wreg      void 
  2840 ;; Registers used:
  2841 ;;		wreg, fsr2l, fsr2h, status,2, status,0
  2842 ;; Tracked objects:
  2843 ;;		On entry : 0/0
  2844 ;;		On exit  : 0/0
  2845 ;;		Unchanged: 0/0
  2846 ;; Data sizes:     COMRAM   BANK0   BANK1  BANK2h  BANK2l
  2847 ;;      Params:         0       0       0       0       0
  2848 ;;      Locals:         0       0       0       0       0
  2849 ;;      Temps:          1       0       0       0       0
  2850 ;;      Totals:         1       0       0       0       0
  2851 ;;Total ram usage:        1 bytes
  2852 ;; Hardware stack levels used: 1
  2853 ;; This function calls:
  2854 ;;		Nothing
  2855 ;; This function is called by:
  2856 ;;		_USBDeviceTasks
  2857 ;; This function uses a non-reentrant model
  2858 ;;
  2859                           
  2860                           	psect	text15
  2861   001E2A                     __ptext15:
  2862                           	callstack 0
  2863   001E2A                     _USBStallHandler:
  2864                           	callstack 26
  2865   001E2A                     
  2866                           ;usb/src/usb_device.c: 2221:     if(UEP0bits.EPSTALL == 1)
  2867   001E2A  010F               	movlb	15	; () banked
  2868   001E2C  A153               	btfss	83,0,b	;volatile
  2869   001E2E  EF1B  F00F         	goto	i2u230_41
  2870   001E32  EF1D  F00F         	goto	i2u230_40
  2871   001E36                     i2u230_41:
  2872   001E36  EF44  F00F         	goto	i2l423
  2873   001E3A                     i2u230_40:
  2874   001E3A                     
  2875                           ; BSR set to: 15
  2876                           ;usb/src/usb_device.c: 2222:     {;usb/src/usb_device.c: 2224:         if((pBDTEntryEP0O
      +                          utCurrent->STAT.Val == 0x80) && (pBDTEntryIn[0]->STAT.Val == (0x80|0x04)))
  2877   001E3A  C034  FFD9         	movff	_pBDTEntryEP0OutCurrent,fsr2l
  2878   001E3E  C035  FFDA         	movff	_pBDTEntryEP0OutCurrent+1,fsr2h
  2879   001E42  0E80               	movlw	128
  2880   001E44  18DE               	xorwf	postinc2,w,c
  2881   001E46  A4D8               	btfss	status,2,c
  2882   001E48  EF28  F00F         	goto	i2u231_41
  2883   001E4C  EF2A  F00F         	goto	i2u231_40
  2884   001E50                     i2u231_41:
  2885   001E50  EF43  F00F         	goto	i2l3423
  2886   001E54                     i2u231_40:
  2887   001E54                     
  2888                           ; BSR set to: 15
  2889   001E54  C06E  FFD9         	movff	_pBDTEntryIn,fsr2l
  2890   001E58  C06F  FFDA         	movff	_pBDTEntryIn+1,fsr2h
  2891   001E5C  0E84               	movlw	132
  2892   001E5E  18DE               	xorwf	postinc2,w,c
  2893   001E60  A4D8               	btfss	status,2,c
  2894   001E62  EF35  F00F         	goto	i2u232_41
  2895   001E66  EF37  F00F         	goto	i2u232_40
  2896   001E6A                     i2u232_41:
  2897   001E6A  EF43  F00F         	goto	i2l3423
  2898   001E6E                     i2u232_40:
  2899   001E6E                     
  2900                           ; BSR set to: 15
  2901                           ;usb/src/usb_device.c: 2225:         {;usb/src/usb_device.c: 2227:             pBDTEntry
      +                          EP0OutCurrent->STAT.Val = 0x00|(0x08 & 0x08)|0x04;
  2902   001E6E  C034  FFD9         	movff	_pBDTEntryEP0OutCurrent,fsr2l
  2903   001E72  C035  FFDA         	movff	_pBDTEntryEP0OutCurrent+1,fsr2h
  2904   001E76  0E0C               	movlw	12
  2905   001E78  6EDF               	movwf	indf2,c
  2906   001E7A                     
  2907                           ; BSR set to: 15
  2908                           ;usb/src/usb_device.c: 2228:             pBDTEntryEP0OutCurrent->STAT.Val |= 0x80;
  2909   001E7A  C034  FFD9         	movff	_pBDTEntryEP0OutCurrent,fsr2l
  2910   001E7E  C035  FFDA         	movff	_pBDTEntryEP0OutCurrent+1,fsr2h
  2911   001E82  0E00               	movlw	0
  2912   001E84  8EDB               	bsf	plusw2,7,c
  2913   001E86                     i2l3423:
  2914                           
  2915                           ; BSR set to: 15
  2916                           ;usb/src/usb_device.c: 2230:         UEP0bits.EPSTALL = 0;
  2917   001E86  9153               	bcf	83,0,b	;volatile
  2918   001E88                     i2l423:
  2919                           
  2920                           ; BSR set to: 15
  2921                           ;usb/src/usb_device.c: 2233:     (UIR &= 0xDF);
  2922   001E88  9A62               	bcf	98,5,c	;volatile
  2923   001E8A                     
  2924                           ; BSR set to: 15
  2925   001E8A  0012               	return		;funcret
  2926   001E8C                     __end_of_USBStallHandler:
  2927                           	callstack 0
  2928                           
  2929 ;; *************** function _USBIncrement1msInternalTimers *****************
  2930 ;; Defined at:
  2931 ;;		line 2998 in file "usb/src/usb_device.c"
  2932 ;; Parameters:    Size  Location     Type
  2933 ;;		None
  2934 ;; Auto vars:     Size  Location     Type
  2935 ;;		None
  2936 ;; Return value:  Size  Location     Type
  2937 ;;                  1    wreg      void 
  2938 ;; Registers used:
  2939 ;;		wreg, status,2, status,0
  2940 ;; Tracked objects:
  2941 ;;		On entry : 0/0
  2942 ;;		On exit  : 0/0
  2943 ;;		Unchanged: 0/0
  2944 ;; Data sizes:     COMRAM   BANK0   BANK1  BANK2h  BANK2l
  2945 ;;      Params:         0       0       0       0       0
  2946 ;;      Locals:         0       0       0       0       0
  2947 ;;      Temps:          0       0       0       0       0
  2948 ;;      Totals:         0       0       0       0       0
  2949 ;;Total ram usage:        0 bytes
  2950 ;; Hardware stack levels used: 1
  2951 ;; This function calls:
  2952 ;;		Nothing
  2953 ;; This function is called by:
  2954 ;;		_USBDeviceTasks
  2955 ;; This function uses a non-reentrant model
  2956 ;;
  2957                           
  2958                           	psect	text16
  2959   0020E4                     __ptext16:
  2960                           	callstack 0
  2961   0020E4                     _USBIncrement1msInternalTimers:
  2962                           	callstack 26
  2963   0020E4                     
  2964                           ;usb/src/usb_device.c: 3006:     USB1msTickCount++;
  2965   0020E4  0E01               	movlw	1
  2966   0020E6  262C               	addwf	_USB1msTickCount^0,f,c	;volatile
  2967   0020E8  0E00               	movlw	0
  2968   0020EA  222D               	addwfc	(_USB1msTickCount+1)^0,f,c	;volatile
  2969   0020EC  222E               	addwfc	(_USB1msTickCount+2)^0,f,c	;volatile
  2970   0020EE  222F               	addwfc	(_USB1msTickCount+3)^0,f,c	;volatile
  2971   0020F0                     
  2972                           ;usb/src/usb_device.c: 3007:     if(USBBusIsSuspended == 0)
  2973   0020F0  5043               	movf	_USBBusIsSuspended^0,w,c	;volatile
  2974   0020F2  A4D8               	btfss	status,2,c
  2975   0020F4  EF7E  F010         	goto	i2u228_41
  2976   0020F8  EF80  F010         	goto	i2u228_40
  2977   0020FC                     i2u228_41:
  2978   0020FC  EF8A  F010         	goto	i2l515
  2979   002100                     i2u228_40:
  2980   002100                     
  2981                           ;usb/src/usb_device.c: 3008:     {;usb/src/usb_device.c: 3009:         USBTicksSinceSusp
      +                          endEnd++;
  2982   002100  2A3A               	incf	_USBTicksSinceSuspendEnd^0,f,c	;volatile
  2983   002102                     
  2984                           ;usb/src/usb_device.c: 3011:         if(USBTicksSinceSuspendEnd == 0)
  2985   002102  503A               	movf	_USBTicksSinceSuspendEnd^0,w,c	;volatile
  2986   002104  A4D8               	btfss	status,2,c
  2987   002106  EF87  F010         	goto	i2u229_41
  2988   00210A  EF89  F010         	goto	i2u229_40
  2989   00210E                     i2u229_41:
  2990   00210E  EF8A  F010         	goto	i2l515
  2991   002112                     i2u229_40:
  2992   002112                     
  2993                           ;usb/src/usb_device.c: 3012:         {;usb/src/usb_device.c: 3013:             USBTicksS
      +                          inceSuspendEnd = 255;
  2994   002112  683A               	setf	_USBTicksSinceSuspendEnd^0,c	;volatile
  2995   002114                     i2l515:
  2996   002114  0012               	return		;funcret
  2997   002116                     __end_of_USBIncrement1msInternalTimers:
  2998                           	callstack 0
  2999                           
  3000 ;; *************** function _USBCtrlEPService *****************
  3001 ;; Defined at:
  3002 ;;		line 2379 in file "usb/src/usb_device.c"
  3003 ;; Parameters:    Size  Location     Type
  3004 ;;		None
  3005 ;; Auto vars:     Size  Location     Type
  3006 ;;		None
  3007 ;; Return value:  Size  Location     Type
  3008 ;;                  1    wreg      void 
  3009 ;; Registers used:
  3010 ;;		wreg, fsr1l, fsr1h, fsr2l, fsr2h, status,2, status,0, tblptrl, tblptrh, tblptru, prodl, prodh, cstack
  3011 ;; Tracked objects:
  3012 ;;		On entry : 0/0
  3013 ;;		On exit  : 0/0
  3014 ;;		Unchanged: 0/0
  3015 ;; Data sizes:     COMRAM   BANK0   BANK1  BANK2h  BANK2l
  3016 ;;      Params:         0       0       0       0       0
  3017 ;;      Locals:         0       0       0       0       0
  3018 ;;      Temps:          1       0       0       0       0
  3019 ;;      Totals:         1       0       0       0       0
  3020 ;;Total ram usage:        1 bytes
  3021 ;; Hardware stack levels used: 1
  3022 ;; Hardware stack levels required when called: 7
  3023 ;; This function calls:
  3024 ;;		_USBCtrlTrfInHandler
  3025 ;;		_USBCtrlTrfOutHandler
  3026 ;;		_USBCtrlTrfSetupHandler
  3027 ;;		_memcpy
  3028 ;; This function is called by:
  3029 ;;		_USBDeviceTasks
  3030 ;; This function uses a non-reentrant model
  3031 ;;
  3032                           
  3033                           	psect	text17
  3034   0019FC                     __ptext17:
  3035                           	callstack 0
  3036   0019FC                     _USBCtrlEPService:
  3037                           	callstack 19
  3038   0019FC                     
  3039                           ;usb/src/usb_device.c: 2385:         USBStatusStageTimeoutCounter = (uint8_t)45;
  3040   0019FC  0E2D               	movlw	45
  3041   0019FE  6E40               	movwf	_USBStatusStageTimeoutCounter^0,c	;volatile
  3042   001A00                     
  3043                           ;usb/src/usb_device.c: 2389:     if((USTATcopy.Val & ~0x02) == 0x00)
  3044   001A00  C04A  F020         	movff	_USTATcopy,??_USBCtrlEPService	;volatile
  3045   001A04  0EFD               	movlw	253
  3046   001A06  1620               	andwf	??_USBCtrlEPService^0,f,c
  3047   001A08  A4D8               	btfss	status,2,c
  3048   001A0A  EF09  F00D         	goto	i2u233_41
  3049   001A0E  EF0B  F00D         	goto	i2u233_40
  3050   001A12                     i2u233_41:
  3051   001A12  EF4D  F00D         	goto	i2l3443
  3052   001A16                     i2u233_40:
  3053   001A16                     
  3054                           ;usb/src/usb_device.c: 2390:     {;usb/src/usb_device.c: 2393:             pBDTEntryEP0O
      +                          utCurrent = (volatile BDT_ENTRY*)&BDT[(USTATcopy.Val & 0x7E)>>1];
  3055   001A16  C04A  F020         	movff	_USTATcopy,??_USBCtrlEPService	;volatile
  3056   001A1A  90D8               	bcf	status,0,c
  3057   001A1C  3220               	rrcf	??_USBCtrlEPService^0,f,c
  3058   001A1E  0E3F               	movlw	63
  3059   001A20  1620               	andwf	??_USBCtrlEPService^0,f,c
  3060   001A22  5020               	movf	??_USBCtrlEPService^0,w,c
  3061   001A24  0D04               	mullw	4
  3062   001A26  0E00               	movlw	0
  3063   001A28  24F3               	addwf	243,w,c
  3064   001A2A  6E34               	movwf	_pBDTEntryEP0OutCurrent^0,c
  3065   001A2C  0E02               	movlw	2
  3066   001A2E  20F4               	addwfc	prodh,w,c
  3067   001A30  6E35               	movwf	(_pBDTEntryEP0OutCurrent+1)^0,c
  3068   001A32                     
  3069                           ;usb/src/usb_device.c: 2401:         pBDTEntryEP0OutNext = pBDTEntryEP0OutCurrent;
  3070   001A32  C034  F032         	movff	_pBDTEntryEP0OutCurrent,_pBDTEntryEP0OutNext
  3071   001A36  C035  F033         	movff	_pBDTEntryEP0OutCurrent+1,_pBDTEntryEP0OutNext+1
  3072   001A3A                     
  3073                           ;usb/src/usb_device.c: 2403:         pBDTEntryEP0OutNext = (volatile BDT_ENTRY*)(((uint1
      +                          6_t)pBDTEntryEP0OutNext) ^ 0x0004);
  3074   001A3A  0E04               	movlw	4
  3075   001A3C  1832               	xorwf	_pBDTEntryEP0OutNext^0,w,c
  3076   001A3E  6E32               	movwf	_pBDTEntryEP0OutNext^0,c
  3077   001A40  5033               	movf	(_pBDTEntryEP0OutNext+1)^0,w,c
  3078   001A42  6E33               	movwf	(_pBDTEntryEP0OutNext+1)^0,c
  3079   001A44                     
  3080                           ;usb/src/usb_device.c: 2406:         if(pBDTEntryEP0OutCurrent->STAT.PID == 0xD)
  3081   001A44  C034  FFD9         	movff	_pBDTEntryEP0OutCurrent,fsr2l
  3082   001A48  C035  FFDA         	movff	_pBDTEntryEP0OutCurrent+1,fsr2h
  3083   001A4C  30DF               	rrcf	223,w,c
  3084   001A4E  32E8               	rrcf	wreg,f,c
  3085   001A50  0B0F               	andlw	15
  3086   001A52  0A0D               	xorlw	13
  3087   001A54  A4D8               	btfss	status,2,c
  3088   001A56  EF2F  F00D         	goto	i2u234_41
  3089   001A5A  EF31  F00D         	goto	i2u234_40
  3090   001A5E                     i2u234_41:
  3091   001A5E  EF49  F00D         	goto	i2l3441
  3092   001A62                     i2u234_40:
  3093   001A62                     
  3094                           ;usb/src/usb_device.c: 2407:         {;usb/src/usb_device.c: 2412:             memcpy((u
      +                          int8_t*)&SetupPkt, (uint8_t*)((void *)(pBDTEntryEP0OutCurrent->ADR)), 8);
  3095   001A62  0E20               	movlw	32
  3096   001A64  6E01               	movwf	memcpy@d1^0,c
  3097   001A66  0E02               	movlw	2
  3098   001A68  6E02               	movwf	(memcpy@d1+1)^0,c
  3099   001A6A  EE20 F002          	lfsr	2,2
  3100   001A6E  5034               	movf	_pBDTEntryEP0OutCurrent^0,w,c
  3101   001A70  26D9               	addwf	fsr2l,f,c
  3102   001A72  5035               	movf	(_pBDTEntryEP0OutCurrent+1)^0,w,c
  3103   001A74  22DA               	addwfc	fsr2h,f,c
  3104   001A76  CFDE F003          	movff	postinc2,memcpy@s1
  3105   001A7A  CFDD F004          	movff	postdec2,memcpy@s1+1
  3106   001A7E  0E00               	movlw	0
  3107   001A80  6E06               	movwf	(memcpy@n+1)^0,c
  3108   001A82  0E08               	movlw	8
  3109   001A84  6E05               	movwf	memcpy@n^0,c
  3110   001A86  EC46  F00F         	call	_memcpy	;wreg free
  3111   001A8A                     
  3112                           ;usb/src/usb_device.c: 2415:             USBCtrlTrfSetupHandler();
  3113   001A8A  EC08  F00E         	call	_USBCtrlTrfSetupHandler	;wreg free
  3114                           
  3115                           ;usb/src/usb_device.c: 2416:         }
  3116   001A8E  EF59  F00D         	goto	i2l442
  3117   001A92                     i2l3441:
  3118                           
  3119                           ;usb/src/usb_device.c: 2418:         {;usb/src/usb_device.c: 2420:             USBCtrlTr
      +                          fOutHandler();
  3120   001A92  ECDB  F00E         	call	_USBCtrlTrfOutHandler	;wreg free
  3121   001A96  EF59  F00D         	goto	i2l442
  3122   001A9A                     i2l3443:
  3123   001A9A  504A               	movf	_USTATcopy^0,w,c	;volatile
  3124   001A9C  0BFD               	andlw	253
  3125   001A9E  0A04               	xorlw	4
  3126   001AA0  A4D8               	btfss	status,2,c
  3127   001AA2  EF55  F00D         	goto	i2u235_41
  3128   001AA6  EF57  F00D         	goto	i2u235_40
  3129   001AAA                     i2u235_41:
  3130   001AAA  EF59  F00D         	goto	i2l442
  3131   001AAE                     i2u235_40:
  3132   001AAE                     
  3133                           ;usb/src/usb_device.c: 2424:     {;usb/src/usb_device.c: 2427:         USBCtrlTrfInHandl
      +                          er();
  3134   001AAE  EC35  F00B         	call	_USBCtrlTrfInHandler	;wreg free
  3135   001AB2                     i2l442:
  3136   001AB2  0012               	return		;funcret
  3137   001AB4                     __end_of_USBCtrlEPService:
  3138                           	callstack 0
  3139                           
  3140 ;; *************** function _memcpy *****************
  3141 ;; Defined at:
  3142 ;;		line 4 in file "C:\Program Files\Microchip\xc8\v2.45\pic\sources\c99\common\memcpy.c"
  3143 ;; Parameters:    Size  Location     Type
  3144 ;;  d1              2    0[COMRAM] PTR void 
  3145 ;;		 -> SetupPkt(8), 
  3146 ;;  s1              2    2[COMRAM] PTR const void 
  3147 ;;		 -> CtrlTrfData(8), RAM(767), SetupPkt(8), 
  3148 ;;  n               2    4[COMRAM] unsigned int 
  3149 ;; Auto vars:     Size  Location     Type
  3150 ;;  s               2    8[COMRAM] PTR const unsigned char 
  3151 ;;		 -> CtrlTrfData(8), RAM(767), SetupPkt(8), 
  3152 ;;  d               2    6[COMRAM] PTR unsigned char 
  3153 ;;		 -> SetupPkt(8), 
  3154 ;;  tmp             1   10[COMRAM] unsigned char 
  3155 ;; Return value:  Size  Location     Type
  3156 ;;                  2    0[COMRAM] PTR void 
  3157 ;; Registers used:
  3158 ;;		wreg, fsr2l, fsr2h, status,2, status,0
  3159 ;; Tracked objects:
  3160 ;;		On entry : 0/0
  3161 ;;		On exit  : 0/0
  3162 ;;		Unchanged: 0/0
  3163 ;; Data sizes:     COMRAM   BANK0   BANK1  BANK2h  BANK2l
  3164 ;;      Params:         6       0       0       0       0
  3165 ;;      Locals:         5       0       0       0       0
  3166 ;;      Temps:          0       0       0       0       0
  3167 ;;      Totals:        11       0       0       0       0
  3168 ;;Total ram usage:       11 bytes
  3169 ;; Hardware stack levels used: 1
  3170 ;; This function calls:
  3171 ;;		Nothing
  3172 ;; This function is called by:
  3173 ;;		_USBCtrlEPService
  3174 ;; This function uses a non-reentrant model
  3175 ;;
  3176                           
  3177                           	psect	text18
  3178   001E8C                     __ptext18:
  3179                           	callstack 0
  3180   001E8C                     _memcpy:
  3181                           	callstack 25
  3182   001E8C  C003  F009         	movff	memcpy@s1,memcpy@s
  3183   001E90  C004  F00A         	movff	memcpy@s1+1,memcpy@s+1
  3184   001E94  C001  F007         	movff	memcpy@d1,memcpy@d
  3185   001E98  C002  F008         	movff	memcpy@d1+1,memcpy@d+1
  3186   001E9C  EF60  F00F         	goto	i2l3245
  3187   001EA0                     i2l3237:
  3188   001EA0  C009  FFD9         	movff	memcpy@s,fsr2l
  3189   001EA4  C00A  FFDA         	movff	memcpy@s+1,fsr2h
  3190   001EA8  50DF               	movf	indf2,w,c
  3191   001EAA  6E0B               	movwf	memcpy@tmp^0,c
  3192   001EAC  4A09               	infsnz	memcpy@s^0,f,c
  3193   001EAE  2A0A               	incf	(memcpy@s+1)^0,f,c
  3194   001EB0  C007  FFD9         	movff	memcpy@d,fsr2l
  3195   001EB4  C008  FFDA         	movff	memcpy@d+1,fsr2h
  3196   001EB8  C00B  FFDF         	movff	memcpy@tmp,indf2
  3197   001EBC  4A07               	infsnz	memcpy@d^0,f,c
  3198   001EBE  2A08               	incf	(memcpy@d+1)^0,f,c
  3199   001EC0                     i2l3245:
  3200   001EC0  0605               	decf	memcpy@n^0,f,c
  3201   001EC2  A0D8               	btfss	status,0,c
  3202   001EC4  0606               	decf	(memcpy@n+1)^0,f,c
  3203   001EC6  2805               	incf	memcpy@n^0,w,c
  3204   001EC8  E106               	bnz	i2u213_41
  3205   001ECA  2806               	incf	(memcpy@n+1)^0,w,c
  3206   001ECC  A4D8               	btfss	status,2,c
  3207   001ECE  EF6B  F00F         	goto	i2u213_41
  3208   001ED2  EF6D  F00F         	goto	i2u213_40
  3209   001ED6                     i2u213_41:
  3210   001ED6  EF50  F00F         	goto	i2l3237
  3211   001EDA                     i2u213_40:
  3212   001EDA  0012               	return		;funcret
  3213   001EDC                     __end_of_memcpy:
  3214                           	callstack 0
  3215                           
  3216 ;; *************** function _USBCtrlTrfSetupHandler *****************
  3217 ;; Defined at:
  3218 ;;		line 2472 in file "usb/src/usb_device.c"
  3219 ;; Parameters:    Size  Location     Type
  3220 ;;		None
  3221 ;; Auto vars:     Size  Location     Type
  3222 ;;		None
  3223 ;; Return value:  Size  Location     Type
  3224 ;;                  1    wreg      void 
  3225 ;; Registers used:
  3226 ;;		wreg, fsr1l, fsr1h, fsr2l, fsr2h, status,2, status,0, tblptrl, tblptrh, tblptru, prodl, prodh, cstack
  3227 ;; Tracked objects:
  3228 ;;		On entry : 0/0
  3229 ;;		On exit  : 0/0
  3230 ;;		Unchanged: 0/0
  3231 ;; Data sizes:     COMRAM   BANK0   BANK1  BANK2h  BANK2l
  3232 ;;      Params:         0       0       0       0       0
  3233 ;;      Locals:         0       0       0       0       0
  3234 ;;      Temps:          0       0       0       0       0
  3235 ;;      Totals:         0       0       0       0       0
  3236 ;;Total ram usage:        0 bytes
  3237 ;; Hardware stack levels used: 1
  3238 ;; Hardware stack levels required when called: 6
  3239 ;; This function calls:
  3240 ;;		_USBCheckStdRequest
  3241 ;;		_USBCtrlEPServiceComplete
  3242 ;;		_USER_USB_CALLBACK_EVENT_HANDLER
  3243 ;; This function is called by:
  3244 ;;		_USBCtrlEPService
  3245 ;; This function uses a non-reentrant model
  3246 ;;
  3247                           
  3248                           	psect	text19
  3249   001C10                     __ptext19:
  3250                           	callstack 0
  3251   001C10                     _USBCtrlTrfSetupHandler:
  3252                           	callstack 19
  3253   001C10                     
  3254                           ;usb/src/usb_device.c: 2477:     shortPacketStatus = 0;
  3255   001C10  0E00               	movlw	0
  3256   001C12  6E46               	movwf	_shortPacketStatus^0,c	;volatile
  3257                           
  3258                           ;usb/src/usb_device.c: 2478:     USBDeferStatusStagePacket = 0;
  3259   001C14  0E00               	movlw	0
  3260   001C16  6E3F               	movwf	_USBDeferStatusStagePacket^0,c	;volatile
  3261                           
  3262                           ;usb/src/usb_device.c: 2479:     USBDeferINDataStagePackets = 0;
  3263   001C18  0E00               	movlw	0
  3264   001C1A  6E3C               	movwf	_USBDeferINDataStagePackets^0,c	;volatile
  3265                           
  3266                           ;usb/src/usb_device.c: 2480:     USBDeferOUTDataStagePackets = 0;
  3267   001C1C  0E00               	movlw	0
  3268   001C1E  6E3B               	movwf	_USBDeferOUTDataStagePackets^0,c	;volatile
  3269                           
  3270                           ;usb/src/usb_device.c: 2481:     BothEP0OutUOWNsSet = 0;
  3271   001C20  0E00               	movlw	0
  3272   001C22  6E41               	movwf	_BothEP0OutUOWNsSet^0,c	;volatile
  3273                           
  3274                           ;usb/src/usb_device.c: 2482:     controlTransferState = 0;
  3275   001C24  0E00               	movlw	0
  3276   001C26  6E45               	movwf	_controlTransferState^0,c	;volatile
  3277   001C28                     
  3278                           ;usb/src/usb_device.c: 2491:     pBDTEntryIn[0]->STAT.Val &= ~(0x80);
  3279   001C28  C06E  FFD9         	movff	_pBDTEntryIn,fsr2l
  3280   001C2C  C06F  FFDA         	movff	_pBDTEntryIn+1,fsr2h
  3281   001C30  0E7F               	movlw	127
  3282   001C32  16DF               	andwf	indf2,f,c
  3283   001C34                     
  3284                           ;usb/src/usb_device.c: 2493:     pBDTEntryIn[0] = (volatile BDT_ENTRY*)(((uint16_t)pBDTE
      +                          ntryIn[0]) ^ 0x0004);
  3285   001C34  0E04               	movlw	4
  3286   001C36  0100               	movlb	0	; () banked
  3287   001C38  196E               	xorwf	_pBDTEntryIn& (0+255),w,b
  3288   001C3A  6F6E               	movwf	_pBDTEntryIn& (0+255),b
  3289   001C3C  516F               	movf	(_pBDTEntryIn+1)& (0+255),w,b
  3290   001C3E  6F6F               	movwf	(_pBDTEntryIn+1)& (0+255),b
  3291   001C40                     
  3292                           ; BSR set to: 0
  3293                           ;usb/src/usb_device.c: 2494:     pBDTEntryIn[0]->STAT.Val &= ~(0x80);
  3294   001C40  C06E  FFD9         	movff	_pBDTEntryIn,fsr2l
  3295   001C44  C06F  FFDA         	movff	_pBDTEntryIn+1,fsr2h
  3296   001C48  0E7F               	movlw	127
  3297   001C4A  16DF               	andwf	indf2,f,c
  3298   001C4C                     
  3299                           ; BSR set to: 0
  3300                           ;usb/src/usb_device.c: 2495:     pBDTEntryIn[0] = (volatile BDT_ENTRY*)(((uint16_t)pBDTE
      +                          ntryIn[0]) ^ 0x0004);
  3301   001C4C  0E04               	movlw	4
  3302   001C4E  196E               	xorwf	_pBDTEntryIn& (0+255),w,b
  3303   001C50  6F6E               	movwf	_pBDTEntryIn& (0+255),b
  3304   001C52  516F               	movf	(_pBDTEntryIn+1)& (0+255),w,b
  3305   001C54  6F6F               	movwf	(_pBDTEntryIn+1)& (0+255),b
  3306   001C56                     
  3307                           ; BSR set to: 0
  3308                           ;usb/src/usb_device.c: 2496:     pBDTEntryEP0OutNext->STAT.Val &= ~(0x80);
  3309   001C56  C032  FFD9         	movff	_pBDTEntryEP0OutNext,fsr2l
  3310   001C5A  C033  FFDA         	movff	_pBDTEntryEP0OutNext+1,fsr2h
  3311   001C5E  0E7F               	movlw	127
  3312   001C60  16DF               	andwf	indf2,f,c
  3313   001C62                     
  3314                           ; BSR set to: 0
  3315                           ;usb/src/usb_device.c: 2498:     inPipes[0].info.Val = 0;
  3316   001C62  0E00               	movlw	0
  3317   001C64  6F6B               	movwf	(_inPipes+3)& (0+255),b	;volatile
  3318   001C66                     
  3319                           ; BSR set to: 0
  3320                           ;usb/src/usb_device.c: 2499:     inPipes[0].wCount.Val = 0;
  3321   001C66  0E00               	movlw	0
  3322   001C68  6F6D               	movwf	(_inPipes+5)& (0+255),b	;volatile
  3323   001C6A  0E00               	movlw	0
  3324   001C6C  6F6C               	movwf	(_inPipes+4)& (0+255),b	;volatile
  3325   001C6E                     
  3326                           ; BSR set to: 0
  3327                           ;usb/src/usb_device.c: 2500:     outPipes[0].info.Val = 0;
  3328   001C6E  0E00               	movlw	0
  3329   001C70  6F63               	movwf	(_outPipes+3)& (0+255),b	;volatile
  3330   001C72                     
  3331                           ; BSR set to: 0
  3332                           ;usb/src/usb_device.c: 2501:     outPipes[0].wCount.Val = 0;
  3333   001C72  0E00               	movlw	0
  3334   001C74  6F65               	movwf	(_outPipes+5)& (0+255),b	;volatile
  3335   001C76  0E00               	movlw	0
  3336   001C78  6F64               	movwf	(_outPipes+4)& (0+255),b	;volatile
  3337   001C7A                     
  3338                           ; BSR set to: 0
  3339                           ;usb/src/usb_device.c: 2507:     USBCheckStdRequest();
  3340   001C7A  EC94  F009         	call	_USBCheckStdRequest	;wreg free
  3341   001C7E                     
  3342                           ;usb/src/usb_device.c: 2508:     USER_USB_CALLBACK_EVENT_HANDLER((USB_EVENT)EVENT_EP0_RE
      +                          QUEST,0,0);
  3343   001C7E  0E00               	movlw	0
  3344   001C80  6E10               	movwf	(USER_USB_CALLBACK_EVENT_HANDLER@event+1)^0,c
  3345   001C82  0E03               	movlw	3
  3346   001C84  6E0F               	movwf	USER_USB_CALLBACK_EVENT_HANDLER@event^0,c
  3347   001C86  0E00               	movlw	0
  3348   001C88  6E11               	movwf	USER_USB_CALLBACK_EVENT_HANDLER@pdata^0,c
  3349   001C8A  0E00               	movlw	0
  3350   001C8C  6E12               	movwf	(USER_USB_CALLBACK_EVENT_HANDLER@pdata+1)^0,c
  3351   001C8E  0E00               	movlw	0
  3352   001C90  6E14               	movwf	(USER_USB_CALLBACK_EVENT_HANDLER@size+1)^0,c
  3353   001C92  0E00               	movlw	0
  3354   001C94  6E13               	movwf	USER_USB_CALLBACK_EVENT_HANDLER@size^0,c
  3355   001C96  EC97  F00E         	call	_USER_USB_CALLBACK_EVENT_HANDLER	;wreg free
  3356   001C9A                     
  3357                           ;usb/src/usb_device.c: 2521:     USBCtrlEPServiceComplete();
  3358   001C9A  EC94  F006         	call	_USBCtrlEPServiceComplete	;wreg free
  3359   001C9E  0012               	return		;funcret
  3360   001CA0                     __end_of_USBCtrlTrfSetupHandler:
  3361                           	callstack 0
  3362                           
  3363 ;; *************** function _USBCtrlEPServiceComplete *****************
  3364 ;; Defined at:
  3365 ;;		line 1620 in file "usb/src/usb_device.c"
  3366 ;; Parameters:    Size  Location     Type
  3367 ;;		None
  3368 ;; Auto vars:     Size  Location     Type
  3369 ;;		None
  3370 ;; Return value:  Size  Location     Type
  3371 ;;                  1    wreg      void 
  3372 ;; Registers used:
  3373 ;;		wreg, fsr1l, fsr1h, fsr2l, fsr2h, status,2, status,0, tblptrl, tblptrh, tblptru, cstack
  3374 ;; Tracked objects:
  3375 ;;		On entry : 0/0
  3376 ;;		On exit  : 0/0
  3377 ;;		Unchanged: 0/0
  3378 ;; Data sizes:     COMRAM   BANK0   BANK1  BANK2h  BANK2l
  3379 ;;      Params:         0       0       0       0       0
  3380 ;;      Locals:         0       0       0       0       0
  3381 ;;      Temps:          0       0       0       0       0
  3382 ;;      Totals:         0       0       0       0       0
  3383 ;;Total ram usage:        0 bytes
  3384 ;; Hardware stack levels used: 1
  3385 ;; Hardware stack levels required when called: 2
  3386 ;; This function calls:
  3387 ;;		_USBCtrlEPAllowDataStage
  3388 ;;		_USBCtrlEPAllowStatusStage
  3389 ;; This function is called by:
  3390 ;;		_USBCtrlTrfSetupHandler
  3391 ;; This function uses a non-reentrant model
  3392 ;;
  3393                           
  3394                           	psect	text20
  3395   000D28                     __ptext20:
  3396                           	callstack 0
  3397   000D28                     _USBCtrlEPServiceComplete:
  3398                           	callstack 22
  3399   000D28                     
  3400                           ;usb/src/usb_device.c: 1626:     UCONbits.PKTDIS = 0;
  3401   000D28  9864               	bcf	100,4,c	;volatile
  3402                           
  3403                           ;usb/src/usb_device.c: 1632:     if(inPipes[0].info.bits.busy == 0)
  3404   000D2A  0100               	movlb	0	; () banked
  3405   000D2C  BF6B               	btfsc	(_inPipes+3)& (0+255),7,b	;volatile
  3406   000D2E  EF9B  F006         	goto	i2u200_41
  3407   000D32  EF9D  F006         	goto	i2u200_40
  3408   000D36                     i2u200_41:
  3409   000D36  EFE2  F006         	goto	i2l346
  3410   000D3A                     i2u200_40:
  3411   000D3A                     
  3412                           ; BSR set to: 0
  3413                           ;usb/src/usb_device.c: 1633:     {;usb/src/usb_device.c: 1634:         if(outPipes[0].in
      +                          fo.bits.busy == 1)
  3414   000D3A  AF63               	btfss	(_outPipes+3)& (0+255),7,b	;volatile
  3415   000D3C  EFA2  F006         	goto	i2u201_41
  3416   000D40  EFA4  F006         	goto	i2u201_40
  3417   000D44                     i2u201_41:
  3418   000D44  EFB6  F006         	goto	i2l3109
  3419   000D48                     i2u201_40:
  3420   000D48                     
  3421                           ; BSR set to: 0
  3422                           ;usb/src/usb_device.c: 1635:         {;usb/src/usb_device.c: 1636:             controlTr
      +                          ansferState = 2;
  3423   000D48  0E02               	movlw	2
  3424   000D4A  6E45               	movwf	_controlTransferState^0,c	;volatile
  3425                           
  3426                           ;usb/src/usb_device.c: 1647:             if(USBDeferOUTDataStagePackets == 0)
  3427   000D4C  503B               	movf	_USBDeferOUTDataStagePackets^0,w,c	;volatile
  3428   000D4E  A4D8               	btfss	status,2,c
  3429   000D50  EFAC  F006         	goto	i2u202_41
  3430   000D54  EFAE  F006         	goto	i2u202_40
  3431   000D58                     i2u202_41:
  3432   000D58  EFB0  F006         	goto	i2l3105
  3433   000D5C                     i2u202_40:
  3434   000D5C                     
  3435                           ; BSR set to: 0
  3436                           ;usb/src/usb_device.c: 1648:             {;usb/src/usb_device.c: 1649:                 U
      +                          SBCtrlEPAllowDataStage();
  3437   000D5C  EC5A  F00D         	call	_USBCtrlEPAllowDataStage	;wreg free
  3438   000D60                     i2l3105:
  3439                           
  3440                           ;usb/src/usb_device.c: 1654:             USBStatusStageEnabledFlag2 = 0;
  3441   000D60  0E00               	movlw	0
  3442   000D62  6E3D               	movwf	_USBStatusStageEnabledFlag2^0,c	;volatile
  3443   000D64                     
  3444                           ;usb/src/usb_device.c: 1655:             USBStatusStageEnabledFlag1 = 0;
  3445   000D64  0E00               	movlw	0
  3446   000D66  6E3E               	movwf	_USBStatusStageEnabledFlag1^0,c	;volatile
  3447                           
  3448                           ;usb/src/usb_device.c: 1656:         }
  3449   000D68  EF34  F007         	goto	i2l356
  3450   000D6C                     i2l3109:
  3451                           
  3452                           ; BSR set to: 0
  3453                           ;usb/src/usb_device.c: 1658:         {;usb/src/usb_device.c: 1663:             pBDTEntry
      +                          EP0OutNext->CNT = 8;
  3454   000D6C  EE20 F001          	lfsr	2,1
  3455   000D70  5032               	movf	_pBDTEntryEP0OutNext^0,w,c
  3456   000D72  26D9               	addwf	fsr2l,f,c
  3457   000D74  5033               	movf	(_pBDTEntryEP0OutNext+1)^0,w,c
  3458   000D76  22DA               	addwfc	fsr2h,f,c
  3459   000D78  0E08               	movlw	8
  3460   000D7A  6EDF               	movwf	indf2,c
  3461                           
  3462                           ;usb/src/usb_device.c: 1664:             pBDTEntryEP0OutNext->ADR = ((uint16_t)(&SetupPk
      +                          t));
  3463   000D7C  EE20 F002          	lfsr	2,2
  3464   000D80  5032               	movf	_pBDTEntryEP0OutNext^0,w,c
  3465   000D82  26D9               	addwf	fsr2l,f,c
  3466   000D84  5033               	movf	(_pBDTEntryEP0OutNext+1)^0,w,c
  3467   000D86  22DA               	addwfc	fsr2h,f,c
  3468   000D88  0E20               	movlw	32
  3469   000D8A  6EDE               	movwf	postinc2,c
  3470   000D8C  0E02               	movlw	2
  3471   000D8E  6EDD               	movwf	postdec2,c
  3472   000D90                     
  3473                           ; BSR set to: 0
  3474                           ;usb/src/usb_device.c: 1665:             pBDTEntryEP0OutNext->STAT.Val = 0x00|(0x08 & 0x
      +                          08)|0x04;
  3475   000D90  C032  FFD9         	movff	_pBDTEntryEP0OutNext,fsr2l
  3476   000D94  C033  FFDA         	movff	_pBDTEntryEP0OutNext+1,fsr2h
  3477   000D98  0E0C               	movlw	12
  3478   000D9A  6EDF               	movwf	indf2,c
  3479   000D9C                     
  3480                           ; BSR set to: 0
  3481                           ;usb/src/usb_device.c: 1666:             pBDTEntryEP0OutNext->STAT.Val |= 0x80;
  3482   000D9C  C032  FFD9         	movff	_pBDTEntryEP0OutNext,fsr2l
  3483   000DA0  C033  FFDA         	movff	_pBDTEntryEP0OutNext+1,fsr2h
  3484   000DA4  0E00               	movlw	0
  3485   000DA6  8EDB               	bsf	plusw2,7,c
  3486                           
  3487                           ;usb/src/usb_device.c: 1667:             pBDTEntryIn[0]->STAT.Val = 0x04;
  3488   000DA8  C06E  FFD9         	movff	_pBDTEntryIn,fsr2l
  3489   000DAC  C06F  FFDA         	movff	_pBDTEntryIn+1,fsr2h
  3490   000DB0  0E04               	movlw	4
  3491   000DB2  6EDF               	movwf	indf2,c
  3492   000DB4                     
  3493                           ; BSR set to: 0
  3494                           ;usb/src/usb_device.c: 1668:             pBDTEntryIn[0]->STAT.Val |= 0x80;
  3495   000DB4  C06E  FFD9         	movff	_pBDTEntryIn,fsr2l
  3496   000DB8  C06F  FFDA         	movff	_pBDTEntryIn+1,fsr2h
  3497   000DBC  0E00               	movlw	0
  3498   000DBE  8EDB               	bsf	plusw2,7,c
  3499   000DC0  EF34  F007         	goto	i2l356
  3500   000DC4                     i2l346:
  3501                           
  3502                           ; BSR set to: 0
  3503                           ;usb/src/usb_device.c: 1672:     {;usb/src/usb_device.c: 1673:   if(SetupPkt.DataDir == 
      +                          (0x80>>7))
  3504   000DC4  0102               	movlb	2	; () banked
  3505   000DC6  AF20               	btfss	32,7,b	;volatile
  3506   000DC8  EFE8  F006         	goto	i2u203_41
  3507   000DCC  EFEA  F006         	goto	i2u203_40
  3508   000DD0                     i2u203_41:
  3509   000DD0  EF06  F007         	goto	i2l3129
  3510   000DD4                     i2u203_40:
  3511   000DD4                     
  3512                           ; BSR set to: 2
  3513                           ;usb/src/usb_device.c: 1674:   {;usb/src/usb_device.c: 1675:    controlTransferState = 1
      +                          ;
  3514   000DD4  0E01               	movlw	1
  3515   000DD6  6E45               	movwf	_controlTransferState^0,c	;volatile
  3516                           
  3517                           ;usb/src/usb_device.c: 1689:    if(USBDeferINDataStagePackets == 0)
  3518   000DD8  503C               	movf	_USBDeferINDataStagePackets^0,w,c	;volatile
  3519   000DDA  A4D8               	btfss	status,2,c
  3520   000DDC  EFF2  F006         	goto	i2u204_41
  3521   000DE0  EFF4  F006         	goto	i2u204_40
  3522   000DE4                     i2u204_41:
  3523   000DE4  EFF6  F006         	goto	i2l3121
  3524   000DE8                     i2u204_40:
  3525   000DE8                     
  3526                           ; BSR set to: 2
  3527                           ;usb/src/usb_device.c: 1690:             {;usb/src/usb_device.c: 1691:                 U
      +                          SBCtrlEPAllowDataStage();
  3528   000DE8  EC5A  F00D         	call	_USBCtrlEPAllowDataStage	;wreg free
  3529   000DEC                     i2l3121:
  3530                           
  3531                           ;usb/src/usb_device.c: 1714:             USBStatusStageEnabledFlag2 = 0;
  3532   000DEC  0E00               	movlw	0
  3533   000DEE  6E3D               	movwf	_USBStatusStageEnabledFlag2^0,c	;volatile
  3534   000DF0                     
  3535                           ;usb/src/usb_device.c: 1715:             USBStatusStageEnabledFlag1 = 0;
  3536   000DF0  0E00               	movlw	0
  3537   000DF2  6E3E               	movwf	_USBStatusStageEnabledFlag1^0,c	;volatile
  3538   000DF4                     
  3539                           ;usb/src/usb_device.c: 1716:             if(USBDeferStatusStagePacket == 0)
  3540   000DF4  503F               	movf	_USBDeferStatusStagePacket^0,w,c	;volatile
  3541   000DF6  A4D8               	btfss	status,2,c
  3542   000DF8  EF00  F007         	goto	i2u205_41
  3543   000DFC  EF02  F007         	goto	i2u205_40
  3544   000E00                     i2u205_41:
  3545   000E00  EF34  F007         	goto	i2l356
  3546   000E04                     i2u205_40:
  3547   000E04                     i2l3127:
  3548                           
  3549                           ;usb/src/usb_device.c: 1717:             {;usb/src/usb_device.c: 1718:                 U
      +                          SBCtrlEPAllowStatusStage();
  3550   000E04  ECBB  F00B         	call	_USBCtrlEPAllowStatusStage	;wreg free
  3551   000E08  EF34  F007         	goto	i2l356
  3552   000E0C                     i2l3129:
  3553                           
  3554                           ; BSR set to: 2
  3555                           ;usb/src/usb_device.c: 1722:   {;usb/src/usb_device.c: 1733:    controlTransferState = 2
      +                          ;
  3556   000E0C  0E02               	movlw	2
  3557   000E0E  6E45               	movwf	_controlTransferState^0,c	;volatile
  3558   000E10                     
  3559                           ; BSR set to: 2
  3560                           ;usb/src/usb_device.c: 1736:    pBDTEntryEP0OutNext->CNT = 8;
  3561   000E10  EE20 F001          	lfsr	2,1
  3562   000E14  5032               	movf	_pBDTEntryEP0OutNext^0,w,c
  3563   000E16  26D9               	addwf	fsr2l,f,c
  3564   000E18  5033               	movf	(_pBDTEntryEP0OutNext+1)^0,w,c
  3565   000E1A  22DA               	addwfc	fsr2h,f,c
  3566   000E1C  0E08               	movlw	8
  3567   000E1E  6EDF               	movwf	indf2,c
  3568   000E20                     
  3569                           ; BSR set to: 2
  3570                           ;usb/src/usb_device.c: 1737:    pBDTEntryEP0OutNext->ADR = ((uint16_t)(&SetupPkt));
  3571   000E20  EE20 F002          	lfsr	2,2
  3572   000E24  5032               	movf	_pBDTEntryEP0OutNext^0,w,c
  3573   000E26  26D9               	addwf	fsr2l,f,c
  3574   000E28  5033               	movf	(_pBDTEntryEP0OutNext+1)^0,w,c
  3575   000E2A  22DA               	addwfc	fsr2h,f,c
  3576   000E2C  0E20               	movlw	32
  3577   000E2E  6EDE               	movwf	postinc2,c
  3578   000E30  0E02               	movlw	2
  3579   000E32  6EDD               	movwf	postdec2,c
  3580   000E34                     
  3581                           ; BSR set to: 2
  3582                           ;usb/src/usb_device.c: 1738:    pBDTEntryEP0OutNext->STAT.Val = 0x04;
  3583   000E34  C032  FFD9         	movff	_pBDTEntryEP0OutNext,fsr2l
  3584   000E38  C033  FFDA         	movff	_pBDTEntryEP0OutNext+1,fsr2h
  3585   000E3C  0E04               	movlw	4
  3586   000E3E  6EDF               	movwf	indf2,c
  3587   000E40                     
  3588                           ; BSR set to: 2
  3589                           ;usb/src/usb_device.c: 1739:             pBDTEntryEP0OutNext->STAT.Val |= 0x80;
  3590   000E40  C032  FFD9         	movff	_pBDTEntryEP0OutNext,fsr2l
  3591   000E44  C033  FFDA         	movff	_pBDTEntryEP0OutNext+1,fsr2h
  3592   000E48  0E00               	movlw	0
  3593   000E4A  8EDB               	bsf	plusw2,7,c
  3594   000E4C                     
  3595                           ; BSR set to: 2
  3596                           ;usb/src/usb_device.c: 1742:             USBStatusStageEnabledFlag2 = 0;
  3597   000E4C  0E00               	movlw	0
  3598   000E4E  6E3D               	movwf	_USBStatusStageEnabledFlag2^0,c	;volatile
  3599   000E50                     
  3600                           ; BSR set to: 2
  3601                           ;usb/src/usb_device.c: 1743:             USBStatusStageEnabledFlag1 = 0;
  3602   000E50  0E00               	movlw	0
  3603   000E52  6E3E               	movwf	_USBStatusStageEnabledFlag1^0,c	;volatile
  3604   000E54                     
  3605                           ; BSR set to: 2
  3606                           ;usb/src/usb_device.c: 1744:    if(USBDeferStatusStagePacket == 0)
  3607   000E54  503F               	movf	_USBDeferStatusStagePacket^0,w,c	;volatile
  3608   000E56  A4D8               	btfss	status,2,c
  3609   000E58  EF30  F007         	goto	i2u206_41
  3610   000E5C  EF32  F007         	goto	i2u206_40
  3611   000E60                     i2u206_41:
  3612   000E60  EF34  F007         	goto	i2l356
  3613   000E64                     i2u206_40:
  3614   000E64  EF02  F007         	goto	i2l3127
  3615   000E68                     i2l356:
  3616   000E68  0012               	return		;funcret
  3617   000E6A                     __end_of_USBCtrlEPServiceComplete:
  3618                           	callstack 0
  3619                           
  3620 ;; *************** function _USBCtrlEPAllowDataStage *****************
  3621 ;; Defined at:
  3622 ;;		line 1492 in file "usb/src/usb_device.c"
  3623 ;; Parameters:    Size  Location     Type
  3624 ;;		None
  3625 ;; Auto vars:     Size  Location     Type
  3626 ;;		None
  3627 ;; Return value:  Size  Location     Type
  3628 ;;                  1    wreg      void 
  3629 ;; Registers used:
  3630 ;;		wreg, fsr1l, fsr1h, fsr2l, fsr2h, status,2, status,0, tblptrl, tblptrh, tblptru, cstack
  3631 ;; Tracked objects:
  3632 ;;		On entry : 0/0
  3633 ;;		On exit  : 0/0
  3634 ;;		Unchanged: 0/0
  3635 ;; Data sizes:     COMRAM   BANK0   BANK1  BANK2h  BANK2l
  3636 ;;      Params:         0       0       0       0       0
  3637 ;;      Locals:         0       0       0       0       0
  3638 ;;      Temps:          0       0       0       0       0
  3639 ;;      Totals:         0       0       0       0       0
  3640 ;;Total ram usage:        0 bytes
  3641 ;; Hardware stack levels used: 1
  3642 ;; Hardware stack levels required when called: 1
  3643 ;; This function calls:
  3644 ;;		_USBCtrlTrfTxService
  3645 ;; This function is called by:
  3646 ;;		_USBCtrlEPServiceComplete
  3647 ;; This function uses a non-reentrant model
  3648 ;;
  3649                           
  3650                           	psect	text21
  3651   001AB4                     __ptext21:
  3652                           	callstack 0
  3653   001AB4                     _USBCtrlEPAllowDataStage:
  3654                           	callstack 22
  3655   001AB4                     
  3656                           ;usb/src/usb_device.c: 1494:     USBDeferINDataStagePackets = 0;
  3657   001AB4  0E00               	movlw	0
  3658   001AB6  6E3C               	movwf	_USBDeferINDataStagePackets^0,c	;volatile
  3659                           
  3660                           ;usb/src/usb_device.c: 1495:     USBDeferOUTDataStagePackets = 0;
  3661   001AB8  0E00               	movlw	0
  3662   001ABA  6E3B               	movwf	_USBDeferOUTDataStagePackets^0,c	;volatile
  3663   001ABC                     
  3664                           ;usb/src/usb_device.c: 1497:     if(controlTransferState == 2)
  3665   001ABC  0E02               	movlw	2
  3666   001ABE  1845               	xorwf	_controlTransferState^0,w,c	;volatile
  3667   001AC0  A4D8               	btfss	status,2,c
  3668   001AC2  EF65  F00D         	goto	i2u166_41
  3669   001AC6  EF67  F00D         	goto	i2u166_40
  3670   001ACA                     i2u166_41:
  3671   001ACA  EF87  F00D         	goto	i2l2891
  3672   001ACE                     i2u166_40:
  3673   001ACE                     
  3674                           ;usb/src/usb_device.c: 1498:     {;usb/src/usb_device.c: 1500:         pBDTEntryEP0OutNe
      +                          xt->CNT = 8;
  3675   001ACE  EE20 F001          	lfsr	2,1
  3676   001AD2  5032               	movf	_pBDTEntryEP0OutNext^0,w,c
  3677   001AD4  26D9               	addwf	fsr2l,f,c
  3678   001AD6  5033               	movf	(_pBDTEntryEP0OutNext+1)^0,w,c
  3679   001AD8  22DA               	addwfc	fsr2h,f,c
  3680   001ADA  0E08               	movlw	8
  3681   001ADC  6EDF               	movwf	indf2,c
  3682                           
  3683                           ;usb/src/usb_device.c: 1501:         pBDTEntryEP0OutNext->ADR = ((uint16_t)(&CtrlTrfData
      +                          ));
  3684   001ADE  EE20 F002          	lfsr	2,2
  3685   001AE2  5032               	movf	_pBDTEntryEP0OutNext^0,w,c
  3686   001AE4  26D9               	addwf	fsr2l,f,c
  3687   001AE6  5033               	movf	(_pBDTEntryEP0OutNext+1)^0,w,c
  3688   001AE8  22DA               	addwfc	fsr2h,f,c
  3689   001AEA  0E28               	movlw	40
  3690   001AEC  6EDE               	movwf	postinc2,c
  3691   001AEE  0E02               	movlw	2
  3692   001AF0  6EDD               	movwf	postdec2,c
  3693   001AF2                     
  3694                           ;usb/src/usb_device.c: 1502:         pBDTEntryEP0OutNext->STAT.Val = 0x40|(0x08 & 0x08);
  3695   001AF2  C032  FFD9         	movff	_pBDTEntryEP0OutNext,fsr2l
  3696   001AF6  C033  FFDA         	movff	_pBDTEntryEP0OutNext+1,fsr2h
  3697   001AFA  0E48               	movlw	72
  3698   001AFC  6EDF               	movwf	indf2,c
  3699   001AFE                     
  3700                           ;usb/src/usb_device.c: 1503:         pBDTEntryEP0OutNext->STAT.Val |= 0x80;
  3701   001AFE  C032  FFD9         	movff	_pBDTEntryEP0OutNext,fsr2l
  3702   001B02  C033  FFDA         	movff	_pBDTEntryEP0OutNext+1,fsr2h
  3703   001B06  0E00               	movlw	0
  3704   001B08  8EDB               	bsf	plusw2,7,c
  3705                           
  3706                           ;usb/src/usb_device.c: 1504:     }
  3707   001B0A  EFB3  F00D         	goto	i2l338
  3708   001B0E                     i2l2891:
  3709                           
  3710                           ;usb/src/usb_device.c: 1506:     {;usb/src/usb_device.c: 1509:   if(SetupPkt.wLength < i
      +                          nPipes[0].wCount.Val)
  3711   001B0E  0100               	movlb	0	; () banked
  3712   001B10  516C               	movf	(_inPipes+4)& (0+255),w,b	;volatile
  3713   001B12  0102               	movlb	2	; () banked
  3714   001B14  5D26               	subwf	38,w,b	;volatile
  3715   001B16  0100               	movlb	0	; () banked
  3716   001B18  516D               	movf	(_inPipes+5)& (0+255),w,b	;volatile
  3717   001B1A  0102               	movlb	2	; () banked
  3718   001B1C  5927               	subwfb	39,w,b	;volatile
  3719   001B1E  B0D8               	btfsc	status,0,c
  3720   001B20  EF94  F00D         	goto	i2u167_41
  3721   001B24  EF96  F00D         	goto	i2u167_40
  3722   001B28                     i2u167_41:
  3723   001B28  EF9A  F00D         	goto	i2l2895
  3724   001B2C                     i2u167_40:
  3725   001B2C                     
  3726                           ; BSR set to: 2
  3727                           ;usb/src/usb_device.c: 1510:   {;usb/src/usb_device.c: 1511:    inPipes[0].wCount.Val = 
      +                          SetupPkt.wLength;
  3728   001B2C  C226 F06C          	movff	550,_inPipes+4	;volatile
  3729   001B30  C227 F06D          	movff	551,_inPipes+5	;volatile
  3730   001B34                     i2l2895:
  3731                           
  3732                           ; BSR set to: 2
  3733                           ;usb/src/usb_device.c: 1513:   USBCtrlTrfTxService();
  3734   001B34  ECAD  F00A         	call	_USBCtrlTrfTxService	;wreg free
  3735   001B38                     
  3736                           ;usb/src/usb_device.c: 1518:   pBDTEntryIn[0]->ADR = ((uint16_t)(&CtrlTrfData));
  3737   001B38  0100               	movlb	0	; () banked
  3738   001B3A  EE20 F002          	lfsr	2,2
  3739   001B3E  516E               	movf	_pBDTEntryIn& (0+255),w,b
  3740   001B40  26D9               	addwf	fsr2l,f,c
  3741   001B42  516F               	movf	(_pBDTEntryIn+1)& (0+255),w,b
  3742   001B44  22DA               	addwfc	fsr2h,f,c
  3743   001B46  0E28               	movlw	40
  3744   001B48  6EDE               	movwf	postinc2,c
  3745   001B4A  0E02               	movlw	2
  3746   001B4C  6EDD               	movwf	postdec2,c
  3747   001B4E                     
  3748                           ; BSR set to: 0
  3749                           ;usb/src/usb_device.c: 1519:   pBDTEntryIn[0]->STAT.Val = 0x40|(0x08 & 0x08);
  3750   001B4E  C06E  FFD9         	movff	_pBDTEntryIn,fsr2l
  3751   001B52  C06F  FFDA         	movff	_pBDTEntryIn+1,fsr2h
  3752   001B56  0E48               	movlw	72
  3753   001B58  6EDF               	movwf	indf2,c
  3754   001B5A                     
  3755                           ; BSR set to: 0
  3756                           ;usb/src/usb_device.c: 1520:         pBDTEntryIn[0]->STAT.Val |= 0x80;
  3757   001B5A  C06E  FFD9         	movff	_pBDTEntryIn,fsr2l
  3758   001B5E  C06F  FFDA         	movff	_pBDTEntryIn+1,fsr2h
  3759   001B62  0E00               	movlw	0
  3760   001B64  8EDB               	bsf	plusw2,7,c
  3761   001B66                     i2l338:
  3762   001B66  0012               	return		;funcret
  3763   001B68                     __end_of_USBCtrlEPAllowDataStage:
  3764                           	callstack 0
  3765                           
  3766 ;; *************** function _USBCheckStdRequest *****************
  3767 ;; Defined at:
  3768 ;;		line 2693 in file "usb/src/usb_device.c"
  3769 ;; Parameters:    Size  Location     Type
  3770 ;;		None
  3771 ;; Auto vars:     Size  Location     Type
  3772 ;;		None
  3773 ;; Return value:  Size  Location     Type
  3774 ;;                  1    wreg      void 
  3775 ;; Registers used:
  3776 ;;		wreg, fsr1l, fsr1h, fsr2l, fsr2h, status,2, status,0, tblptrl, tblptrh, tblptru, prodl, prodh, cstack
  3777 ;; Tracked objects:
  3778 ;;		On entry : 0/0
  3779 ;;		On exit  : 0/0
  3780 ;;		Unchanged: 0/0
  3781 ;; Data sizes:     COMRAM   BANK0   BANK1  BANK2h  BANK2l
  3782 ;;      Params:         0       0       0       0       0
  3783 ;;      Locals:         0       0       0       0       0
  3784 ;;      Temps:          2       0       0       0       0
  3785 ;;      Totals:         2       0       0       0       0
  3786 ;;Total ram usage:        2 bytes
  3787 ;; Hardware stack levels used: 1
  3788 ;; Hardware stack levels required when called: 5
  3789 ;; This function calls:
  3790 ;;		_USBStdFeatureReqHandler
  3791 ;;		_USBStdGetDscHandler
  3792 ;;		_USBStdGetStatusHandler
  3793 ;;		_USBStdSetCfgHandler
  3794 ;;		_USER_USB_CALLBACK_EVENT_HANDLER
  3795 ;; This function is called by:
  3796 ;;		_USBCtrlTrfSetupHandler
  3797 ;; This function uses a non-reentrant model
  3798 ;;
  3799                           
  3800                           	psect	text22
  3801   001328                     __ptext22:
  3802                           	callstack 0
  3803   001328                     _USBCheckStdRequest:
  3804                           	callstack 19
  3805   001328                     
  3806                           ;usb/src/usb_device.c: 2695:     if(SetupPkt.RequestType != (0x00>>5)) return;
  3807   001328  0102               	movlb	2	; () banked
  3808   00132A  3920               	swapf	32,w,b	;volatile
  3809   00132C  32E8               	rrcf	wreg,f,c
  3810   00132E  0B03               	andlw	3
  3811   001330  0900               	iorlw	0
  3812   001332  B4D8               	btfsc	status,2,c
  3813   001334  EF9E  F009         	goto	i2u212_41
  3814   001338  EFA0  F009         	goto	i2u212_40
  3815   00133C                     i2u212_41:
  3816   00133C  EFEA  F009         	goto	i2l3227
  3817   001340                     i2u212_40:
  3818   001340  EF23  F00A         	goto	i2l470
  3819   001344                     i2l472:
  3820                           
  3821                           ; BSR set to: 2
  3822                           ;usb/src/usb_device.c: 2700:             inPipes[0].info.bits.busy = 1;
  3823   001344  0100               	movlb	0	; () banked
  3824   001346  8F6B               	bsf	(_inPipes+3)& (0+255),7,b	;volatile
  3825   001348                     
  3826                           ; BSR set to: 0
  3827                           ;usb/src/usb_device.c: 2701:             USBDeviceState = ADR_PENDING_STATE;
  3828   001348  0E08               	movlw	8
  3829   00134A  6E47               	movwf	_USBDeviceState^0,c	;volatile
  3830                           
  3831                           ;usb/src/usb_device.c: 2703:             break;
  3832   00134C  EF23  F00A         	goto	i2l470
  3833   001350                     i2l3197:
  3834                           
  3835                           ; BSR set to: 2
  3836                           ;usb/src/usb_device.c: 2705:             USBStdGetDscHandler();
  3837   001350  EC39  F005         	call	_USBStdGetDscHandler	;wreg free
  3838                           
  3839                           ;usb/src/usb_device.c: 2706:             break;
  3840   001354  EF23  F00A         	goto	i2l470
  3841   001358                     i2l3199:
  3842                           
  3843                           ; BSR set to: 2
  3844                           ;usb/src/usb_device.c: 2708:             USBStdSetCfgHandler();
  3845   001358  EC33  F00C         	call	_USBStdSetCfgHandler	;wreg free
  3846                           
  3847                           ;usb/src/usb_device.c: 2709:             break;
  3848   00135C  EF23  F00A         	goto	i2l470
  3849   001360                     i2l3201:
  3850                           
  3851                           ; BSR set to: 2
  3852                           ;usb/src/usb_device.c: 2711:             inPipes[0].pSrc.bRam = (uint8_t*)&USBActiveConf
      +                          iguration;
  3853   001360  0E4C               	movlw	low _USBActiveConfiguration
  3854   001362  0100               	movlb	0	; () banked
  3855   001364  6F68               	movwf	_inPipes& (0+255),b	;volatile
  3856   001366  6B69               	clrf	(_inPipes+1)& (0+255),b	;volatile
  3857   001368                     
  3858                           ; BSR set to: 0
  3859                           ;usb/src/usb_device.c: 2712:             inPipes[0].info.bits.ctrl_trf_mem = 0x01;
  3860   001368  816B               	bsf	(_inPipes+3)& (0+255),0,b	;volatile
  3861   00136A                     
  3862                           ; BSR set to: 0
  3863                           ;usb/src/usb_device.c: 2713:             inPipes[0].wCount.v[0] = 1;
  3864   00136A  0E01               	movlw	1
  3865   00136C  6F6C               	movwf	(_inPipes+4)& (0+255),b	;volatile
  3866   00136E                     
  3867                           ; BSR set to: 0
  3868                           ;usb/src/usb_device.c: 2714:             inPipes[0].info.bits.busy = 1;
  3869   00136E  8F6B               	bsf	(_inPipes+3)& (0+255),7,b	;volatile
  3870                           
  3871                           ;usb/src/usb_device.c: 2715:             break;
  3872   001370  EF23  F00A         	goto	i2l470
  3873   001374                     i2l3209:
  3874                           
  3875                           ; BSR set to: 2
  3876                           ;usb/src/usb_device.c: 2717:             USBStdGetStatusHandler();
  3877   001374  EC24  F00A         	call	_USBStdGetStatusHandler	;wreg free
  3878                           
  3879                           ;usb/src/usb_device.c: 2718:             break;
  3880   001378  EF23  F00A         	goto	i2l470
  3881   00137C                     i2l3211:
  3882                           
  3883                           ; BSR set to: 2
  3884                           ;usb/src/usb_device.c: 2721:             USBStdFeatureReqHandler();
  3885   00137C  ECE2  F001         	call	_USBStdFeatureReqHandler	;wreg free
  3886                           
  3887                           ;usb/src/usb_device.c: 2722:             break;
  3888   001380  EF23  F00A         	goto	i2l470
  3889   001384                     i2l3213:
  3890                           
  3891                           ; BSR set to: 2
  3892                           ;usb/src/usb_device.c: 2724:             inPipes[0].pSrc.bRam = (uint8_t*)&USBAlternateI
      +                          nterface[SetupPkt.bIntfID];
  3893   001384  5124               	movf	36,w,b	;volatile
  3894   001386  0F4B               	addlw	low _USBAlternateInterface
  3895   001388  6E1E               	movwf	??_USBCheckStdRequest^0,c
  3896   00138A  C01E  F068         	movff	??_USBCheckStdRequest,_inPipes	;volatile
  3897   00138E  0100               	movlb	0	; () banked
  3898   001390  6B69               	clrf	(_inPipes+1)& (0+255),b	;volatile
  3899   001392                     
  3900                           ; BSR set to: 0
  3901                           ;usb/src/usb_device.c: 2725:             inPipes[0].info.bits.ctrl_trf_mem = 0x01;
  3902   001392  816B               	bsf	(_inPipes+3)& (0+255),0,b	;volatile
  3903   001394                     
  3904                           ; BSR set to: 0
  3905                           ;usb/src/usb_device.c: 2726:             inPipes[0].wCount.v[0] = 1;
  3906   001394  0E01               	movlw	1
  3907   001396  6F6C               	movwf	(_inPipes+4)& (0+255),b	;volatile
  3908   001398                     
  3909                           ; BSR set to: 0
  3910                           ;usb/src/usb_device.c: 2727:             inPipes[0].info.bits.busy = 1;
  3911   001398  8F6B               	bsf	(_inPipes+3)& (0+255),7,b	;volatile
  3912                           
  3913                           ;usb/src/usb_device.c: 2728:             break;
  3914   00139A  EF23  F00A         	goto	i2l470
  3915   00139E                     i2l481:
  3916                           
  3917                           ; BSR set to: 2
  3918                           ;usb/src/usb_device.c: 2730:             inPipes[0].info.bits.busy = 1;
  3919   00139E  0100               	movlb	0	; () banked
  3920   0013A0  8F6B               	bsf	(_inPipes+3)& (0+255),7,b	;volatile
  3921   0013A2                     
  3922                           ; BSR set to: 0
  3923                           ;usb/src/usb_device.c: 2731:             USBAlternateInterface[SetupPkt.bIntfID] = Setup
      +                          Pkt.bAltID;
  3924   0013A2  0102               	movlb	2	; () banked
  3925   0013A4  5124               	movf	36,w,b	;volatile
  3926   0013A6  0F4B               	addlw	low _USBAlternateInterface
  3927   0013A8  6ED9               	movwf	fsr2l,c
  3928   0013AA  6ADA               	clrf	fsr2h,c
  3929   0013AC  C222 FFDF          	movff	546,indf2	;volatile
  3930                           
  3931                           ;usb/src/usb_device.c: 2732:             break;
  3932   0013B0  EF23  F00A         	goto	i2l470
  3933   0013B4                     i2l3223:
  3934                           
  3935                           ; BSR set to: 2
  3936                           ;usb/src/usb_device.c: 2734:             USER_USB_CALLBACK_EVENT_HANDLER((USB_EVENT)EVEN
      +                          T_SET_DESCRIPTOR,0,0);
  3937   0013B4  0E00               	movlw	0
  3938   0013B6  6E10               	movwf	(USER_USB_CALLBACK_EVENT_HANDLER@event+1)^0,c
  3939   0013B8  0E02               	movlw	2
  3940   0013BA  6E0F               	movwf	USER_USB_CALLBACK_EVENT_HANDLER@event^0,c
  3941   0013BC  0E00               	movlw	0
  3942   0013BE  6E11               	movwf	USER_USB_CALLBACK_EVENT_HANDLER@pdata^0,c
  3943   0013C0  0E00               	movlw	0
  3944   0013C2  6E12               	movwf	(USER_USB_CALLBACK_EVENT_HANDLER@pdata+1)^0,c
  3945   0013C4  0E00               	movlw	0
  3946   0013C6  6E14               	movwf	(USER_USB_CALLBACK_EVENT_HANDLER@size+1)^0,c
  3947   0013C8  0E00               	movlw	0
  3948   0013CA  6E13               	movwf	USER_USB_CALLBACK_EVENT_HANDLER@size^0,c
  3949   0013CC  EC97  F00E         	call	_USER_USB_CALLBACK_EVENT_HANDLER	;wreg free
  3950                           
  3951                           ;usb/src/usb_device.c: 2735:             break;
  3952   0013D0  EF23  F00A         	goto	i2l470
  3953   0013D4                     i2l3227:
  3954                           
  3955                           ; BSR set to: 2
  3956   0013D4  5121               	movf	33,w,b	;volatile
  3957   0013D6  6E1E               	movwf	??_USBCheckStdRequest^0,c
  3958   0013D8  6A1F               	clrf	(??_USBCheckStdRequest+1)^0,c
  3959                           
  3960                           ; Switch on 2 bytes has been partitioned into a top level switch of size 1, and 1 sub-sw
      +                          itches
  3961                           ; Switch size 1, requested type "simple"
  3962                           ; Number of cases is 1, Range of values is 0 to 0
  3963                           ; switch strategies available:
  3964                           ; Name         Instructions Cycles
  3965                           ; simple_byte            4     3 (average)
  3966                           ;	Chosen strategy is simple_byte
  3967   0013DA  501F               	movf	(??_USBCheckStdRequest+1)^0,w,c
  3968   0013DC  0A00               	xorlw	0	; case 0
  3969   0013DE  B4D8               	btfsc	status,2,c
  3970   0013E0  EFF4  F009         	goto	i2l4399
  3971   0013E4  EF23  F00A         	goto	i2l470
  3972   0013E8                     i2l4399:
  3973                           
  3974                           ; BSR set to: 2
  3975                           ; Switch size 1, requested type "simple"
  3976                           ; Number of cases is 11, Range of values is 0 to 12
  3977                           ; switch strategies available:
  3978                           ; Name         Instructions Cycles
  3979                           ; simple_byte           34    18 (average)
  3980                           ;	Chosen strategy is simple_byte
  3981   0013E8  501E               	movf	??_USBCheckStdRequest^0,w,c
  3982   0013EA  0A00               	xorlw	0	; case 0
  3983   0013EC  B4D8               	btfsc	status,2,c
  3984   0013EE  EFBA  F009         	goto	i2l3209
  3985   0013F2  0A01               	xorlw	1	; case 1
  3986   0013F4  B4D8               	btfsc	status,2,c
  3987   0013F6  EFBE  F009         	goto	i2l3211
  3988   0013FA  0A02               	xorlw	2	; case 3
  3989   0013FC  B4D8               	btfsc	status,2,c
  3990   0013FE  EFBE  F009         	goto	i2l3211
  3991   001402  0A06               	xorlw	6	; case 5
  3992   001404  B4D8               	btfsc	status,2,c
  3993   001406  EFA2  F009         	goto	i2l472
  3994   00140A  0A03               	xorlw	3	; case 6
  3995   00140C  B4D8               	btfsc	status,2,c
  3996   00140E  EFA8  F009         	goto	i2l3197
  3997   001412  0A01               	xorlw	1	; case 7
  3998   001414  B4D8               	btfsc	status,2,c
  3999   001416  EFDA  F009         	goto	i2l3223
  4000   00141A  0A0F               	xorlw	15	; case 8
  4001   00141C  B4D8               	btfsc	status,2,c
  4002   00141E  EFB0  F009         	goto	i2l3201
  4003   001422  0A01               	xorlw	1	; case 9
  4004   001424  B4D8               	btfsc	status,2,c
  4005   001426  EFAC  F009         	goto	i2l3199
  4006   00142A  0A03               	xorlw	3	; case 10
  4007   00142C  B4D8               	btfsc	status,2,c
  4008   00142E  EFC2  F009         	goto	i2l3213
  4009   001432  0A01               	xorlw	1	; case 11
  4010   001434  B4D8               	btfsc	status,2,c
  4011   001436  EFCF  F009         	goto	i2l481
  4012   00143A  0A07               	xorlw	7	; case 12
  4013   00143C  B4D8               	btfsc	status,2,c
  4014   00143E  EF23  F00A         	goto	i2l470
  4015   001442  EF23  F00A         	goto	i2l470
  4016   001446                     i2l470:
  4017   001446  0012               	return		;funcret
  4018   001448                     __end_of_USBCheckStdRequest:
  4019                           	callstack 0
  4020                           
  4021 ;; *************** function _USBStdSetCfgHandler *****************
  4022 ;; Defined at:
  4023 ;;		line 1972 in file "usb/src/usb_device.c"
  4024 ;; Parameters:    Size  Location     Type
  4025 ;;		None
  4026 ;; Auto vars:     Size  Location     Type
  4027 ;;  i               1   22[COMRAM] unsigned char 
  4028 ;; Return value:  Size  Location     Type
  4029 ;;                  1    wreg      void 
  4030 ;; Registers used:
  4031 ;;		wreg, fsr2l, fsr2h, status,2, status,0, prodl, prodh, cstack
  4032 ;; Tracked objects:
  4033 ;;		On entry : 0/0
  4034 ;;		On exit  : 0/0
  4035 ;;		Unchanged: 0/0
  4036 ;; Data sizes:     COMRAM   BANK0   BANK1  BANK2h  BANK2l
  4037 ;;      Params:         0       0       0       0       0
  4038 ;;      Locals:         1       0       0       0       0
  4039 ;;      Temps:          0       0       0       0       0
  4040 ;;      Totals:         1       0       0       0       0
  4041 ;;Total ram usage:        1 bytes
  4042 ;; Hardware stack levels used: 1
  4043 ;; Hardware stack levels required when called: 4
  4044 ;; This function calls:
  4045 ;;		_USER_USB_CALLBACK_EVENT_HANDLER
  4046 ;;		i2_memset
  4047 ;; This function is called by:
  4048 ;;		_USBCheckStdRequest
  4049 ;; This function uses a non-reentrant model
  4050 ;;
  4051                           
  4052                           	psect	text23
  4053   001866                     __ptext23:
  4054                           	callstack 0
  4055   001866                     _USBStdSetCfgHandler:
  4056                           	callstack 19
  4057   001866                     
  4058                           ;usb/src/usb_device.c: 1974:     uint8_t i;;usb/src/usb_device.c: 1977:     inPipes[0].i
      +                          nfo.bits.busy = 1;
  4059   001866  0100               	movlb	0	; () banked
  4060   001868  8F6B               	bsf	(_inPipes+3)& (0+255),7,b	;volatile
  4061   00186A                     
  4062                           ; BSR set to: 0
  4063                           ;usb/src/usb_device.c: 1980:     memset((void*)&UEP1,0x00,(1));;
  4064   00186A  0E54               	movlw	84
  4065   00186C  6E01               	movwf	i2memset@dest^0,c
  4066   00186E  0E0F               	movlw	15
  4067   001870  6E02               	movwf	(i2memset@dest+1)^0,c
  4068   001872  0E00               	movlw	0
  4069   001874  6E04               	movwf	(i2memset@c+1)^0,c
  4070   001876  0E00               	movlw	0
  4071   001878  6E03               	movwf	i2memset@c^0,c
  4072   00187A  0E00               	movlw	0
  4073   00187C  6E06               	movwf	(i2memset@n+1)^0,c
  4074   00187E  0E01               	movlw	1
  4075   001880  6E05               	movwf	i2memset@n^0,c
  4076   001882  EC3C  F010         	call	i2_memset	;wreg free
  4077                           
  4078                           ;usb/src/usb_device.c: 1983:     memset((void*)&BDT[0], 0x00, sizeof(BDT));
  4079   001886  0E00               	movlw	0
  4080   001888  6E01               	movwf	i2memset@dest^0,c
  4081   00188A  0E02               	movlw	2
  4082   00188C  6E02               	movwf	(i2memset@dest+1)^0,c
  4083   00188E  0E00               	movlw	0
  4084   001890  6E04               	movwf	(i2memset@c+1)^0,c
  4085   001892  0E00               	movlw	0
  4086   001894  6E03               	movwf	i2memset@c^0,c
  4087   001896  0E00               	movlw	0
  4088   001898  6E06               	movwf	(i2memset@n+1)^0,c
  4089   00189A  0E20               	movlw	32
  4090   00189C  6E05               	movwf	i2memset@n^0,c
  4091   00189E  EC3C  F010         	call	i2_memset	;wreg free
  4092   0018A2                     
  4093                           ;usb/src/usb_device.c: 1986:     UCONbits.PPBRST = 1;
  4094   0018A2  8C64               	bsf	100,6,c	;volatile
  4095   0018A4                     
  4096                           ;usb/src/usb_device.c: 1991:  for(i = 0; i < (uint8_t)(1 +1u); i++)
  4097   0018A4  0E00               	movlw	0
  4098   0018A6  6E17               	movwf	USBStdSetCfgHandler@i^0,c
  4099   0018A8                     i2l2915:
  4100                           
  4101                           ;usb/src/usb_device.c: 1992:  {;usb/src/usb_device.c: 1993:   ep_data_in[i].Val = 0u;
  4102   0018A8  5017               	movf	USBStdSetCfgHandler@i^0,w,c
  4103   0018AA  0F78               	addlw	low _ep_data_in
  4104   0018AC  6ED9               	movwf	fsr2l,c
  4105   0018AE  6ADA               	clrf	fsr2h,c
  4106   0018B0  6ADF               	clrf	indf2,c
  4107                           
  4108                           ;usb/src/usb_device.c: 1994:         ep_data_out[i].Val = 0u;
  4109   0018B2  5017               	movf	USBStdSetCfgHandler@i^0,w,c
  4110   0018B4  0F76               	addlw	low _ep_data_out
  4111   0018B6  6ED9               	movwf	fsr2l,c
  4112   0018B8  6ADA               	clrf	fsr2h,c
  4113   0018BA  6ADF               	clrf	indf2,c
  4114   0018BC                     
  4115                           ;usb/src/usb_device.c: 1995:  }
  4116   0018BC  2A17               	incf	USBStdSetCfgHandler@i^0,f,c
  4117   0018BE  0E01               	movlw	1
  4118   0018C0  6417               	cpfsgt	USBStdSetCfgHandler@i^0,c
  4119   0018C2  EF65  F00C         	goto	i2u168_41
  4120   0018C6  EF67  F00C         	goto	i2u168_40
  4121   0018CA                     i2u168_41:
  4122   0018CA  EF54  F00C         	goto	i2l2915
  4123   0018CE                     i2u168_40:
  4124   0018CE                     
  4125                           ;usb/src/usb_device.c: 1998:     memset((void*)&USBAlternateInterface,0x00,1);
  4126   0018CE  0E4B               	movlw	low _USBAlternateInterface
  4127   0018D0  6E01               	movwf	i2memset@dest^0,c
  4128   0018D2  6A02               	clrf	(i2memset@dest+1)^0,c
  4129   0018D4  0E00               	movlw	0
  4130   0018D6  6E04               	movwf	(i2memset@c+1)^0,c
  4131   0018D8  0E00               	movlw	0
  4132   0018DA  6E03               	movwf	i2memset@c^0,c
  4133   0018DC  0E00               	movlw	0
  4134   0018DE  6E06               	movwf	(i2memset@n+1)^0,c
  4135   0018E0  0E01               	movlw	1
  4136   0018E2  6E05               	movwf	i2memset@n^0,c
  4137   0018E4  EC3C  F010         	call	i2_memset	;wreg free
  4138   0018E8                     
  4139                           ;usb/src/usb_device.c: 2001:     UCONbits.PPBRST = 0;
  4140   0018E8  9C64               	bcf	100,6,c	;volatile
  4141   0018EA                     
  4142                           ;usb/src/usb_device.c: 2003:     pBDTEntryIn[0] = (volatile BDT_ENTRY*)&BDT[2];
  4143   0018EA  0E08               	movlw	8
  4144   0018EC  0100               	movlb	0	; () banked
  4145   0018EE  6F6E               	movwf	_pBDTEntryIn& (0+255),b
  4146   0018F0  0E02               	movlw	2
  4147   0018F2  6F6F               	movwf	(_pBDTEntryIn+1)& (0+255),b
  4148   0018F4                     
  4149                           ; BSR set to: 0
  4150                           ;usb/src/usb_device.c: 2006:     pBDTEntryEP0OutCurrent = (volatile BDT_ENTRY*)&BDT[0];
  4151   0018F4  0E00               	movlw	0
  4152   0018F6  6E34               	movwf	_pBDTEntryEP0OutCurrent^0,c
  4153   0018F8  0E02               	movlw	2
  4154   0018FA  6E35               	movwf	(_pBDTEntryEP0OutCurrent+1)^0,c
  4155   0018FC                     
  4156                           ; BSR set to: 0
  4157                           ;usb/src/usb_device.c: 2007:     pBDTEntryEP0OutNext = pBDTEntryEP0OutCurrent;
  4158   0018FC  C034  F032         	movff	_pBDTEntryEP0OutCurrent,_pBDTEntryEP0OutNext
  4159   001900  C035  F033         	movff	_pBDTEntryEP0OutCurrent+1,_pBDTEntryEP0OutNext+1
  4160   001904                     
  4161                           ; BSR set to: 0
  4162                           ;usb/src/usb_device.c: 2010:     USBActiveConfiguration = SetupPkt.bConfigurationValue;
  4163   001904  C222 F04C          	movff	546,_USBActiveConfiguration	;volatile
  4164   001908                     
  4165                           ; BSR set to: 0
  4166                           ;usb/src/usb_device.c: 2013:     if(USBActiveConfiguration == 0)
  4167   001908  504C               	movf	_USBActiveConfiguration^0,w,c	;volatile
  4168   00190A  A4D8               	btfss	status,2,c
  4169   00190C  EF8A  F00C         	goto	i2u169_41
  4170   001910  EF8C  F00C         	goto	i2u169_40
  4171   001914                     i2u169_41:
  4172   001914  EF90  F00C         	goto	i2l2937
  4173   001918                     i2u169_40:
  4174   001918                     
  4175                           ; BSR set to: 0
  4176                           ;usb/src/usb_device.c: 2014:     {;usb/src/usb_device.c: 2016:         USBDeviceState = 
      +                          ADDRESS_STATE;
  4177   001918  0E10               	movlw	16
  4178   00191A  6E47               	movwf	_USBDeviceState^0,c	;volatile
  4179                           
  4180                           ;usb/src/usb_device.c: 2017:     }
  4181   00191C  EF9F  F00C         	goto	i2l391
  4182   001920                     i2l2937:
  4183                           
  4184                           ; BSR set to: 0
  4185                           ;usb/src/usb_device.c: 2019:     {;usb/src/usb_device.c: 2021:         USER_USB_CALLBACK
      +                          _EVENT_HANDLER((USB_EVENT)EVENT_CONFIGURED,(void*)&USBActiveConfiguration,1);
  4186   001920  0E00               	movlw	0
  4187   001922  6E10               	movwf	(USER_USB_CALLBACK_EVENT_HANDLER@event+1)^0,c
  4188   001924  0E01               	movlw	1
  4189   001926  6E0F               	movwf	USER_USB_CALLBACK_EVENT_HANDLER@event^0,c
  4190   001928  0E4C               	movlw	low _USBActiveConfiguration
  4191   00192A  6E11               	movwf	USER_USB_CALLBACK_EVENT_HANDLER@pdata^0,c
  4192   00192C  6A12               	clrf	(USER_USB_CALLBACK_EVENT_HANDLER@pdata+1)^0,c
  4193   00192E  0E00               	movlw	0
  4194   001930  6E14               	movwf	(USER_USB_CALLBACK_EVENT_HANDLER@size+1)^0,c
  4195   001932  0E01               	movlw	1
  4196   001934  6E13               	movwf	USER_USB_CALLBACK_EVENT_HANDLER@size^0,c
  4197   001936  EC97  F00E         	call	_USER_USB_CALLBACK_EVENT_HANDLER	;wreg free
  4198   00193A                     
  4199                           ;usb/src/usb_device.c: 2026:         USBDeviceState = CONFIGURED_STATE;
  4200   00193A  0E20               	movlw	32
  4201   00193C  6E47               	movwf	_USBDeviceState^0,c	;volatile
  4202   00193E                     i2l391:
  4203   00193E  0012               	return		;funcret
  4204   001940                     __end_of_USBStdSetCfgHandler:
  4205                           	callstack 0
  4206                           
  4207 ;; *************** function i2_memset *****************
  4208 ;; Defined at:
  4209 ;;		line 3 in file "C:\Program Files\Microchip\xc8\v2.45\pic\sources\c99\common\memset.c"
  4210 ;; Parameters:    Size  Location     Type
  4211 ;;  dest            2    0[COMRAM] PTR void 
  4212 ;;		 -> USBAlternateInterface(1), BDT(32), UEP1(1), 
  4213 ;;  c               2    2[COMRAM] int 
  4214 ;;  n               2    4[COMRAM] unsigned int 
  4215 ;; Auto vars:     Size  Location     Type
  4216 ;;  p               2    6[COMRAM] PTR unsigned char 
  4217 ;;		 -> USBAlternateInterface(1), BDT(32), UEP1(1), 
  4218 ;; Return value:  Size  Location     Type
  4219 ;;                  2    0[COMRAM] PTR void 
  4220 ;; Registers used:
  4221 ;;		wreg, fsr2l, fsr2h, status,2, status,0
  4222 ;; Tracked objects:
  4223 ;;		On entry : 0/0
  4224 ;;		On exit  : 0/0
  4225 ;;		Unchanged: 0/0
  4226 ;; Data sizes:     COMRAM   BANK0   BANK1  BANK2h  BANK2l
  4227 ;;      Params:         6       0       0       0       0
  4228 ;;      Locals:         2       0       0       0       0
  4229 ;;      Temps:          0       0       0       0       0
  4230 ;;      Totals:         8       0       0       0       0
  4231 ;;Total ram usage:        8 bytes
  4232 ;; Hardware stack levels used: 1
  4233 ;; This function calls:
  4234 ;;		Nothing
  4235 ;; This function is called by:
  4236 ;;		_USBStdSetCfgHandler
  4237 ;;		i2_USBDeviceInit
  4238 ;; This function uses a non-reentrant model
  4239 ;;
  4240                           
  4241                           	psect	text24
  4242   002078                     __ptext24:
  4243                           	callstack 0
  4244   002078                     i2_memset:
  4245                           	callstack 25
  4246   002078  C001  F007         	movff	i2memset@dest,i2memset@p
  4247   00207C  C002  F008         	movff	i2memset@dest+1,i2memset@p+1
  4248   002080  EF4A  F010         	goto	i2l2845
  4249   002084                     i2l2841:
  4250   002084  C007  FFD9         	movff	i2memset@p,fsr2l
  4251   002088  C008  FFDA         	movff	i2memset@p+1,fsr2h
  4252   00208C  C003  FFDF         	movff	i2memset@c,indf2
  4253   002090  4A07               	infsnz	i2memset@p^0,f,c
  4254   002092  2A08               	incf	(i2memset@p+1)^0,f,c
  4255   002094                     i2l2845:
  4256   002094  0605               	decf	i2memset@n^0,f,c
  4257   002096  A0D8               	btfss	status,0,c
  4258   002098  0606               	decf	(i2memset@n+1)^0,f,c
  4259   00209A  2805               	incf	i2memset@n^0,w,c
  4260   00209C  E106               	bnz	i2u161_41
  4261   00209E  2806               	incf	(i2memset@n+1)^0,w,c
  4262   0020A0  A4D8               	btfss	status,2,c
  4263   0020A2  EF55  F010         	goto	i2u161_41
  4264   0020A6  EF57  F010         	goto	i2u161_40
  4265   0020AA                     i2u161_41:
  4266   0020AA  EF42  F010         	goto	i2l2841
  4267   0020AE                     i2u161_40:
  4268   0020AE  0012               	return		;funcret
  4269   0020B0                     __end_ofi2_memset:
  4270                           	callstack 0
  4271                           
  4272 ;; *************** function _USBStdGetStatusHandler *****************
  4273 ;; Defined at:
  4274 ;;		line 2133 in file "usb/src/usb_device.c"
  4275 ;; Parameters:    Size  Location     Type
  4276 ;;		None
  4277 ;; Auto vars:     Size  Location     Type
  4278 ;;  p               2    2[COMRAM] PTR struct __BDT
  4279 ;;		 -> RAM(767), BDT(32), NULL(0), 
  4280 ;; Return value:  Size  Location     Type
  4281 ;;                  1    wreg      void 
  4282 ;; Registers used:
  4283 ;;		wreg, fsr2l, fsr2h, status,2, status,0, prodl, prodh
  4284 ;; Tracked objects:
  4285 ;;		On entry : 0/0
  4286 ;;		On exit  : 0/0
  4287 ;;		Unchanged: 0/0
  4288 ;; Data sizes:     COMRAM   BANK0   BANK1  BANK2h  BANK2l
  4289 ;;      Params:         0       0       0       0       0
  4290 ;;      Locals:         2       0       0       0       0
  4291 ;;      Temps:          2       0       0       0       0
  4292 ;;      Totals:         4       0       0       0       0
  4293 ;;Total ram usage:        4 bytes
  4294 ;; Hardware stack levels used: 1
  4295 ;; This function calls:
  4296 ;;		Nothing
  4297 ;; This function is called by:
  4298 ;;		_USBCheckStdRequest
  4299 ;; This function uses a non-reentrant model
  4300 ;;
  4301                           
  4302                           	psect	text25
  4303   001448                     __ptext25:
  4304                           	callstack 0
  4305   001448                     _USBStdGetStatusHandler:
  4306                           	callstack 23
  4307   001448                     
  4308                           ;usb/src/usb_device.c: 2135:     CtrlTrfData[0] = 0;
  4309   001448  0E00               	movlw	0
  4310   00144A  0102               	movlb	2	; () banked
  4311   00144C  6F28               	movwf	40,b	;volatile
  4312                           
  4313                           ;usb/src/usb_device.c: 2136:     CtrlTrfData[1] = 0;
  4314   00144E  0E00               	movlw	0
  4315   001450  6F29               	movwf	41,b	;volatile
  4316                           
  4317                           ;usb/src/usb_device.c: 2138:     switch(SetupPkt.Recipient)
  4318   001452  EF83  F00A         	goto	i2l3001
  4319   001456                     i2l409:
  4320                           
  4321                           ; BSR set to: 2
  4322                           ;usb/src/usb_device.c: 2141:             inPipes[0].info.bits.busy = 1;
  4323   001456  0100               	movlb	0	; () banked
  4324   001458  8F6B               	bsf	(_inPipes+3)& (0+255),7,b	;volatile
  4325   00145A                     
  4326                           ; BSR set to: 0
  4327                           ;usb/src/usb_device.c: 2151:             if(RemoteWakeup == 1)
  4328   00145A  0444               	decf	_RemoteWakeup^0,w,c	;volatile
  4329   00145C  A4D8               	btfss	status,2,c
  4330   00145E  EF33  F00A         	goto	i2u176_41
  4331   001462  EF35  F00A         	goto	i2u176_40
  4332   001466                     i2u176_41:
  4333   001466  EF9D  F00A         	goto	i2l412
  4334   00146A                     i2u176_40:
  4335   00146A                     
  4336                           ; BSR set to: 0
  4337                           ;usb/src/usb_device.c: 2152:             {;usb/src/usb_device.c: 2153:                 C
      +                          trlTrfData[0]|=0x02;
  4338   00146A  0102               	movlb	2	; () banked
  4339   00146C  8328               	bsf	40,1,b	;volatile
  4340   00146E  EF9D  F00A         	goto	i2l412
  4341   001472                     i2l413:
  4342                           
  4343                           ; BSR set to: 2
  4344                           ;usb/src/usb_device.c: 2157:             inPipes[0].info.bits.busy = 1;
  4345   001472  0100               	movlb	0	; () banked
  4346   001474  8F6B               	bsf	(_inPipes+3)& (0+255),7,b	;volatile
  4347                           
  4348                           ;usb/src/usb_device.c: 2158:             break;
  4349   001476  EF9D  F00A         	goto	i2l412
  4350   00147A                     i2l414:
  4351                           
  4352                           ; BSR set to: 2
  4353                           ;usb/src/usb_device.c: 2160:             inPipes[0].info.bits.busy = 1;
  4354   00147A  0100               	movlb	0	; () banked
  4355   00147C  8F6B               	bsf	(_inPipes+3)& (0+255),7,b	;volatile
  4356   00147E                     
  4357                           ; BSR set to: 0
  4358                           ;usb/src/usb_device.c: 2164:             if(SetupPkt.EPNum != 0)
  4359   00147E  0102               	movlb	2	; () banked
  4360   001480  5124               	movf	36,w,b	;volatile
  4361   001482  0B0F               	andlw	15
  4362   001484  0900               	iorlw	0
  4363   001486  B4D8               	btfsc	status,2,c
  4364   001488  EF48  F00A         	goto	i2u177_41
  4365   00148C  EF4A  F00A         	goto	i2u177_40
  4366   001490                     i2u177_41:
  4367   001490  EF9D  F00A         	goto	i2l412
  4368   001494                     i2u177_40:
  4369   001494                     
  4370                           ; BSR set to: 2
  4371                           ;usb/src/usb_device.c: 2165:             {;usb/src/usb_device.c: 2166:                 B
      +                          DT_ENTRY *p;;usb/src/usb_device.c: 2168:                 if(SetupPkt.EPDir == 0)
  4372   001494  BF24               	btfsc	36,7,b	;volatile
  4373   001496  EF4F  F00A         	goto	i2u178_41
  4374   00149A  EF51  F00A         	goto	i2u178_40
  4375   00149E                     i2u178_41:
  4376   00149E  EF5E  F00A         	goto	i2l2991
  4377   0014A2                     i2u178_40:
  4378   0014A2                     
  4379                           ; BSR set to: 2
  4380                           ;usb/src/usb_device.c: 2169:                 {;usb/src/usb_device.c: 2170:              
      +                                 p = (BDT_ENTRY*)pBDTEntryOut[SetupPkt.EPNum];
  4381   0014A2  5124               	movf	36,w,b	;volatile
  4382   0014A4  0B0F               	andlw	15
  4383   0014A6  0D02               	mullw	2
  4384   0014A8  50F3               	movf	243,w,c
  4385   0014AA  0F72               	addlw	low _pBDTEntryOut
  4386   0014AC  6ED9               	movwf	fsr2l,c
  4387   0014AE  6ADA               	clrf	fsr2h,c
  4388   0014B0  CFDE F003          	movff	postinc2,USBStdGetStatusHandler@p
  4389   0014B4  CFDD F004          	movff	postdec2,USBStdGetStatusHandler@p+1
  4390                           
  4391                           ;usb/src/usb_device.c: 2171:                 }
  4392   0014B8  EF69  F00A         	goto	i2l2993
  4393   0014BC                     i2l2991:
  4394                           
  4395                           ; BSR set to: 2
  4396                           ;usb/src/usb_device.c: 2173:                 {;usb/src/usb_device.c: 2174:              
      +                                 p = (BDT_ENTRY*)pBDTEntryIn[SetupPkt.EPNum];
  4397   0014BC  5124               	movf	36,w,b	;volatile
  4398   0014BE  0B0F               	andlw	15
  4399   0014C0  0D02               	mullw	2
  4400   0014C2  50F3               	movf	243,w,c
  4401   0014C4  0F6E               	addlw	low _pBDTEntryIn
  4402   0014C6  6ED9               	movwf	fsr2l,c
  4403   0014C8  6ADA               	clrf	fsr2h,c
  4404   0014CA  CFDE F003          	movff	postinc2,USBStdGetStatusHandler@p
  4405   0014CE  CFDD F004          	movff	postdec2,USBStdGetStatusHandler@p+1
  4406   0014D2                     i2l2993:
  4407                           
  4408                           ; BSR set to: 2
  4409                           ;usb/src/usb_device.c: 2177:                 if((p->STAT.UOWN == 1) && (p->STAT.BSTALL =
      +                          = 1))
  4410   0014D2  C003  FFD9         	movff	USBStdGetStatusHandler@p,fsr2l
  4411   0014D6  C004  FFDA         	movff	USBStdGetStatusHandler@p+1,fsr2h
  4412   0014DA  AEDF               	btfss	indf2,7,c
  4413   0014DC  EF72  F00A         	goto	i2u179_41
  4414   0014E0  EF74  F00A         	goto	i2u179_40
  4415   0014E4                     i2u179_41:
  4416   0014E4  EF9D  F00A         	goto	i2l412
  4417   0014E8                     i2u179_40:
  4418   0014E8                     
  4419                           ; BSR set to: 2
  4420   0014E8  C003  FFD9         	movff	USBStdGetStatusHandler@p,fsr2l
  4421   0014EC  C004  FFDA         	movff	USBStdGetStatusHandler@p+1,fsr2h
  4422   0014F0  A4DF               	btfss	indf2,2,c
  4423   0014F2  EF7D  F00A         	goto	i2u180_41
  4424   0014F6  EF7F  F00A         	goto	i2u180_40
  4425   0014FA                     i2u180_41:
  4426   0014FA  EF9D  F00A         	goto	i2l412
  4427   0014FE                     i2u180_40:
  4428   0014FE                     
  4429                           ; BSR set to: 2
  4430                           ;usb/src/usb_device.c: 2178:                 {;usb/src/usb_device.c: 2179:              
      +                                 CtrlTrfData[0]=0x01;
  4431   0014FE  0E01               	movlw	1
  4432   001500  6F28               	movwf	40,b	;volatile
  4433   001502  EF9D  F00A         	goto	i2l412
  4434   001506                     i2l3001:
  4435                           
  4436                           ; BSR set to: 2
  4437   001506  5120               	movf	32,w,b	;volatile
  4438   001508  0B1F               	andlw	31
  4439   00150A  6E01               	movwf	??_USBStdGetStatusHandler^0,c
  4440   00150C  6A02               	clrf	(??_USBStdGetStatusHandler+1)^0,c
  4441                           
  4442                           ; Switch on 2 bytes has been partitioned into a top level switch of size 1, and 1 sub-sw
      +                          itches
  4443                           ; Switch size 1, requested type "simple"
  4444                           ; Number of cases is 1, Range of values is 0 to 0
  4445                           ; switch strategies available:
  4446                           ; Name         Instructions Cycles
  4447                           ; simple_byte            4     3 (average)
  4448                           ;	Chosen strategy is simple_byte
  4449   00150E  5002               	movf	(??_USBStdGetStatusHandler+1)^0,w,c
  4450   001510  0A00               	xorlw	0	; case 0
  4451   001512  B4D8               	btfsc	status,2,c
  4452   001514  EF8E  F00A         	goto	i2l4401
  4453   001518  EF9D  F00A         	goto	i2l412
  4454   00151C                     i2l4401:
  4455                           
  4456                           ; BSR set to: 2
  4457                           ; Switch size 1, requested type "simple"
  4458                           ; Number of cases is 3, Range of values is 0 to 2
  4459                           ; switch strategies available:
  4460                           ; Name         Instructions Cycles
  4461                           ; simple_byte           10     6 (average)
  4462                           ;	Chosen strategy is simple_byte
  4463   00151C  5001               	movf	??_USBStdGetStatusHandler^0,w,c
  4464   00151E  0A00               	xorlw	0	; case 0
  4465   001520  B4D8               	btfsc	status,2,c
  4466   001522  EF2B  F00A         	goto	i2l409
  4467   001526  0A01               	xorlw	1	; case 1
  4468   001528  B4D8               	btfsc	status,2,c
  4469   00152A  EF39  F00A         	goto	i2l413
  4470   00152E  0A03               	xorlw	3	; case 2
  4471   001530  B4D8               	btfsc	status,2,c
  4472   001532  EF3D  F00A         	goto	i2l414
  4473   001536  EF9D  F00A         	goto	i2l412
  4474   00153A                     i2l412:
  4475                           
  4476                           ;usb/src/usb_device.c: 2185:     if(inPipes[0].info.bits.busy == 1)
  4477   00153A  0100               	movlb	0	; () banked
  4478   00153C  AF6B               	btfss	(_inPipes+3)& (0+255),7,b	;volatile
  4479   00153E  EFA3  F00A         	goto	i2u181_41
  4480   001542  EFA5  F00A         	goto	i2u181_40
  4481   001546                     i2u181_41:
  4482   001546  EFAC  F00A         	goto	i2l420
  4483   00154A                     i2u181_40:
  4484   00154A                     
  4485                           ; BSR set to: 0
  4486                           ;usb/src/usb_device.c: 2186:     {;usb/src/usb_device.c: 2187:         inPipes[0].pSrc.b
      +                          Ram = (uint8_t*)&CtrlTrfData;
  4487   00154A  0E28               	movlw	40
  4488   00154C  6F68               	movwf	_inPipes& (0+255),b	;volatile
  4489   00154E  0E02               	movlw	2
  4490   001550  6F69               	movwf	(_inPipes+1)& (0+255),b	;volatile
  4491   001552                     
  4492                           ; BSR set to: 0
  4493                           ;usb/src/usb_device.c: 2188:         inPipes[0].info.bits.ctrl_trf_mem = 0x01;
  4494   001552  816B               	bsf	(_inPipes+3)& (0+255),0,b	;volatile
  4495   001554                     
  4496                           ; BSR set to: 0
  4497                           ;usb/src/usb_device.c: 2189:         inPipes[0].wCount.v[0] = 2;
  4498   001554  0E02               	movlw	2
  4499   001556  6F6C               	movwf	(_inPipes+4)& (0+255),b	;volatile
  4500   001558                     i2l420:
  4501                           
  4502                           ; BSR set to: 0
  4503   001558  0012               	return		;funcret
  4504   00155A                     __end_of_USBStdGetStatusHandler:
  4505                           	callstack 0
  4506                           
  4507 ;; *************** function _USBStdGetDscHandler *****************
  4508 ;; Defined at:
  4509 ;;		line 2047 in file "usb/src/usb_device.c"
  4510 ;; Parameters:    Size  Location     Type
  4511 ;;		None
  4512 ;; Auto vars:     Size  Location     Type
  4513 ;;		None
  4514 ;; Return value:  Size  Location     Type
  4515 ;;                  1    wreg      void 
  4516 ;; Registers used:
  4517 ;;		wreg, fsr1l, fsr1h, status,2, status,0, tblptrl, tblptrh, tblptru
  4518 ;; Tracked objects:
  4519 ;;		On entry : 0/0
  4520 ;;		On exit  : 0/0
  4521 ;;		Unchanged: 0/0
  4522 ;; Data sizes:     COMRAM   BANK0   BANK1  BANK2h  BANK2l
  4523 ;;      Params:         0       0       0       0       0
  4524 ;;      Locals:         0       0       0       0       0
  4525 ;;      Temps:          2       0       0       0       0
  4526 ;;      Totals:         2       0       0       0       0
  4527 ;;Total ram usage:        2 bytes
  4528 ;; Hardware stack levels used: 1
  4529 ;; This function calls:
  4530 ;;		Nothing
  4531 ;; This function is called by:
  4532 ;;		_USBCheckStdRequest
  4533 ;; This function uses a non-reentrant model
  4534 ;;
  4535                           
  4536                           	psect	text26
  4537   000A72                     __ptext26:
  4538                           	callstack 0
  4539   000A72                     _USBStdGetDscHandler:
  4540                           	callstack 23
  4541   000A72                     
  4542                           ;usb/src/usb_device.c: 2049:     if(SetupPkt.bmRequestType == 0x80)
  4543   000A72  0E80               	movlw	128
  4544   000A74  0102               	movlb	2	; () banked
  4545   000A76  1920               	xorwf	32,w,b	;volatile
  4546   000A78  A4D8               	btfss	status,2,c
  4547   000A7A  EF41  F005         	goto	i2u170_41
  4548   000A7E  EF43  F005         	goto	i2u170_40
  4549   000A82                     i2u170_41:
  4550   000A82  EFF1  F005         	goto	i2l405
  4551   000A86                     i2u170_40:
  4552   000A86                     
  4553                           ; BSR set to: 2
  4554                           ;usb/src/usb_device.c: 2050:     {;usb/src/usb_device.c: 2051:         inPipes[0].info.V
      +                          al = 0x00 | 0x80 | 0x40;
  4555   000A86  0EC0               	movlw	192
  4556   000A88  0100               	movlb	0	; () banked
  4557   000A8A  6F6B               	movwf	(_inPipes+3)& (0+255),b	;volatile
  4558                           
  4559                           ;usb/src/usb_device.c: 2053:         switch(SetupPkt.bDescriptorType)
  4560   000A8C  EFD7  F005         	goto	i2l2971
  4561   000A90                     i2l2945:
  4562                           
  4563                           ; BSR set to: 2
  4564                           ;usb/src/usb_device.c: 2059:                     inPipes[0].pSrc.bRom = (const uint8_t*)
      +                          &device_dsc;
  4565   000A90  0EAD               	movlw	low _device_dsc
  4566   000A92  0100               	movlb	0	; () banked
  4567   000A94  6F68               	movwf	_inPipes& (0+255),b	;volatile
  4568   000A96  5168               	movf	_inPipes& (0+255),w,b	;volatile
  4569   000A98  A4D8               	btfss	status,2,c
  4570   000A9A  0E03               	movlw	high __smallconst
  4571   000A9C  6F69               	movwf	(_inPipes+1)& (0+255),b	;volatile
  4572   000A9E                     
  4573                           ; BSR set to: 0
  4574                           ;usb/src/usb_device.c: 2061:                 inPipes[0].wCount.Val = sizeof(device_dsc);
  4575   000A9E  0E00               	movlw	0
  4576   000AA0  6F6D               	movwf	(_inPipes+5)& (0+255),b	;volatile
  4577   000AA2  0E12               	movlw	18
  4578   000AA4  6F6C               	movwf	(_inPipes+4)& (0+255),b	;volatile
  4579                           
  4580                           ;usb/src/usb_device.c: 2062:                 break;
  4581   000AA6  EFF1  F005         	goto	i2l405
  4582   000AAA                     i2l2949:
  4583                           
  4584                           ; BSR set to: 2
  4585                           ;usb/src/usb_device.c: 2067:                 if(SetupPkt.bDscIndex < 1)
  4586   000AAA  5122               	movf	34,w,b	;volatile
  4587   000AAC  A4D8               	btfss	status,2,c
  4588   000AAE  EF5B  F005         	goto	i2u171_41
  4589   000AB2  EF5D  F005         	goto	i2u171_40
  4590   000AB6                     i2u171_41:
  4591   000AB6  EF9C  F005         	goto	i2l2957
  4592   000ABA                     i2u171_40:
  4593   000ABA                     
  4594                           ; BSR set to: 2
  4595                           ;usb/src/usb_device.c: 2068:                 {;usb/src/usb_device.c: 2072:              
      +                                     inPipes[0].pSrc.bRom = *(USB_CD_Ptr+SetupPkt.bDscIndex);
  4596   000ABA  5122               	movf	34,w,b	;volatile
  4597   000ABC  0F04               	addlw	low _USB_CD_Ptr
  4598   000ABE  6E01               	movwf	??_USBStdGetDscHandler^0,c
  4599   000AC0  C001  FFF6         	movff	??_USBStdGetDscHandler,tblptrl
  4600   000AC4                     	if	1	;There is more than 1 active tblptr byte
  4601   000AC4  0E03               	movlw	high __smallconst
  4602   000AC6  6EF7               	movwf	tblptrh,c
  4603   000AC8                     	endif
  4604   000AC8                     	if	0	;tblptru may be non-zero
  4605   000AC8                     	endif
  4606   000AC8                     	if	0	;tblptru may be non-zero
  4607   000AC8                     	endif
  4608   000AC8  0009               	tblrd		*+
  4609   000ACA  CFF5 F068          	movff	tablat,_inPipes	;volatile
  4610   000ACE  0E03               	movlw	high __smallconst
  4611   000AD0  0100               	movlb	0	; () banked
  4612   000AD2  6F69               	movwf	(_inPipes+1)& (0+255),b	;volatile
  4613   000AD4                     
  4614                           ; BSR set to: 0
  4615                           ;usb/src/usb_device.c: 2078:                     inPipes[0].wCount.byte.LB = *(inPipes[0
      +                          ].pSrc.bRom+2);
  4616   000AD4  0E02               	movlw	2
  4617   000AD6  2568               	addwf	_inPipes& (0+255),w,b	;volatile
  4618   000AD8  6E01               	movwf	??_USBStdGetDscHandler^0,c
  4619   000ADA  0E00               	movlw	0
  4620   000ADC  2169               	addwfc	(_inPipes+1)& (0+255),w,b	;volatile
  4621   000ADE  6E02               	movwf	(??_USBStdGetDscHandler+1)^0,c
  4622   000AE0  C001  FFF6         	movff	??_USBStdGetDscHandler,tblptrl
  4623   000AE4  C002  FFF7         	movff	??_USBStdGetDscHandler+1,tblptrh
  4624   000AE8  6AF8               	clrf	tblptru,c
  4625   000AEA  0E02               	movlw	(high __ramtop+-1)
  4626   000AEC  64F7               	cpfsgt	tblptrh,c
  4627   000AEE  D003               	bra	i2u172_47
  4628   000AF0  0008               	tblrd		*
  4629   000AF2  50F5               	movf	tablat,w,c
  4630   000AF4  D005               	bra	i2u172_40
  4631   000AF6                     i2u172_47:
  4632   000AF6  CFF6 FFE1          	movff	tblptrl,fsr1l
  4633   000AFA  CFF7 FFE2          	movff	tblptrh,fsr1h
  4634   000AFE  50E7               	movf	indf1,w,c
  4635   000B00                     i2u172_40:
  4636   000B00  0100               	movlb	0	; () banked
  4637   000B02  6F6C               	movwf	(_inPipes+4)& (0+255),b	;volatile
  4638   000B04                     
  4639                           ; BSR set to: 0
  4640                           ;usb/src/usb_device.c: 2079:                     inPipes[0].wCount.byte.HB = *(inPipes[0
      +                          ].pSrc.bRom+3);
  4641   000B04  0E03               	movlw	3
  4642   000B06  2568               	addwf	_inPipes& (0+255),w,b	;volatile
  4643   000B08  6E01               	movwf	??_USBStdGetDscHandler^0,c
  4644   000B0A  0E00               	movlw	0
  4645   000B0C  2169               	addwfc	(_inPipes+1)& (0+255),w,b	;volatile
  4646   000B0E  6E02               	movwf	(??_USBStdGetDscHandler+1)^0,c
  4647   000B10  C001  FFF6         	movff	??_USBStdGetDscHandler,tblptrl
  4648   000B14  C002  FFF7         	movff	??_USBStdGetDscHandler+1,tblptrh
  4649   000B18  6AF8               	clrf	tblptru,c
  4650   000B1A  0E02               	movlw	(high __ramtop+-1)
  4651   000B1C  64F7               	cpfsgt	tblptrh,c
  4652   000B1E  D003               	bra	i2u173_47
  4653   000B20  0008               	tblrd		*
  4654   000B22  50F5               	movf	tablat,w,c
  4655   000B24  D005               	bra	i2u173_40
  4656   000B26                     i2u173_47:
  4657   000B26  CFF6 FFE1          	movff	tblptrl,fsr1l
  4658   000B2A  CFF7 FFE2          	movff	tblptrh,fsr1h
  4659   000B2E  50E7               	movf	indf1,w,c
  4660   000B30                     i2u173_40:
  4661   000B30  0100               	movlb	0	; () banked
  4662   000B32  6F6D               	movwf	(_inPipes+5)& (0+255),b	;volatile
  4663                           
  4664                           ;usb/src/usb_device.c: 2080:                 }
  4665   000B34  EFF1  F005         	goto	i2l405
  4666   000B38                     i2l2957:
  4667                           
  4668                           ; BSR set to: 2
  4669                           ;usb/src/usb_device.c: 2082:     {;usb/src/usb_device.c: 2083:      inPipes[0].info.Val 
      +                          = 0;
  4670   000B38  0E00               	movlw	0
  4671   000B3A  0100               	movlb	0	; () banked
  4672   000B3C  6F6B               	movwf	(_inPipes+3)& (0+255),b	;volatile
  4673   000B3E  EFF1  F005         	goto	i2l405
  4674   000B42                     i2l2959:
  4675                           
  4676                           ; BSR set to: 2
  4677                           ;usb/src/usb_device.c: 2090:                 if(SetupPkt.bDscIndex<3)
  4678   000B42  0E03               	movlw	3
  4679   000B44  6122               	cpfslt	34,b	;volatile
  4680   000B46  EFA7  F005         	goto	i2u174_41
  4681   000B4A  EFA9  F005         	goto	i2u174_40
  4682   000B4E                     i2u174_41:
  4683   000B4E  EFCD  F005         	goto	i2l2965
  4684   000B52                     i2u174_40:
  4685   000B52                     
  4686                           ; BSR set to: 2
  4687                           ;usb/src/usb_device.c: 2091:                 {;usb/src/usb_device.c: 2093:              
      +                                 inPipes[0].pSrc.bRom = *(USB_SD_Ptr+SetupPkt.bDscIndex);
  4688   000B52  5122               	movf	34,w,b	;volatile
  4689   000B54  0F01               	addlw	low _USB_SD_Ptr
  4690   000B56  6E01               	movwf	??_USBStdGetDscHandler^0,c
  4691   000B58  C001  FFF6         	movff	??_USBStdGetDscHandler,tblptrl
  4692   000B5C                     	if	1	;There is more than 1 active tblptr byte
  4693   000B5C  0E03               	movlw	high __smallconst
  4694   000B5E  6EF7               	movwf	tblptrh,c
  4695   000B60                     	endif
  4696   000B60                     	if	0	;tblptru may be non-zero
  4697   000B60                     	endif
  4698   000B60                     	if	0	;tblptru may be non-zero
  4699   000B60                     	endif
  4700   000B60  0009               	tblrd		*+
  4701   000B62  CFF5 F068          	movff	tablat,_inPipes	;volatile
  4702   000B66  0E03               	movlw	high __smallconst
  4703   000B68  0100               	movlb	0	; () banked
  4704   000B6A  6F69               	movwf	(_inPipes+1)& (0+255),b	;volatile
  4705   000B6C                     
  4706                           ; BSR set to: 0
  4707                           ;usb/src/usb_device.c: 2095:                     inPipes[0].wCount.Val = *inPipes[0].pSr
      +                          c.bRom;
  4708   000B6C  C068  FFF6         	movff	_inPipes,tblptrl	;volatile
  4709   000B70  C069  FFF7         	movff	_inPipes+1,tblptrh	;volatile
  4710   000B74  6AF8               	clrf	tblptru,c
  4711   000B76  0E02               	movlw	(high __ramtop+-1)
  4712   000B78  64F7               	cpfsgt	tblptrh,c
  4713   000B7A  D003               	bra	i2u175_47
  4714   000B7C  0008               	tblrd		*
  4715   000B7E  50F5               	movf	tablat,w,c
  4716   000B80  D005               	bra	i2u175_40
  4717   000B82                     i2u175_47:
  4718   000B82  CFF6 FFE1          	movff	tblptrl,fsr1l
  4719   000B86  CFF7 FFE2          	movff	tblptrh,fsr1h
  4720   000B8A  50E7               	movf	indf1,w,c
  4721   000B8C                     i2u175_40:
  4722   000B8C  6E01               	movwf	??_USBStdGetDscHandler^0,c
  4723   000B8E  5001               	movf	??_USBStdGetDscHandler^0,w,c
  4724   000B90  0100               	movlb	0	; () banked
  4725   000B92  6F6C               	movwf	(_inPipes+4)& (0+255),b	;volatile
  4726   000B94  6B6D               	clrf	(_inPipes+5)& (0+255),b	;volatile
  4727                           
  4728                           ;usb/src/usb_device.c: 2096:                 }
  4729   000B96  EFF1  F005         	goto	i2l405
  4730   000B9A                     i2l2965:
  4731                           
  4732                           ; BSR set to: 2
  4733                           ;usb/src/usb_device.c: 2107:                 {;usb/src/usb_device.c: 2108:              
      +                                 inPipes[0].info.Val = 0;
  4734   000B9A  0E00               	movlw	0
  4735   000B9C  0100               	movlb	0	; () banked
  4736   000B9E  6F6B               	movwf	(_inPipes+3)& (0+255),b	;volatile
  4737   000BA0  EFF1  F005         	goto	i2l405
  4738   000BA4                     i2l2967:
  4739                           
  4740                           ; BSR set to: 2
  4741                           ;usb/src/usb_device.c: 2112:                 inPipes[0].info.Val = 0;
  4742   000BA4  0E00               	movlw	0
  4743   000BA6  0100               	movlb	0	; () banked
  4744   000BA8  6F6B               	movwf	(_inPipes+3)& (0+255),b	;volatile
  4745                           
  4746                           ;usb/src/usb_device.c: 2113:                 break;
  4747   000BAA  EFF1  F005         	goto	i2l405
  4748   000BAE                     i2l2971:
  4749                           
  4750                           ; BSR set to: 0
  4751   000BAE  0102               	movlb	2	; () banked
  4752   000BB0  5123               	movf	35,w,b	;volatile
  4753   000BB2  6E01               	movwf	??_USBStdGetDscHandler^0,c
  4754   000BB4  6A02               	clrf	(??_USBStdGetDscHandler+1)^0,c
  4755                           
  4756                           ; Switch on 2 bytes has been partitioned into a top level switch of size 1, and 1 sub-sw
      +                          itches
  4757                           ; Switch size 1, requested type "simple"
  4758                           ; Number of cases is 1, Range of values is 0 to 0
  4759                           ; switch strategies available:
  4760                           ; Name         Instructions Cycles
  4761                           ; simple_byte            4     3 (average)
  4762                           ;	Chosen strategy is simple_byte
  4763   000BB6  5002               	movf	(??_USBStdGetDscHandler+1)^0,w,c
  4764   000BB8  0A00               	xorlw	0	; case 0
  4765   000BBA  B4D8               	btfsc	status,2,c
  4766   000BBC  EFE2  F005         	goto	i2l4403
  4767   000BC0  EFD2  F005         	goto	i2l2967
  4768   000BC4                     i2l4403:
  4769                           
  4770                           ; BSR set to: 2
  4771                           ; Switch size 1, requested type "simple"
  4772                           ; Number of cases is 3, Range of values is 1 to 3
  4773                           ; switch strategies available:
  4774                           ; Name         Instructions Cycles
  4775                           ; simple_byte           10     6 (average)
  4776                           ;	Chosen strategy is simple_byte
  4777   000BC4  5001               	movf	??_USBStdGetDscHandler^0,w,c
  4778   000BC6  0A01               	xorlw	1	; case 1
  4779   000BC8  B4D8               	btfsc	status,2,c
  4780   000BCA  EF48  F005         	goto	i2l2945
  4781   000BCE  0A03               	xorlw	3	; case 2
  4782   000BD0  B4D8               	btfsc	status,2,c
  4783   000BD2  EF55  F005         	goto	i2l2949
  4784   000BD6  0A01               	xorlw	1	; case 3
  4785   000BD8  B4D8               	btfsc	status,2,c
  4786   000BDA  EFA1  F005         	goto	i2l2959
  4787   000BDE  EFD2  F005         	goto	i2l2967
  4788   000BE2                     i2l405:
  4789   000BE2  0012               	return		;funcret
  4790   000BE4                     __end_of_USBStdGetDscHandler:
  4791                           	callstack 0
  4792                           
  4793 ;; *************** function _USBStdFeatureReqHandler *****************
  4794 ;; Defined at:
  4795 ;;		line 2761 in file "usb/src/usb_device.c"
  4796 ;; Parameters:    Size  Location     Type
  4797 ;;		None
  4798 ;; Auto vars:     Size  Location     Type
  4799 ;;  p               2   27[COMRAM] PTR struct __BDT
  4800 ;;		 -> RAM(767), BDT(32), NULL(0), 
  4801 ;;  pUEP            2   24[COMRAM] PTR unsigned char 
  4802 ;;		 -> UEP0(1), 
  4803 ;;  current_ep_d    1   26[COMRAM] struct .
  4804 ;; Return value:  Size  Location     Type
  4805 ;;                  1    wreg      void 
  4806 ;; Registers used:
  4807 ;;		wreg, fsr2l, fsr2h, status,2, status,0, prodl, prodh, cstack
  4808 ;; Tracked objects:
  4809 ;;		On entry : 0/0
  4810 ;;		On exit  : 0/0
  4811 ;;		Unchanged: 0/0
  4812 ;; Data sizes:     COMRAM   BANK0   BANK1  BANK2h  BANK2l
  4813 ;;      Params:         0       0       0       0       0
  4814 ;;      Locals:         5       0       0       0       0
  4815 ;;      Temps:          2       0       0       0       0
  4816 ;;      Totals:         7       0       0       0       0
  4817 ;;Total ram usage:        7 bytes
  4818 ;; Hardware stack levels used: 1
  4819 ;; Hardware stack levels required when called: 4
  4820 ;; This function calls:
  4821 ;;		_USER_USB_CALLBACK_EVENT_HANDLER
  4822 ;; This function is called by:
  4823 ;;		_USBCheckStdRequest
  4824 ;; This function uses a non-reentrant model
  4825 ;;
  4826                           
  4827                           	psect	text27
  4828   0003C4                     __ptext27:
  4829                           	callstack 0
  4830   0003C4                     _USBStdFeatureReqHandler:
  4831                           	callstack 19
  4832   0003C4                     
  4833                           ;usb/src/usb_device.c: 2763:     BDT_ENTRY *p;;usb/src/usb_device.c: 2764:     EP_STATUS
      +                           current_ep_data;;usb/src/usb_device.c: 2768:         unsigned char* pUEP;;usb/src/usb_d
      +                          evice.c: 2772:     if((SetupPkt.bFeature == 1)&&
  4834   0003C4  0102               	movlb	2	; () banked
  4835   0003C6  0522               	decf	34,w,b	;volatile
  4836   0003C8  A4D8               	btfss	status,2,c
  4837   0003CA  EFE9  F001         	goto	i2u182_41
  4838   0003CE  EFEB  F001         	goto	i2u182_40
  4839   0003D2                     i2u182_41:
  4840   0003D2  EF07  F002         	goto	i2l487
  4841   0003D6                     i2u182_40:
  4842   0003D6                     
  4843                           ; BSR set to: 2
  4844   0003D6  5120               	movf	32,w,b	;volatile
  4845   0003D8  0B1F               	andlw	31
  4846   0003DA  0900               	iorlw	0
  4847   0003DC  A4D8               	btfss	status,2,c
  4848   0003DE  EFF3  F001         	goto	i2u183_41
  4849   0003E2  EFF5  F001         	goto	i2u183_40
  4850   0003E6                     i2u183_41:
  4851   0003E6  EF07  F002         	goto	i2l487
  4852   0003EA                     i2u183_40:
  4853   0003EA                     
  4854                           ; BSR set to: 2
  4855                           ;usb/src/usb_device.c: 2774:     {;usb/src/usb_device.c: 2775:         inPipes[0].info.b
      +                          its.busy = 1;
  4856   0003EA  0100               	movlb	0	; () banked
  4857   0003EC  8F6B               	bsf	(_inPipes+3)& (0+255),7,b	;volatile
  4858   0003EE                     
  4859                           ; BSR set to: 0
  4860                           ;usb/src/usb_device.c: 2776:         if(SetupPkt.bRequest == 3)
  4861   0003EE  0E03               	movlw	3
  4862   0003F0  0102               	movlb	2	; () banked
  4863   0003F2  1921               	xorwf	33,w,b	;volatile
  4864   0003F4  A4D8               	btfss	status,2,c
  4865   0003F6  EFFF  F001         	goto	i2u184_41
  4866   0003FA  EF01  F002         	goto	i2u184_40
  4867   0003FE                     i2u184_41:
  4868   0003FE  EF05  F002         	goto	i2l3023
  4869   000402                     i2u184_40:
  4870   000402                     
  4871                           ; BSR set to: 2
  4872                           ;usb/src/usb_device.c: 2777:             RemoteWakeup = 1;
  4873   000402  0E01               	movlw	1
  4874   000404  6E44               	movwf	_RemoteWakeup^0,c	;volatile
  4875   000406  EF07  F002         	goto	i2l487
  4876   00040A                     i2l3023:
  4877                           
  4878                           ; BSR set to: 2
  4879                           ;usb/src/usb_device.c: 2779:             RemoteWakeup = 0;
  4880   00040A  0E00               	movlw	0
  4881   00040C  6E44               	movwf	_RemoteWakeup^0,c	;volatile
  4882   00040E                     i2l487:
  4883                           
  4884                           ; BSR set to: 2
  4885                           ;usb/src/usb_device.c: 2783:     if((SetupPkt.bFeature == 0)&&
  4886   00040E  5122               	movf	34,w,b	;volatile
  4887   000410  A4D8               	btfss	status,2,c
  4888   000412  EF0D  F002         	goto	i2u185_41
  4889   000416  EF0F  F002         	goto	i2u185_40
  4890   00041A                     i2u185_41:
  4891   00041A  EF6D  F003         	goto	i2l510
  4892   00041E                     i2u185_40:
  4893   00041E                     
  4894                           ; BSR set to: 2
  4895   00041E  5120               	movf	32,w,b	;volatile
  4896   000420  0B1F               	andlw	31
  4897   000422  0A02               	xorlw	2
  4898   000424  A4D8               	btfss	status,2,c
  4899   000426  EF17  F002         	goto	i2u186_41
  4900   00042A  EF19  F002         	goto	i2u186_40
  4901   00042E                     i2u186_41:
  4902   00042E  EF6D  F003         	goto	i2l510
  4903   000432                     i2u186_40:
  4904   000432                     
  4905                           ; BSR set to: 2
  4906   000432  5124               	movf	36,w,b	;volatile
  4907   000434  0B0F               	andlw	15
  4908   000436  0900               	iorlw	0
  4909   000438  B4D8               	btfsc	status,2,c
  4910   00043A  EF21  F002         	goto	i2u187_41
  4911   00043E  EF23  F002         	goto	i2u187_40
  4912   000442                     i2u187_41:
  4913   000442  EF6D  F003         	goto	i2l510
  4914   000446                     i2u187_40:
  4915   000446                     
  4916                           ; BSR set to: 2
  4917   000446  5124               	movf	36,w,b	;volatile
  4918   000448  0B0F               	andlw	15
  4919   00044A  6E17               	movwf	??_USBStdFeatureReqHandler^0,c
  4920   00044C  0E02               	movlw	2
  4921   00044E  6017               	cpfslt	??_USBStdFeatureReqHandler^0,c
  4922   000450  EF2C  F002         	goto	i2u188_41
  4923   000454  EF2E  F002         	goto	i2u188_40
  4924   000458                     i2u188_41:
  4925   000458  EF6D  F003         	goto	i2l510
  4926   00045C                     i2u188_40:
  4927   00045C                     
  4928                           ; BSR set to: 2
  4929   00045C  0E20               	movlw	32
  4930   00045E  1847               	xorwf	_USBDeviceState^0,w,c	;volatile
  4931   000460  A4D8               	btfss	status,2,c
  4932   000462  EF35  F002         	goto	i2u189_41
  4933   000466  EF37  F002         	goto	i2u189_40
  4934   00046A                     i2u189_41:
  4935   00046A  EF6D  F003         	goto	i2l510
  4936   00046E                     i2u189_40:
  4937   00046E                     
  4938                           ; BSR set to: 2
  4939                           ;usb/src/usb_device.c: 2787:     {;usb/src/usb_device.c: 2790:   inPipes[0].info.bits.bu
      +                          sy = 1;
  4940   00046E  0100               	movlb	0	; () banked
  4941   000470  8F6B               	bsf	(_inPipes+3)& (0+255),7,b	;volatile
  4942                           
  4943                           ;usb/src/usb_device.c: 2793:         if(SetupPkt.EPDir == 0)
  4944   000472  0102               	movlb	2	; () banked
  4945   000474  BF24               	btfsc	36,7,b	;volatile
  4946   000476  EF3F  F002         	goto	i2u190_41
  4947   00047A  EF41  F002         	goto	i2u190_40
  4948   00047E                     i2u190_41:
  4949   00047E  EF57  F002         	goto	i2l3039
  4950   000482                     i2u190_40:
  4951   000482                     
  4952                           ; BSR set to: 2
  4953                           ;usb/src/usb_device.c: 2794:         {;usb/src/usb_device.c: 2795:             p = (BDT_
      +                          ENTRY*)pBDTEntryOut[SetupPkt.EPNum];
  4954   000482  5124               	movf	36,w,b	;volatile
  4955   000484  0B0F               	andlw	15
  4956   000486  0D02               	mullw	2
  4957   000488  50F3               	movf	243,w,c
  4958   00048A  0F72               	addlw	low _pBDTEntryOut
  4959   00048C  6ED9               	movwf	fsr2l,c
  4960   00048E  6ADA               	clrf	fsr2h,c
  4961   000490  CFDE F01C          	movff	postinc2,USBStdFeatureReqHandler@p
  4962   000494  CFDD F01D          	movff	postdec2,USBStdFeatureReqHandler@p+1
  4963   000498                     
  4964                           ; BSR set to: 2
  4965                           ;usb/src/usb_device.c: 2796:             current_ep_data.Val = ep_data_out[SetupPkt.EPNu
      +                          m].Val;
  4966   000498  5124               	movf	36,w,b	;volatile
  4967   00049A  0B0F               	andlw	15
  4968   00049C  6E17               	movwf	??_USBStdFeatureReqHandler^0,c
  4969   00049E  5017               	movf	??_USBStdFeatureReqHandler^0,w,c
  4970   0004A0  0F76               	addlw	low _ep_data_out
  4971   0004A2  6ED9               	movwf	fsr2l,c
  4972   0004A4  6ADA               	clrf	fsr2h,c
  4973   0004A6  50DF               	movf	indf2,w,c
  4974   0004A8  6E1B               	movwf	USBStdFeatureReqHandler@current_ep_data^0,c
  4975                           
  4976                           ;usb/src/usb_device.c: 2797:         }
  4977   0004AA  EF6B  F002         	goto	i2l3043
  4978   0004AE                     i2l3039:
  4979                           
  4980                           ; BSR set to: 2
  4981                           ;usb/src/usb_device.c: 2799:         {;usb/src/usb_device.c: 2800:             p = (BDT_
      +                          ENTRY*)pBDTEntryIn[SetupPkt.EPNum];
  4982   0004AE  5124               	movf	36,w,b	;volatile
  4983   0004B0  0B0F               	andlw	15
  4984   0004B2  0D02               	mullw	2
  4985   0004B4  50F3               	movf	243,w,c
  4986   0004B6  0F6E               	addlw	low _pBDTEntryIn
  4987   0004B8  6ED9               	movwf	fsr2l,c
  4988   0004BA  6ADA               	clrf	fsr2h,c
  4989   0004BC  CFDE F01C          	movff	postinc2,USBStdFeatureReqHandler@p
  4990   0004C0  CFDD F01D          	movff	postdec2,USBStdFeatureReqHandler@p+1
  4991   0004C4                     
  4992                           ; BSR set to: 2
  4993                           ;usb/src/usb_device.c: 2801:             current_ep_data.Val = ep_data_in[SetupPkt.EPNum
      +                          ].Val;
  4994   0004C4  5124               	movf	36,w,b	;volatile
  4995   0004C6  0B0F               	andlw	15
  4996   0004C8  6E17               	movwf	??_USBStdFeatureReqHandler^0,c
  4997   0004CA  5017               	movf	??_USBStdFeatureReqHandler^0,w,c
  4998   0004CC  0F78               	addlw	low _ep_data_in
  4999   0004CE  6ED9               	movwf	fsr2l,c
  5000   0004D0  6ADA               	clrf	fsr2h,c
  5001   0004D2  50DF               	movf	indf2,w,c
  5002   0004D4  6E1B               	movwf	USBStdFeatureReqHandler@current_ep_data^0,c
  5003   0004D6                     i2l3043:
  5004                           
  5005                           ; BSR set to: 2
  5006                           ;usb/src/usb_device.c: 2808:             if(current_ep_data.bits.ping_pong_state == 0)
  5007   0004D6  B01B               	btfsc	USBStdFeatureReqHandler@current_ep_data^0,0,c
  5008   0004D8  EF70  F002         	goto	i2u191_41
  5009   0004DC  EF72  F002         	goto	i2u191_40
  5010   0004E0                     i2u191_41:
  5011   0004E0  EF7A  F002         	goto	i2l3047
  5012   0004E4                     i2u191_40:
  5013   0004E4                     
  5014                           ; BSR set to: 2
  5015                           ;usb/src/usb_device.c: 2809:             {;usb/src/usb_device.c: 2810:                 p
      +                           = (BDT_ENTRY*)(((uint16_t)p) & (~0x0004));
  5016   0004E4  0EFB               	movlw	251
  5017   0004E6  141C               	andwf	USBStdFeatureReqHandler@p^0,w,c
  5018   0004E8  6E1C               	movwf	USBStdFeatureReqHandler@p^0,c
  5019   0004EA  0EFF               	movlw	255
  5020   0004EC  141D               	andwf	(USBStdFeatureReqHandler@p+1)^0,w,c
  5021   0004EE  6E1D               	movwf	(USBStdFeatureReqHandler@p+1)^0,c
  5022                           
  5023                           ;usb/src/usb_device.c: 2811:             }
  5024   0004F0  EF7F  F002         	goto	i2l3049
  5025   0004F4                     i2l3047:
  5026                           
  5027                           ; BSR set to: 2
  5028                           ;usb/src/usb_device.c: 2813:             {;usb/src/usb_device.c: 2814:                 p
      +                           = (BDT_ENTRY*)(((uint16_t)p) | 0x0004);
  5029   0004F4  0E04               	movlw	4
  5030   0004F6  101C               	iorwf	USBStdFeatureReqHandler@p^0,w,c
  5031   0004F8  6E1C               	movwf	USBStdFeatureReqHandler@p^0,c
  5032   0004FA  501D               	movf	(USBStdFeatureReqHandler@p+1)^0,w,c
  5033   0004FC  6E1D               	movwf	(USBStdFeatureReqHandler@p+1)^0,c
  5034   0004FE                     i2l3049:
  5035                           
  5036                           ; BSR set to: 2
  5037                           ;usb/src/usb_device.c: 2820:         if(SetupPkt.EPDir == 0)
  5038   0004FE  BF24               	btfsc	36,7,b	;volatile
  5039   000500  EF84  F002         	goto	i2u192_41
  5040   000504  EF86  F002         	goto	i2u192_40
  5041   000508                     i2u192_41:
  5042   000508  EF93  F002         	goto	i2l3053
  5043   00050C                     i2u192_40:
  5044   00050C                     
  5045                           ; BSR set to: 2
  5046                           ;usb/src/usb_device.c: 2821:         {;usb/src/usb_device.c: 2822:             pBDTEntry
      +                          Out[SetupPkt.EPNum] = (volatile BDT_ENTRY *)p;
  5047   00050C  5124               	movf	36,w,b	;volatile
  5048   00050E  0B0F               	andlw	15
  5049   000510  0D02               	mullw	2
  5050   000512  50F3               	movf	243,w,c
  5051   000514  0F72               	addlw	low _pBDTEntryOut
  5052   000516  6ED9               	movwf	fsr2l,c
  5053   000518  6ADA               	clrf	fsr2h,c
  5054   00051A  C01C  FFDE         	movff	USBStdFeatureReqHandler@p,postinc2
  5055   00051E  C01D  FFDD         	movff	USBStdFeatureReqHandler@p+1,postdec2
  5056                           
  5057                           ;usb/src/usb_device.c: 2823:         }
  5058   000522  EF9E  F002         	goto	i2l3055
  5059   000526                     i2l3053:
  5060                           
  5061                           ; BSR set to: 2
  5062                           ;usb/src/usb_device.c: 2825:         {;usb/src/usb_device.c: 2826:             pBDTEntry
      +                          In[SetupPkt.EPNum] = (volatile BDT_ENTRY *)p;
  5063   000526  5124               	movf	36,w,b	;volatile
  5064   000528  0B0F               	andlw	15
  5065   00052A  0D02               	mullw	2
  5066   00052C  50F3               	movf	243,w,c
  5067   00052E  0F6E               	addlw	low _pBDTEntryIn
  5068   000530  6ED9               	movwf	fsr2l,c
  5069   000532  6ADA               	clrf	fsr2h,c
  5070   000534  C01C  FFDE         	movff	USBStdFeatureReqHandler@p,postinc2
  5071   000538  C01D  FFDD         	movff	USBStdFeatureReqHandler@p+1,postdec2
  5072   00053C                     i2l3055:
  5073                           
  5074                           ; BSR set to: 2
  5075                           ;usb/src/usb_device.c: 2830:         if(SetupPkt.bRequest == 3)
  5076   00053C  0E03               	movlw	3
  5077   00053E  1921               	xorwf	33,w,b	;volatile
  5078   000540  A4D8               	btfss	status,2,c
  5079   000542  EFA5  F002         	goto	i2u193_41
  5080   000546  EFA7  F002         	goto	i2u193_40
  5081   00054A                     i2u193_41:
  5082   00054A  EFDB  F002         	goto	i2l3065
  5083   00054E                     i2u193_40:
  5084   00054E                     
  5085                           ; BSR set to: 2
  5086                           ;usb/src/usb_device.c: 2831:         {;usb/src/usb_device.c: 2832:             if(p->STA
      +                          T.UOWN == 1)
  5087   00054E  C01C  FFD9         	movff	USBStdFeatureReqHandler@p,fsr2l
  5088   000552  C01D  FFDA         	movff	USBStdFeatureReqHandler@p+1,fsr2h
  5089   000556  AEDF               	btfss	indf2,7,c
  5090   000558  EFB0  F002         	goto	i2u194_41
  5091   00055C  EFB2  F002         	goto	i2u194_40
  5092   000560                     i2u194_41:
  5093   000560  EFCD  F002         	goto	i2l498
  5094   000564                     i2u194_40:
  5095   000564                     
  5096                           ; BSR set to: 2
  5097                           ;usb/src/usb_device.c: 2833:             {;usb/src/usb_device.c: 2836:                 i
      +                          f(SetupPkt.EPDir == 0)
  5098   000564  BF24               	btfsc	36,7,b	;volatile
  5099   000566  EFB7  F002         	goto	i2u195_41
  5100   00056A  EFB9  F002         	goto	i2u195_40
  5101   00056E                     i2u195_41:
  5102   00056E  EFC4  F002         	goto	i2l3063
  5103   000572                     i2u195_40:
  5104   000572                     
  5105                           ; BSR set to: 2
  5106                           ;usb/src/usb_device.c: 2837:                 {;usb/src/usb_device.c: 2838:              
      +                                 ep_data_out[SetupPkt.EPNum].bits.transfer_terminated = 1;
  5107   000572  5124               	movf	36,w,b	;volatile
  5108   000574  0B0F               	andlw	15
  5109   000576  6E17               	movwf	??_USBStdFeatureReqHandler^0,c
  5110   000578  5017               	movf	??_USBStdFeatureReqHandler^0,w,c
  5111   00057A  0F76               	addlw	low _ep_data_out
  5112   00057C  6ED9               	movwf	fsr2l,c
  5113   00057E  6ADA               	clrf	fsr2h,c
  5114   000580  0100               	movlb	0	; () banked
  5115   000582  82DF               	bsf	indf2,1,c
  5116                           
  5117                           ;usb/src/usb_device.c: 2839:                 }
  5118   000584  EFCD  F002         	goto	i2l498
  5119   000588                     i2l3063:
  5120                           
  5121                           ; BSR set to: 2
  5122                           ;usb/src/usb_device.c: 2841:                 {;usb/src/usb_device.c: 2842:              
      +                                 ep_data_in[SetupPkt.EPNum].bits.transfer_terminated = 1;
  5123   000588  5124               	movf	36,w,b	;volatile
  5124   00058A  0B0F               	andlw	15
  5125   00058C  6E17               	movwf	??_USBStdFeatureReqHandler^0,c
  5126   00058E  5017               	movf	??_USBStdFeatureReqHandler^0,w,c
  5127   000590  0F78               	addlw	low _ep_data_in
  5128   000592  6ED9               	movwf	fsr2l,c
  5129   000594  6ADA               	clrf	fsr2h,c
  5130   000596  0100               	movlb	0	; () banked
  5131   000598  82DF               	bsf	indf2,1,c
  5132   00059A                     i2l498:
  5133                           
  5134                           ;usb/src/usb_device.c: 2847:             p->STAT.Val |= 0x04;
  5135   00059A  C01C  FFD9         	movff	USBStdFeatureReqHandler@p,fsr2l
  5136   00059E  C01D  FFDA         	movff	USBStdFeatureReqHandler@p+1,fsr2h
  5137   0005A2  0E00               	movlw	0
  5138   0005A4  84DB               	bsf	plusw2,2,c
  5139                           
  5140                           ;usb/src/usb_device.c: 2848:             p->STAT.Val |= 0x80;
  5141   0005A6  C01C  FFD9         	movff	USBStdFeatureReqHandler@p,fsr2l
  5142   0005AA  C01D  FFDA         	movff	USBStdFeatureReqHandler@p+1,fsr2h
  5143   0005AE  0E00               	movlw	0
  5144   0005B0  8EDB               	bsf	plusw2,7,c
  5145                           
  5146                           ;usb/src/usb_device.c: 2849:         }
  5147   0005B2  EF6D  F003         	goto	i2l510
  5148   0005B6                     i2l3065:
  5149                           
  5150                           ; BSR set to: 2
  5151                           ;usb/src/usb_device.c: 2851:         {;usb/src/usb_device.c: 2855:                 p = (
      +                          BDT_ENTRY*)(((uint16_t)p) ^ 0x0004);
  5152   0005B6  0E04               	movlw	4
  5153   0005B8  181C               	xorwf	USBStdFeatureReqHandler@p^0,w,c
  5154   0005BA  6E1C               	movwf	USBStdFeatureReqHandler@p^0,c
  5155   0005BC  501D               	movf	(USBStdFeatureReqHandler@p+1)^0,w,c
  5156   0005BE  6E1D               	movwf	(USBStdFeatureReqHandler@p+1)^0,c
  5157   0005C0                     
  5158                           ; BSR set to: 2
  5159                           ;usb/src/usb_device.c: 2857:                 if(p->STAT.UOWN == 1)
  5160   0005C0  C01C  FFD9         	movff	USBStdFeatureReqHandler@p,fsr2l
  5161   0005C4  C01D  FFDA         	movff	USBStdFeatureReqHandler@p+1,fsr2h
  5162   0005C8  AEDF               	btfss	indf2,7,c
  5163   0005CA  EFE9  F002         	goto	i2u196_41
  5164   0005CE  EFEB  F002         	goto	i2u196_40
  5165   0005D2                     i2u196_41:
  5166   0005D2  EF07  F003         	goto	i2l3075
  5167   0005D6                     i2u196_40:
  5168   0005D6                     
  5169                           ; BSR set to: 2
  5170                           ;usb/src/usb_device.c: 2858:                 {;usb/src/usb_device.c: 2861:              
      +                                 p->STAT.Val &= (~0x80);
  5171   0005D6  C01C  FFD9         	movff	USBStdFeatureReqHandler@p,fsr2l
  5172   0005DA  C01D  FFDA         	movff	USBStdFeatureReqHandler@p+1,fsr2h
  5173   0005DE  0E7F               	movlw	127
  5174   0005E0  16DF               	andwf	indf2,f,c
  5175   0005E2                     
  5176                           ; BSR set to: 2
  5177                           ;usb/src/usb_device.c: 2862:                     p->STAT.Val |= 0x40;
  5178   0005E2  C01C  FFD9         	movff	USBStdFeatureReqHandler@p,fsr2l
  5179   0005E6  C01D  FFDA         	movff	USBStdFeatureReqHandler@p+1,fsr2h
  5180   0005EA  0E00               	movlw	0
  5181   0005EC  8CDB               	bsf	plusw2,6,c
  5182   0005EE                     
  5183                           ; BSR set to: 2
  5184                           ;usb/src/usb_device.c: 2863:                     USER_USB_CALLBACK_EVENT_HANDLER((USB_EV
      +                          ENT)EVENT_TRANSFER_TERMINATED,p,sizeof(p));
  5185   0005EE  0E00               	movlw	0
  5186   0005F0  6E10               	movwf	(USER_USB_CALLBACK_EVENT_HANDLER@event+1)^0,c
  5187   0005F2  0E05               	movlw	5
  5188   0005F4  6E0F               	movwf	USER_USB_CALLBACK_EVENT_HANDLER@event^0,c
  5189   0005F6  C01C  F011         	movff	USBStdFeatureReqHandler@p,USER_USB_CALLBACK_EVENT_HANDLER@pdata
  5190   0005FA  C01D  F012         	movff	USBStdFeatureReqHandler@p+1,USER_USB_CALLBACK_EVENT_HANDLER@pdata+1
  5191   0005FE  0E00               	movlw	0
  5192   000600  6E14               	movwf	(USER_USB_CALLBACK_EVENT_HANDLER@size+1)^0,c
  5193   000602  0E02               	movlw	2
  5194   000604  6E13               	movwf	USER_USB_CALLBACK_EVENT_HANDLER@size^0,c
  5195   000606  EC97  F00E         	call	_USER_USB_CALLBACK_EVENT_HANDLER	;wreg free
  5196                           
  5197                           ;usb/src/usb_device.c: 2864:                 }
  5198   00060A  EF0D  F003         	goto	i2l3077
  5199   00060E                     i2l3075:
  5200                           
  5201                           ; BSR set to: 2
  5202                           ;usb/src/usb_device.c: 2866:                 {;usb/src/usb_device.c: 2868:      p->STAT.
      +                          Val |= 0x40;
  5203   00060E  C01C  FFD9         	movff	USBStdFeatureReqHandler@p,fsr2l
  5204   000612  C01D  FFDA         	movff	USBStdFeatureReqHandler@p+1,fsr2h
  5205   000616  0E00               	movlw	0
  5206   000618  8CDB               	bsf	plusw2,6,c
  5207   00061A                     i2l3077:
  5208                           
  5209                           ;usb/src/usb_device.c: 2873:                 p = (BDT_ENTRY*)(((uint16_t)p) ^ 0x0004);
  5210   00061A  0E04               	movlw	4
  5211   00061C  181C               	xorwf	USBStdFeatureReqHandler@p^0,w,c
  5212   00061E  6E1C               	movwf	USBStdFeatureReqHandler@p^0,c
  5213   000620  501D               	movf	(USBStdFeatureReqHandler@p+1)^0,w,c
  5214   000622  6E1D               	movwf	(USBStdFeatureReqHandler@p+1)^0,c
  5215   000624                     
  5216                           ;usb/src/usb_device.c: 2879:                 if((current_ep_data.bits.transfer_terminate
      +                          d != 0) || (p->STAT.UOWN == 1))
  5217   000624  B21B               	btfsc	USBStdFeatureReqHandler@current_ep_data^0,1,c
  5218   000626  EF17  F003         	goto	i2u197_41
  5219   00062A  EF19  F003         	goto	i2u197_40
  5220   00062E                     i2u197_41:
  5221   00062E  EF24  F003         	goto	i2l506
  5222   000632                     i2u197_40:
  5223   000632  C01C  FFD9         	movff	USBStdFeatureReqHandler@p,fsr2l
  5224   000636  C01D  FFDA         	movff	USBStdFeatureReqHandler@p+1,fsr2h
  5225   00063A  AEDF               	btfss	indf2,7,c
  5226   00063C  EF22  F003         	goto	i2u198_41
  5227   000640  EF24  F003         	goto	i2u198_40
  5228   000644                     i2u198_41:
  5229   000644  EF56  F003         	goto	i2l3091
  5230   000648                     i2u198_40:
  5231   000648                     i2l506:
  5232                           
  5233                           ;usb/src/usb_device.c: 2880:                 {;usb/src/usb_device.c: 2881:              
      +                                 if(SetupPkt.EPDir == 0)
  5234   000648  0102               	movlb	2	; () banked
  5235   00064A  BF24               	btfsc	36,7,b	;volatile
  5236   00064C  EF2A  F003         	goto	i2u199_41
  5237   000650  EF2C  F003         	goto	i2u199_40
  5238   000654                     i2u199_41:
  5239   000654  EF37  F003         	goto	i2l3085
  5240   000658                     i2u199_40:
  5241   000658                     
  5242                           ; BSR set to: 2
  5243                           ;usb/src/usb_device.c: 2882:                     {;usb/src/usb_device.c: 2883:          
      +                                         ep_data_out[SetupPkt.EPNum].bits.transfer_terminated = 0;
  5244   000658  5124               	movf	36,w,b	;volatile
  5245   00065A  0B0F               	andlw	15
  5246   00065C  6E17               	movwf	??_USBStdFeatureReqHandler^0,c
  5247   00065E  5017               	movf	??_USBStdFeatureReqHandler^0,w,c
  5248   000660  0F76               	addlw	low _ep_data_out
  5249   000662  6ED9               	movwf	fsr2l,c
  5250   000664  6ADA               	clrf	fsr2h,c
  5251   000666  0100               	movlb	0	; () banked
  5252   000668  92DF               	bcf	indf2,1,c
  5253                           
  5254                           ;usb/src/usb_device.c: 2884:                     }
  5255   00066A  EF40  F003         	goto	i2l3087
  5256   00066E                     i2l3085:
  5257                           
  5258                           ; BSR set to: 2
  5259                           ;usb/src/usb_device.c: 2886:                     {;usb/src/usb_device.c: 2887:          
      +                                         ep_data_in[SetupPkt.EPNum].bits.transfer_terminated = 0;
  5260   00066E  5124               	movf	36,w,b	;volatile
  5261   000670  0B0F               	andlw	15
  5262   000672  6E17               	movwf	??_USBStdFeatureReqHandler^0,c
  5263   000674  5017               	movf	??_USBStdFeatureReqHandler^0,w,c
  5264   000676  0F78               	addlw	low _ep_data_in
  5265   000678  6ED9               	movwf	fsr2l,c
  5266   00067A  6ADA               	clrf	fsr2h,c
  5267   00067C  0100               	movlb	0	; () banked
  5268   00067E  92DF               	bcf	indf2,1,c
  5269   000680                     i2l3087:
  5270                           
  5271                           ; BSR set to: 0
  5272                           ;usb/src/usb_device.c: 2890:                     p->STAT.Val &= ~(0x80 | 0x40 | 0x04);
  5273   000680  C01C  FFD9         	movff	USBStdFeatureReqHandler@p,fsr2l
  5274   000684  C01D  FFDA         	movff	USBStdFeatureReqHandler@p+1,fsr2h
  5275   000688  0E3B               	movlw	59
  5276   00068A  16DF               	andwf	indf2,f,c
  5277   00068C                     
  5278                           ; BSR set to: 0
  5279                           ;usb/src/usb_device.c: 2893:                     USER_USB_CALLBACK_EVENT_HANDLER((USB_EV
      +                          ENT)EVENT_TRANSFER_TERMINATED,p,sizeof(p));
  5280   00068C  0E00               	movlw	0
  5281   00068E  6E10               	movwf	(USER_USB_CALLBACK_EVENT_HANDLER@event+1)^0,c
  5282   000690  0E05               	movlw	5
  5283   000692  6E0F               	movwf	USER_USB_CALLBACK_EVENT_HANDLER@event^0,c
  5284   000694  C01C  F011         	movff	USBStdFeatureReqHandler@p,USER_USB_CALLBACK_EVENT_HANDLER@pdata
  5285   000698  C01D  F012         	movff	USBStdFeatureReqHandler@p+1,USER_USB_CALLBACK_EVENT_HANDLER@pdata+1
  5286   00069C  0E00               	movlw	0
  5287   00069E  6E14               	movwf	(USER_USB_CALLBACK_EVENT_HANDLER@size+1)^0,c
  5288   0006A0  0E02               	movlw	2
  5289   0006A2  6E13               	movwf	USER_USB_CALLBACK_EVENT_HANDLER@size^0,c
  5290   0006A4  EC97  F00E         	call	_USER_USB_CALLBACK_EVENT_HANDLER	;wreg free
  5291                           
  5292                           ;usb/src/usb_device.c: 2894:                 }
  5293   0006A8  EF5C  F003         	goto	i2l3093
  5294   0006AC                     i2l3091:
  5295                           
  5296                           ;usb/src/usb_device.c: 2896:                 {;usb/src/usb_device.c: 2898:              
      +                                 p->STAT.Val &= ~(0x80 | 0x40 | 0x04);
  5297   0006AC  C01C  FFD9         	movff	USBStdFeatureReqHandler@p,fsr2l
  5298   0006B0  C01D  FFDA         	movff	USBStdFeatureReqHandler@p+1,fsr2h
  5299   0006B4  0E3B               	movlw	59
  5300   0006B6  16DF               	andwf	indf2,f,c
  5301   0006B8                     i2l3093:
  5302                           
  5303                           ;usb/src/usb_device.c: 2946:                 pUEP = (unsigned char*)(&UEP0+SetupPkt.EPNu
      +                          m);
  5304   0006B8  0102               	movlb	2	; () banked
  5305   0006BA  5124               	movf	36,w,b	;volatile
  5306   0006BC  0B0F               	andlw	15
  5307   0006BE  6E17               	movwf	??_USBStdFeatureReqHandler^0,c
  5308   0006C0  6A18               	clrf	(??_USBStdFeatureReqHandler+1)^0,c
  5309   0006C2  0E53               	movlw	83
  5310   0006C4  2417               	addwf	??_USBStdFeatureReqHandler^0,w,c
  5311   0006C6  6E19               	movwf	USBStdFeatureReqHandler@pUEP^0,c
  5312   0006C8  0E0F               	movlw	15
  5313   0006CA  2018               	addwfc	(??_USBStdFeatureReqHandler+1)^0,w,c
  5314   0006CC  6E1A               	movwf	(USBStdFeatureReqHandler@pUEP+1)^0,c
  5315   0006CE                     
  5316                           ; BSR set to: 2
  5317                           ;usb/src/usb_device.c: 2950:             *pUEP &= ~0x0001;
  5318   0006CE  C019  FFD9         	movff	USBStdFeatureReqHandler@pUEP,fsr2l
  5319   0006D2  C01A  FFDA         	movff	USBStdFeatureReqHandler@pUEP+1,fsr2h
  5320   0006D6  0EFE               	movlw	254
  5321   0006D8  16DF               	andwf	indf2,f,c
  5322   0006DA                     i2l510:
  5323   0006DA  0012               	return		;funcret
  5324   0006DC                     __end_of_USBStdFeatureReqHandler:
  5325                           	callstack 0
  5326                           
  5327 ;; *************** function _USER_USB_CALLBACK_EVENT_HANDLER *****************
  5328 ;; Defined at:
  5329 ;;		line 60 in file "newmain.c"
  5330 ;; Parameters:    Size  Location     Type
  5331 ;;  event           2   14[COMRAM] enum E238
  5332 ;;  pdata           2   16[COMRAM] PTR void 
  5333 ;;		 -> RAM(767), USTATcopy(1), USBActiveConfiguration(1), BDT(32), 
  5334 ;;		 -> NULL(0), 
  5335 ;;  size            2   18[COMRAM] unsigned short 
  5336 ;; Auto vars:     Size  Location     Type
  5337 ;;		None
  5338 ;; Return value:  Size  Location     Type
  5339 ;;                  1    wreg      _Bool 
  5340 ;; Registers used:
  5341 ;;		wreg, fsr2l, fsr2h, status,2, status,0, prodl, prodh, cstack
  5342 ;; Tracked objects:
  5343 ;;		On entry : 0/0
  5344 ;;		On exit  : 0/0
  5345 ;;		Unchanged: 0/0
  5346 ;; Data sizes:     COMRAM   BANK0   BANK1  BANK2h  BANK2l
  5347 ;;      Params:         6       0       0       0       0
  5348 ;;      Locals:         0       0       0       0       0
  5349 ;;      Temps:          2       0       0       0       0
  5350 ;;      Totals:         8       0       0       0       0
  5351 ;;Total ram usage:        8 bytes
  5352 ;; Hardware stack levels used: 1
  5353 ;; Hardware stack levels required when called: 3
  5354 ;; This function calls:
  5355 ;;		_HIDInitialize
  5356 ;;		_USBCheckHIDRequest
  5357 ;; This function is called by:
  5358 ;;		_USBDeviceTasks
  5359 ;;		_USBStdSetCfgHandler
  5360 ;;		_USBSuspend
  5361 ;;		_USBWakeFromSuspend
  5362 ;;		_USBCtrlTrfSetupHandler
  5363 ;;		_USBCheckStdRequest
  5364 ;;		_USBStdFeatureReqHandler
  5365 ;; This function uses a non-reentrant model
  5366 ;;
  5367                           
  5368                           	psect	text28
  5369   001D2E                     __ptext28:
  5370                           	callstack 0
  5371   001D2E                     _USER_USB_CALLBACK_EVENT_HANDLER:
  5372                           	callstack 23
  5373   001D2E                     
  5374                           ;newmain.c: 60: ;newmain.c: 61:         case EVENT_TRANSFER_TERMINATED:;newmain.c: 62:  
      +                                     break;
  5375   001D2E  EFA1  F00E         	goto	i2l2785
  5376   001D32                     i2l2779:
  5377                           
  5378                           ;newmain.c: 82:             SendData[0] = ReceivedData[0];
  5379   001D32  EC8B  F010         	call	_HIDInitialize	;wreg free
  5380                           
  5381                           ;newmain.c: 83:             USBInHandle = USBTransferOnePacket(1,1,(uint8_t*)&SendData[0
      +                          ],64);
  5382   001D36  EFDA  F00E         	goto	i2l75
  5383   001D3A                     i2l2781:
  5384                           
  5385                           ;newmain.c: 89: void Check_Button()
  5386   001D3A  EC7E  F004         	call	_USBCheckHIDRequest	;wreg free
  5387                           
  5388                           ;newmain.c: 90: {
  5389   001D3E  EFDA  F00E         	goto	i2l75
  5390   001D42                     i2l2785:
  5391   001D42  C00F  F015         	movff	USER_USB_CALLBACK_EVENT_HANDLER@event,??_USER_USB_CALLBACK_EVENT_HANDLER
  5392   001D46  C010  F016         	movff	USER_USB_CALLBACK_EVENT_HANDLER@event+1,??_USER_USB_CALLBACK_EVENT_HANDLER+1
  5393                           
  5394                           ; Switch on 2 bytes has been partitioned into a top level switch of size 1, and 2 sub-sw
      +                          itches
  5395                           ; Switch size 1, requested type "simple"
  5396                           ; Number of cases is 2, Range of values is 0 to 127
  5397                           ; switch strategies available:
  5398                           ; Name         Instructions Cycles
  5399                           ; simple_byte            7     4 (average)
  5400                           ;	Chosen strategy is simple_byte
  5401   001D4A  5016               	movf	(??_USER_USB_CALLBACK_EVENT_HANDLER+1)^0,w,c
  5402   001D4C  0A00               	xorlw	0	; case 0
  5403   001D4E  B4D8               	btfsc	status,2,c
  5404   001D50  EFB0  F00E         	goto	i2l4405
  5405   001D54  0A7F               	xorlw	127	; case 127
  5406   001D56  B4D8               	btfsc	status,2,c
  5407   001D58  EFD3  F00E         	goto	i2l4407
  5408   001D5C  EFDA  F00E         	goto	i2l75
  5409   001D60                     i2l4405:
  5410                           
  5411                           ; Switch size 1, requested type "simple"
  5412                           ; Number of cases is 8, Range of values is 1 to 117
  5413                           ; switch strategies available:
  5414                           ; Name         Instructions Cycles
  5415                           ; simple_byte           25    13 (average)
  5416                           ;	Chosen strategy is simple_byte
  5417   001D60  5015               	movf	??_USER_USB_CALLBACK_EVENT_HANDLER^0,w,c
  5418   001D62  0A01               	xorlw	1	; case 1
  5419   001D64  B4D8               	btfsc	status,2,c
  5420   001D66  EF99  F00E         	goto	i2l2779
  5421   001D6A  0A03               	xorlw	3	; case 2
  5422   001D6C  B4D8               	btfsc	status,2,c
  5423   001D6E  EFDA  F00E         	goto	i2l75
  5424   001D72  0A01               	xorlw	1	; case 3
  5425   001D74  B4D8               	btfsc	status,2,c
  5426   001D76  EF9D  F00E         	goto	i2l2781
  5427   001D7A  0A06               	xorlw	6	; case 5
  5428   001D7C  B4D8               	btfsc	status,2,c
  5429   001D7E  EFDA  F00E         	goto	i2l75
  5430   001D82  0A77               	xorlw	119	; case 114
  5431   001D84  B4D8               	btfsc	status,2,c
  5432   001D86  EFDA  F00E         	goto	i2l75
  5433   001D8A  0A01               	xorlw	1	; case 115
  5434   001D8C  B4D8               	btfsc	status,2,c
  5435   001D8E  EFDA  F00E         	goto	i2l75
  5436   001D92  0A07               	xorlw	7	; case 116
  5437   001D94  B4D8               	btfsc	status,2,c
  5438   001D96  EFDA  F00E         	goto	i2l75
  5439   001D9A  0A01               	xorlw	1	; case 117
  5440   001D9C  B4D8               	btfsc	status,2,c
  5441   001D9E  EFDA  F00E         	goto	i2l75
  5442   001DA2  EFDA  F00E         	goto	i2l75
  5443   001DA6                     i2l4407:
  5444                           
  5445                           ; Switch size 1, requested type "simple"
  5446                           ; Number of cases is 1, Range of values is 255 to 255
  5447                           ; switch strategies available:
  5448                           ; Name         Instructions Cycles
  5449                           ; simple_byte            4     3 (average)
  5450                           ;	Chosen strategy is simple_byte
  5451   001DA6  5015               	movf	??_USER_USB_CALLBACK_EVENT_HANDLER^0,w,c
  5452   001DA8  0AFF               	xorlw	255	; case 255
  5453   001DAA  B4D8               	btfsc	status,2,c
  5454   001DAC  EFDA  F00E         	goto	i2l75
  5455   001DB0  EFDA  F00E         	goto	i2l75
  5456   001DB4                     i2l75:
  5457   001DB4  0012               	return		;funcret
  5458   001DB6                     __end_of_USER_USB_CALLBACK_EVENT_HANDLER:
  5459                           	callstack 0
  5460                           
  5461 ;; *************** function _USBCheckHIDRequest *****************
  5462 ;; Defined at:
  5463 ;;		line 161 in file "usb/src/usb_device_hid.c"
  5464 ;; Parameters:    Size  Location     Type
  5465 ;;		None
  5466 ;; Auto vars:     Size  Location     Type
  5467 ;;		None
  5468 ;; Return value:  Size  Location     Type
  5469 ;;                  1    wreg      void 
  5470 ;; Registers used:
  5471 ;;		wreg, status,2, status,0
  5472 ;; Tracked objects:
  5473 ;;		On entry : 0/0
  5474 ;;		On exit  : 0/0
  5475 ;;		Unchanged: 0/0
  5476 ;; Data sizes:     COMRAM   BANK0   BANK1  BANK2h  BANK2l
  5477 ;;      Params:         0       0       0       0       0
  5478 ;;      Locals:         0       0       0       0       0
  5479 ;;      Temps:          2       0       0       0       0
  5480 ;;      Totals:         2       0       0       0       0
  5481 ;;Total ram usage:        2 bytes
  5482 ;; Hardware stack levels used: 1
  5483 ;; This function calls:
  5484 ;;		Nothing
  5485 ;; This function is called by:
  5486 ;;		_USER_USB_CALLBACK_EVENT_HANDLER
  5487 ;; This function uses a non-reentrant model
  5488 ;;
  5489                           
  5490                           	psect	text29
  5491   0008FC                     __ptext29:
  5492                           	callstack 0
  5493   0008FC                     _USBCheckHIDRequest:
  5494                           	callstack 25
  5495   0008FC                     
  5496                           ;usb/src/usb_device_hid.c: 163:     if(SetupPkt.Recipient != (0x01)) return;
  5497   0008FC  0102               	movlb	2	; () banked
  5498   0008FE  5120               	movf	32,w,b	;volatile
  5499   000900  0B1F               	andlw	31
  5500   000902  06E8               	decf	wreg,f,c
  5501   000904  B4D8               	btfsc	status,2,c
  5502   000906  EF87  F004         	goto	i2u148_41
  5503   00090A  EF89  F004         	goto	i2u148_40
  5504   00090E                     i2u148_41:
  5505   00090E  EF8B  F004         	goto	i2l2711
  5506   000912                     i2u148_40:
  5507   000912  EF38  F005         	goto	i2l538
  5508   000916                     i2l2711:
  5509                           
  5510                           ; BSR set to: 2
  5511                           ;usb/src/usb_device_hid.c: 164:     if(SetupPkt.bIntfID != 0x00) return;
  5512   000916  5124               	movf	36,w,b	;volatile
  5513   000918  B4D8               	btfsc	status,2,c
  5514   00091A  EF91  F004         	goto	i2u149_41
  5515   00091E  EF93  F004         	goto	i2u149_40
  5516   000922                     i2u149_41:
  5517   000922  EF95  F004         	goto	i2l2715
  5518   000926                     i2u149_40:
  5519   000926  EF38  F005         	goto	i2l538
  5520   00092A                     i2l2715:
  5521                           
  5522                           ; BSR set to: 2
  5523                           ;usb/src/usb_device_hid.c: 171:     if(SetupPkt.bRequest == 6)
  5524   00092A  0E06               	movlw	6
  5525   00092C  1921               	xorwf	33,w,b	;volatile
  5526   00092E  A4D8               	btfss	status,2,c
  5527   000930  EF9C  F004         	goto	i2u150_41
  5528   000934  EF9E  F004         	goto	i2u150_40
  5529   000938                     i2u150_41:
  5530   000938  EFDF  F004         	goto	i2l2737
  5531   00093C                     i2u150_40:
  5532   00093C  EFC6  F004         	goto	i2l2735
  5533   000940                     i2l2719:
  5534                           
  5535                           ; BSR set to: 2
  5536                           ;usb/src/usb_device_hid.c: 176:                 if(USBActiveConfiguration == 1)
  5537   000940  044C               	decf	_USBActiveConfiguration^0,w,c	;volatile
  5538   000942  A4D8               	btfss	status,2,c
  5539   000944  EFA6  F004         	goto	i2u151_41
  5540   000948  EFA8  F004         	goto	i2u151_40
  5541   00094C                     i2u151_41:
  5542   00094C  EFDF  F004         	goto	i2l2737
  5543   000950                     i2u151_40:
  5544   000950                     
  5545                           ; BSR set to: 2
  5546                           ;usb/src/usb_device_hid.c: 177:                 {;usb/src/usb_device_hid.c: 178:        
      +                                       { inPipes[0].pSrc.bRom = (const uint8_t*)&configDescriptor1 + 18; inPipes[0
      +                          ].wCount.Val = sizeof(USB_HID_DSC)+3; inPipes[0].info.Val = 0x40 | 0x80 | 0x00; };
  5547   000950  0E79               	movlw	low (_configDescriptor1+18)
  5548   000952  0100               	movlb	0	; () banked
  5549   000954  6F68               	movwf	_inPipes& (0+255),b	;volatile
  5550   000956  5168               	movf	_inPipes& (0+255),w,b	;volatile
  5551   000958  A4D8               	btfss	status,2,c
  5552   00095A  0E03               	movlw	high __smallconst
  5553   00095C  6F69               	movwf	(_inPipes+1)& (0+255),b	;volatile
  5554   00095E                     
  5555                           ; BSR set to: 0
  5556   00095E  0E00               	movlw	0
  5557   000960  6F6D               	movwf	(_inPipes+5)& (0+255),b	;volatile
  5558   000962  0E09               	movlw	9
  5559   000964  6F6C               	movwf	(_inPipes+4)& (0+255),b	;volatile
  5560   000966                     
  5561                           ; BSR set to: 0
  5562   000966  0EC0               	movlw	192
  5563   000968  6F6B               	movwf	(_inPipes+3)& (0+255),b	;volatile
  5564   00096A  EFDF  F004         	goto	i2l2737
  5565   00096E                     i2l2727:
  5566                           
  5567                           ; BSR set to: 2
  5568                           ;usb/src/usb_device_hid.c: 186:                 {;usb/src/usb_device_hid.c: 187:        
      +                                       { inPipes[0].pSrc.bRom = (const uint8_t*)&hid_rpt01; inPipes[0].wCount.Val 
      +                          = 29; inPipes[0].info.Val = 0x40 | 0x80 | 0x00; };
  5569   00096E  0E90               	movlw	low _hid_rpt01
  5570   000970  0100               	movlb	0	; () banked
  5571   000972  6F68               	movwf	_inPipes& (0+255),b	;volatile
  5572   000974  5168               	movf	_inPipes& (0+255),w,b	;volatile
  5573   000976  A4D8               	btfss	status,2,c
  5574   000978  0E03               	movlw	high __smallconst
  5575   00097A  6F69               	movwf	(_inPipes+1)& (0+255),b	;volatile
  5576   00097C                     
  5577                           ; BSR set to: 0
  5578   00097C  0E00               	movlw	0
  5579   00097E  6F6D               	movwf	(_inPipes+5)& (0+255),b	;volatile
  5580   000980  0E1D               	movlw	29
  5581   000982  6F6C               	movwf	(_inPipes+4)& (0+255),b	;volatile
  5582   000984                     
  5583                           ; BSR set to: 0
  5584   000984  0EC0               	movlw	192
  5585   000986  6F6B               	movwf	(_inPipes+3)& (0+255),b	;volatile
  5586                           
  5587                           ;usb/src/usb_device_hid.c: 191:                 };usb/src/usb_device_hid.c: 192:        
      +                                   break;
  5588   000988  EFDF  F004         	goto	i2l2737
  5589   00098C                     i2l2735:
  5590                           
  5591                           ; BSR set to: 2
  5592   00098C  5123               	movf	35,w,b	;volatile
  5593   00098E  6E01               	movwf	??_USBCheckHIDRequest^0,c
  5594   000990  6A02               	clrf	(??_USBCheckHIDRequest+1)^0,c
  5595                           
  5596                           ; Switch on 2 bytes has been partitioned into a top level switch of size 1, and 1 sub-sw
      +                          itches
  5597                           ; Switch size 1, requested type "simple"
  5598                           ; Number of cases is 1, Range of values is 0 to 0
  5599                           ; switch strategies available:
  5600                           ; Name         Instructions Cycles
  5601                           ; simple_byte            4     3 (average)
  5602                           ;	Chosen strategy is simple_byte
  5603   000992  5002               	movf	(??_USBCheckHIDRequest+1)^0,w,c
  5604   000994  0A00               	xorlw	0	; case 0
  5605   000996  B4D8               	btfsc	status,2,c
  5606   000998  EFD0  F004         	goto	i2l4409
  5607   00099C  EFDF  F004         	goto	i2l2737
  5608   0009A0                     i2l4409:
  5609                           
  5610                           ; BSR set to: 2
  5611                           ; Switch size 1, requested type "simple"
  5612                           ; Number of cases is 3, Range of values is 33 to 35
  5613                           ; switch strategies available:
  5614                           ; Name         Instructions Cycles
  5615                           ; simple_byte           10     6 (average)
  5616                           ;	Chosen strategy is simple_byte
  5617   0009A0  5001               	movf	??_USBCheckHIDRequest^0,w,c
  5618   0009A2  0A21               	xorlw	33	; case 33
  5619   0009A4  B4D8               	btfsc	status,2,c
  5620   0009A6  EFA0  F004         	goto	i2l2719
  5621   0009AA  0A03               	xorlw	3	; case 34
  5622   0009AC  B4D8               	btfsc	status,2,c
  5623   0009AE  EFB7  F004         	goto	i2l2727
  5624   0009B2  0A01               	xorlw	1	; case 35
  5625   0009B4  B4D8               	btfsc	status,2,c
  5626   0009B6  EFDF  F004         	goto	i2l2737
  5627   0009BA  EFDF  F004         	goto	i2l2737
  5628   0009BE                     i2l2737:
  5629                           
  5630                           ;usb/src/usb_device_hid.c: 209:     if(SetupPkt.RequestType != (0x20>>5))
  5631   0009BE  0102               	movlb	2	; () banked
  5632   0009C0  3920               	swapf	32,w,b	;volatile
  5633   0009C2  32E8               	rrcf	wreg,f,c
  5634   0009C4  0B03               	andlw	3
  5635   0009C6  06E8               	decf	wreg,f,c
  5636   0009C8  B4D8               	btfsc	status,2,c
  5637   0009CA  EFE9  F004         	goto	i2u152_41
  5638   0009CE  EFEB  F004         	goto	i2u152_40
  5639   0009D2                     i2u152_41:
  5640   0009D2  EF13  F005         	goto	i2l2763
  5641   0009D6                     i2u152_40:
  5642   0009D6  EF38  F005         	goto	i2l538
  5643   0009DA                     i2l2741:
  5644                           
  5645                           ; BSR set to: 2
  5646                           ;usb/src/usb_device_hid.c: 227:             { inPipes[0].pSrc.bRam = (uint8_t*)&idle_rat
      +                          e; inPipes[0].wCount.Val = 1; inPipes[0].info.Val = 0x40 | 0x80 | 0x01; };
  5647   0009DA  0E49               	movlw	low _idle_rate
  5648   0009DC  0100               	movlb	0	; () banked
  5649   0009DE  6F68               	movwf	_inPipes& (0+255),b	;volatile
  5650   0009E0  6B69               	clrf	(_inPipes+1)& (0+255),b	;volatile
  5651   0009E2                     
  5652                           ; BSR set to: 0
  5653   0009E2  0E00               	movlw	0
  5654   0009E4  6F6D               	movwf	(_inPipes+5)& (0+255),b	;volatile
  5655   0009E6  0E01               	movlw	1
  5656   0009E8  6F6C               	movwf	(_inPipes+4)& (0+255),b	;volatile
  5657   0009EA                     
  5658                           ; BSR set to: 0
  5659   0009EA  0EC1               	movlw	193
  5660   0009EC  6F6B               	movwf	(_inPipes+3)& (0+255),b	;volatile
  5661                           
  5662                           ;usb/src/usb_device_hid.c: 231:             break;
  5663   0009EE  EF38  F005         	goto	i2l538
  5664   0009F2                     i2l2747:
  5665                           
  5666                           ; BSR set to: 2
  5667                           ;usb/src/usb_device_hid.c: 233:             inPipes[0].info.Val = 0x00 | 0x80;
  5668   0009F2  0E80               	movlw	128
  5669   0009F4  0100               	movlb	0	; () banked
  5670   0009F6  6F6B               	movwf	(_inPipes+3)& (0+255),b	;volatile
  5671   0009F8                     
  5672                           ; BSR set to: 0
  5673                           ;usb/src/usb_device_hid.c: 234:             idle_rate = SetupPkt.W_Value.byte.HB;
  5674   0009F8  C223 F049          	movff	547,_idle_rate	;volatile
  5675                           
  5676                           ;usb/src/usb_device_hid.c: 236:             break;
  5677   0009FC  EF38  F005         	goto	i2l538
  5678   000A00                     i2l2751:
  5679                           
  5680                           ; BSR set to: 2
  5681                           ;usb/src/usb_device_hid.c: 238:             { inPipes[0].pSrc.bRam = (uint8_t*)&active_p
      +                          rotocol; inPipes[0].wCount.Val = 1; inPipes[0].info.Val = 0x00 | 0x80 | 0x01; };
  5682   000A00  0E48               	movlw	low _active_protocol
  5683   000A02  0100               	movlb	0	; () banked
  5684   000A04  6F68               	movwf	_inPipes& (0+255),b	;volatile
  5685   000A06  6B69               	clrf	(_inPipes+1)& (0+255),b	;volatile
  5686   000A08                     
  5687                           ; BSR set to: 0
  5688   000A08  0E00               	movlw	0
  5689   000A0A  6F6D               	movwf	(_inPipes+5)& (0+255),b	;volatile
  5690   000A0C  0E01               	movlw	1
  5691   000A0E  6F6C               	movwf	(_inPipes+4)& (0+255),b	;volatile
  5692   000A10                     
  5693                           ; BSR set to: 0
  5694   000A10  0E81               	movlw	129
  5695   000A12  6F6B               	movwf	(_inPipes+3)& (0+255),b	;volatile
  5696                           
  5697                           ;usb/src/usb_device_hid.c: 242:             break;
  5698   000A14  EF38  F005         	goto	i2l538
  5699   000A18                     i2l2757:
  5700                           
  5701                           ; BSR set to: 2
  5702                           ;usb/src/usb_device_hid.c: 244:             inPipes[0].info.Val = 0x00 | 0x80;
  5703   000A18  0E80               	movlw	128
  5704   000A1A  0100               	movlb	0	; () banked
  5705   000A1C  6F6B               	movwf	(_inPipes+3)& (0+255),b	;volatile
  5706   000A1E                     
  5707                           ; BSR set to: 0
  5708                           ;usb/src/usb_device_hid.c: 245:             active_protocol = SetupPkt.W_Value.byte.LB;
  5709   000A1E  C222 F048          	movff	546,_active_protocol	;volatile
  5710                           
  5711                           ;usb/src/usb_device_hid.c: 246:             break;
  5712   000A22  EF38  F005         	goto	i2l538
  5713   000A26                     i2l2763:
  5714                           
  5715                           ; BSR set to: 2
  5716   000A26  5121               	movf	33,w,b	;volatile
  5717   000A28  6E01               	movwf	??_USBCheckHIDRequest^0,c
  5718   000A2A  6A02               	clrf	(??_USBCheckHIDRequest+1)^0,c
  5719                           
  5720                           ; Switch on 2 bytes has been partitioned into a top level switch of size 1, and 1 sub-sw
      +                          itches
  5721                           ; Switch size 1, requested type "simple"
  5722                           ; Number of cases is 1, Range of values is 0 to 0
  5723                           ; switch strategies available:
  5724                           ; Name         Instructions Cycles
  5725                           ; simple_byte            4     3 (average)
  5726                           ;	Chosen strategy is simple_byte
  5727   000A2C  5002               	movf	(??_USBCheckHIDRequest+1)^0,w,c
  5728   000A2E  0A00               	xorlw	0	; case 0
  5729   000A30  B4D8               	btfsc	status,2,c
  5730   000A32  EF1D  F005         	goto	i2l4411
  5731   000A36  EF38  F005         	goto	i2l538
  5732   000A3A                     i2l4411:
  5733                           
  5734                           ; BSR set to: 2
  5735                           ; Switch size 1, requested type "simple"
  5736                           ; Number of cases is 6, Range of values is 1 to 11
  5737                           ; switch strategies available:
  5738                           ; Name         Instructions Cycles
  5739                           ; simple_byte           19    10 (average)
  5740                           ;	Chosen strategy is simple_byte
  5741   000A3A  5001               	movf	??_USBCheckHIDRequest^0,w,c
  5742   000A3C  0A01               	xorlw	1	; case 1
  5743   000A3E  B4D8               	btfsc	status,2,c
  5744   000A40  EF38  F005         	goto	i2l538
  5745   000A44  0A03               	xorlw	3	; case 2
  5746   000A46  B4D8               	btfsc	status,2,c
  5747   000A48  EFED  F004         	goto	i2l2741
  5748   000A4C  0A01               	xorlw	1	; case 3
  5749   000A4E  B4D8               	btfsc	status,2,c
  5750   000A50  EF00  F005         	goto	i2l2751
  5751   000A54  0A0A               	xorlw	10	; case 9
  5752   000A56  B4D8               	btfsc	status,2,c
  5753   000A58  EF38  F005         	goto	i2l538
  5754   000A5C  0A03               	xorlw	3	; case 10
  5755   000A5E  B4D8               	btfsc	status,2,c
  5756   000A60  EFF9  F004         	goto	i2l2747
  5757   000A64  0A01               	xorlw	1	; case 11
  5758   000A66  B4D8               	btfsc	status,2,c
  5759   000A68  EF0C  F005         	goto	i2l2757
  5760   000A6C  EF38  F005         	goto	i2l538
  5761   000A70                     i2l538:
  5762   000A70  0012               	return		;funcret
  5763   000A72                     __end_of_USBCheckHIDRequest:
  5764                           	callstack 0
  5765                           
  5766 ;; *************** function _HIDInitialize *****************
  5767 ;; Defined at:
  5768 ;;		line 53 in file "newmain.c"
  5769 ;; Parameters:    Size  Location     Type
  5770 ;;		None
  5771 ;; Auto vars:     Size  Location     Type
  5772 ;;		None
  5773 ;; Return value:  Size  Location     Type
  5774 ;;                  1    wreg      void 
  5775 ;; Registers used:
  5776 ;;		wreg, fsr2l, fsr2h, status,2, status,0, prodl, prodh, cstack
  5777 ;; Tracked objects:
  5778 ;;		On entry : 0/0
  5779 ;;		On exit  : 0/0
  5780 ;;		Unchanged: 0/0
  5781 ;; Data sizes:     COMRAM   BANK0   BANK1  BANK2h  BANK2l
  5782 ;;      Params:         0       0       0       0       0
  5783 ;;      Locals:         0       0       0       0       0
  5784 ;;      Temps:          0       0       0       0       0
  5785 ;;      Totals:         0       0       0       0       0
  5786 ;;Total ram usage:        0 bytes
  5787 ;; Hardware stack levels used: 1
  5788 ;; Hardware stack levels required when called: 2
  5789 ;; This function calls:
  5790 ;;		_USBEnableEndpoint
  5791 ;;		i2_USBTransferOnePacket
  5792 ;; This function is called by:
  5793 ;;		_USER_USB_CALLBACK_EVENT_HANDLER
  5794 ;; This function uses a non-reentrant model
  5795 ;;
  5796                           
  5797                           	psect	text30
  5798   002116                     __ptext30:
  5799                           	callstack 0
  5800   002116                     _HIDInitialize:
  5801                           	callstack 23
  5802   002116                     
  5803                           ;newmain.c: 55:             USBCheckHIDRequest();
  5804   002116  0E00               	movlw	0
  5805   002118  6E36               	movwf	_USBInHandle^0,c
  5806   00211A  0E00               	movlw	0
  5807   00211C  6E37               	movwf	(_USBInHandle+1)^0,c
  5808   00211E                     
  5809                           ;newmain.c: 56:             break;
  5810   00211E  0E1E               	movlw	30
  5811   002120  6E0B               	movwf	USBEnableEndpoint@options^0,c
  5812   002122  0E01               	movlw	1
  5813   002124  EC95  F00F         	call	_USBEnableEndpoint
  5814   002128                     
  5815                           ;newmain.c: 57: 
  5816   002128  0E00               	movlw	0
  5817   00212A  6E01               	movwf	i2USBTransferOnePacket@dir^0,c
  5818   00212C  0E60               	movlw	96
  5819   00212E  6E02               	movwf	i2USBTransferOnePacket@data^0,c
  5820   002130  0E02               	movlw	2
  5821   002132  6E03               	movwf	(i2USBTransferOnePacket@data+1)^0,c
  5822   002134  0E40               	movlw	64
  5823   002136  6E04               	movwf	i2USBTransferOnePacket@len^0,c
  5824   002138  0E01               	movlw	1
  5825   00213A  EC01  F009         	call	i2_USBTransferOnePacket
  5826   00213E  C001  F038         	movff	?i2_USBTransferOnePacket,_USBOutHandle
  5827   002142  C002  F039         	movff	?i2_USBTransferOnePacket+1,_USBOutHandle+1
  5828   002146  0012               	return		;funcret
  5829   002148                     __end_of_HIDInitialize:
  5830                           	callstack 0
  5831                           
  5832 ;; *************** function i2_USBTransferOnePacket *****************
  5833 ;; Defined at:
  5834 ;;		line 999 in file "usb/src/usb_device.c"
  5835 ;; Parameters:    Size  Location     Type
  5836 ;;  ep              1    wreg     unsigned char 
  5837 ;;  dir             1    0[COMRAM] unsigned char 
  5838 ;;  data            2    1[COMRAM] PTR unsigned char 
  5839 ;;		 -> SendData(64), ReceivedData(64), 
  5840 ;;  len             1    3[COMRAM] unsigned char 
  5841 ;; Auto vars:     Size  Location     Type
  5842 ;;  ep              1    8[COMRAM] unsigned char 
  5843 ;;  handle          2    9[COMRAM] PTR volatile struct __BD
  5844 ;;		 -> RAM(767), BDT(32), NULL(0), 
  5845 ;; Return value:  Size  Location     Type
  5846 ;;                  2    0[COMRAM] PTR void 
  5847 ;; Registers used:
  5848 ;;		wreg, fsr2l, fsr2h, status,2, status,0, prodl, prodh
  5849 ;; Tracked objects:
  5850 ;;		On entry : 0/0
  5851 ;;		On exit  : 0/0
  5852 ;;		Unchanged: 0/0
  5853 ;; Data sizes:     COMRAM   BANK0   BANK1  BANK2h  BANK2l
  5854 ;;      Params:         4       0       0       0       0
  5855 ;;      Locals:         3       0       0       0       0
  5856 ;;      Temps:          4       0       0       0       0
  5857 ;;      Totals:        11       0       0       0       0
  5858 ;;Total ram usage:       11 bytes
  5859 ;; Hardware stack levels used: 1
  5860 ;; This function calls:
  5861 ;;		Nothing
  5862 ;; This function is called by:
  5863 ;;		_HIDInitialize
  5864 ;; This function uses a non-reentrant model
  5865 ;;
  5866                           
  5867                           	psect	text31
  5868   001202                     __ptext31:
  5869                           	callstack 0
  5870   001202                     i2_USBTransferOnePacket:
  5871                           	callstack 24
  5872                           
  5873                           ;incstack = 0
  5874                           ;i2USBTransferOnePacket@ep stored from wreg
  5875   001202  6E09               	movwf	i2USBTransferOnePacket@ep^0,c
  5876   001204                     
  5877                           ;usb/src/usb_device.c: 999: void* USBTransferOnePacket(uint8_t ep,uint8_t dir,uint8_t* d
      +                          ata,uint8_t len);usb/src/usb_device.c: 1000: {;usb/src/usb_device.c: 1001:     volatile 
      +                          BDT_ENTRY* handle;;usb/src/usb_device.c: 1004:     if(dir != 0)
  5878   001204  5001               	movf	i2USBTransferOnePacket@dir^0,w,c
  5879   001206  B4D8               	btfsc	status,2,c
  5880   001208  EF08  F009         	goto	i2u145_41
  5881   00120C  EF0A  F009         	goto	i2u145_40
  5882   001210                     i2u145_41:
  5883   001210  EF16  F009         	goto	i2l2675
  5884   001214                     i2u145_40:
  5885   001214                     
  5886                           ;usb/src/usb_device.c: 1005:     {;usb/src/usb_device.c: 1007:         handle = pBDTEntr
      +                          yIn[ep];
  5887   001214  5009               	movf	i2USBTransferOnePacket@ep^0,w,c
  5888   001216  0D02               	mullw	2
  5889   001218  50F3               	movf	243,w,c
  5890   00121A  0F6E               	addlw	low _pBDTEntryIn
  5891   00121C  6ED9               	movwf	fsr2l,c
  5892   00121E  6ADA               	clrf	fsr2h,c
  5893   001220  CFDE F00A          	movff	postinc2,i2USBTransferOnePacket@handle
  5894   001224  CFDD F00B          	movff	postdec2,i2USBTransferOnePacket@handle+1
  5895                           
  5896                           ;usb/src/usb_device.c: 1008:     }
  5897   001228  EF20  F009         	goto	i2l2677
  5898   00122C                     i2l2675:
  5899                           
  5900                           ;usb/src/usb_device.c: 1010:     {;usb/src/usb_device.c: 1012:         handle = pBDTEntr
      +                          yOut[ep];
  5901   00122C  5009               	movf	i2USBTransferOnePacket@ep^0,w,c
  5902   00122E  0D02               	mullw	2
  5903   001230  50F3               	movf	243,w,c
  5904   001232  0F72               	addlw	low _pBDTEntryOut
  5905   001234  6ED9               	movwf	fsr2l,c
  5906   001236  6ADA               	clrf	fsr2h,c
  5907   001238  CFDE F00A          	movff	postinc2,i2USBTransferOnePacket@handle
  5908   00123C  CFDD F00B          	movff	postdec2,i2USBTransferOnePacket@handle+1
  5909   001240                     i2l2677:
  5910                           
  5911                           ;usb/src/usb_device.c: 1017:     if(handle == 0)
  5912   001240  500A               	movf	i2USBTransferOnePacket@handle^0,w,c
  5913   001242  100B               	iorwf	(i2USBTransferOnePacket@handle+1)^0,w,c
  5914   001244  A4D8               	btfss	status,2,c
  5915   001246  EF27  F009         	goto	i2u146_41
  5916   00124A  EF29  F009         	goto	i2u146_40
  5917   00124E                     i2u146_41:
  5918   00124E  EF2F  F009         	goto	i2l2683
  5919   001252                     i2u146_40:
  5920   001252                     
  5921                           ;usb/src/usb_device.c: 1018:     {;usb/src/usb_device.c: 1019:         return 0;
  5922   001252  0E00               	movlw	0
  5923   001254  6E01               	movwf	?i2_USBTransferOnePacket^0,c
  5924   001256  0E00               	movlw	0
  5925   001258  6E02               	movwf	(?i2_USBTransferOnePacket+1)^0,c
  5926   00125A  EF93  F009         	goto	i2l302
  5927   00125E                     i2l2683:
  5928                           
  5929                           ;usb/src/usb_device.c: 1033:     handle->ADR = ((uint16_t)(data));
  5930   00125E  EE20 F002          	lfsr	2,2
  5931   001262  500A               	movf	i2USBTransferOnePacket@handle^0,w,c
  5932   001264  26D9               	addwf	fsr2l,f,c
  5933   001266  500B               	movf	(i2USBTransferOnePacket@handle+1)^0,w,c
  5934   001268  22DA               	addwfc	fsr2h,f,c
  5935   00126A  C002  FFDE         	movff	i2USBTransferOnePacket@data,postinc2
  5936   00126E  C003  FFDD         	movff	i2USBTransferOnePacket@data+1,postdec2
  5937                           
  5938                           ;usb/src/usb_device.c: 1034:     handle->CNT = len;
  5939   001272  EE20 F001          	lfsr	2,1
  5940   001276  500A               	movf	i2USBTransferOnePacket@handle^0,w,c
  5941   001278  26D9               	addwf	fsr2l,f,c
  5942   00127A  500B               	movf	(i2USBTransferOnePacket@handle+1)^0,w,c
  5943   00127C  22DA               	addwfc	fsr2h,f,c
  5944   00127E  C004  FFDF         	movff	i2USBTransferOnePacket@len,indf2
  5945   001282                     
  5946                           ;usb/src/usb_device.c: 1035:     handle->STAT.Val &= 0x40;
  5947   001282  C00A  FFD9         	movff	i2USBTransferOnePacket@handle,fsr2l
  5948   001286  C00B  FFDA         	movff	i2USBTransferOnePacket@handle+1,fsr2h
  5949   00128A  0E40               	movlw	64
  5950   00128C  16DF               	andwf	indf2,f,c
  5951   00128E                     
  5952                           ;usb/src/usb_device.c: 1036:     handle->STAT.Val |= (0x08 & 0x08);
  5953   00128E  C00A  FFD9         	movff	i2USBTransferOnePacket@handle,fsr2l
  5954   001292  C00B  FFDA         	movff	i2USBTransferOnePacket@handle+1,fsr2h
  5955   001296  0E00               	movlw	0
  5956   001298  86DB               	bsf	plusw2,3,c
  5957   00129A                     
  5958                           ;usb/src/usb_device.c: 1037:     handle->STAT.Val |= 0x80;
  5959   00129A  C00A  FFD9         	movff	i2USBTransferOnePacket@handle,fsr2l
  5960   00129E  C00B  FFDA         	movff	i2USBTransferOnePacket@handle+1,fsr2h
  5961   0012A2  0E00               	movlw	0
  5962   0012A4  8EDB               	bsf	plusw2,7,c
  5963   0012A6                     
  5964                           ;usb/src/usb_device.c: 1040:     if(dir != 0)
  5965   0012A6  5001               	movf	i2USBTransferOnePacket@dir^0,w,c
  5966   0012A8  B4D8               	btfsc	status,2,c
  5967   0012AA  EF59  F009         	goto	i2u147_41
  5968   0012AE  EF5B  F009         	goto	i2u147_40
  5969   0012B2                     i2u147_41:
  5970   0012B2  EF76  F009         	goto	i2l2695
  5971   0012B6                     i2u147_40:
  5972   0012B6                     
  5973                           ;usb/src/usb_device.c: 1041:     {;usb/src/usb_device.c: 1043:         pBDTEntryIn[ep] =
      +                           (BDT_ENTRY*)(((uint16_t)pBDTEntryIn[ep]) ^ 0x0004);
  5974   0012B6  5009               	movf	i2USBTransferOnePacket@ep^0,w,c
  5975   0012B8  0D02               	mullw	2
  5976   0012BA  50F3               	movf	243,w,c
  5977   0012BC  0F6E               	addlw	low _pBDTEntryIn
  5978   0012BE  6ED9               	movwf	fsr2l,c
  5979   0012C0  6ADA               	clrf	fsr2h,c
  5980   0012C2  CFDE F005          	movff	postinc2,??i2_USBTransferOnePacket
  5981   0012C6  CFDD F006          	movff	postdec2,??i2_USBTransferOnePacket+1
  5982   0012CA  0E04               	movlw	4
  5983   0012CC  1805               	xorwf	??i2_USBTransferOnePacket^0,w,c
  5984   0012CE  6E07               	movwf	(??i2_USBTransferOnePacket+2)^0,c
  5985   0012D0  5006               	movf	(??i2_USBTransferOnePacket+1)^0,w,c
  5986   0012D2  6E08               	movwf	(??i2_USBTransferOnePacket+3)^0,c
  5987   0012D4  5009               	movf	i2USBTransferOnePacket@ep^0,w,c
  5988   0012D6  0D02               	mullw	2
  5989   0012D8  50F3               	movf	243,w,c
  5990   0012DA  0F6E               	addlw	low _pBDTEntryIn
  5991   0012DC  6ED9               	movwf	fsr2l,c
  5992   0012DE  6ADA               	clrf	fsr2h,c
  5993   0012E0  C007  FFDE         	movff	??i2_USBTransferOnePacket+2,postinc2
  5994   0012E4  C008  FFDD         	movff	??i2_USBTransferOnePacket+3,postdec2
  5995                           
  5996                           ;usb/src/usb_device.c: 1044:     }
  5997   0012E8  EF8F  F009         	goto	i2l2697
  5998   0012EC                     i2l2695:
  5999                           
  6000                           ;usb/src/usb_device.c: 1046:     {;usb/src/usb_device.c: 1048:         pBDTEntryOut[ep] 
      +                          = (BDT_ENTRY*)(((uint16_t)pBDTEntryOut[ep]) ^ 0x0004);
  6001   0012EC  5009               	movf	i2USBTransferOnePacket@ep^0,w,c
  6002   0012EE  0D02               	mullw	2
  6003   0012F0  50F3               	movf	243,w,c
  6004   0012F2  0F72               	addlw	low _pBDTEntryOut
  6005   0012F4  6ED9               	movwf	fsr2l,c
  6006   0012F6  6ADA               	clrf	fsr2h,c
  6007   0012F8  CFDE F005          	movff	postinc2,??i2_USBTransferOnePacket
  6008   0012FC  CFDD F006          	movff	postdec2,??i2_USBTransferOnePacket+1
  6009   001300  0E04               	movlw	4
  6010   001302  1805               	xorwf	??i2_USBTransferOnePacket^0,w,c
  6011   001304  6E07               	movwf	(??i2_USBTransferOnePacket+2)^0,c
  6012   001306  5006               	movf	(??i2_USBTransferOnePacket+1)^0,w,c
  6013   001308  6E08               	movwf	(??i2_USBTransferOnePacket+3)^0,c
  6014   00130A  5009               	movf	i2USBTransferOnePacket@ep^0,w,c
  6015   00130C  0D02               	mullw	2
  6016   00130E  50F3               	movf	243,w,c
  6017   001310  0F72               	addlw	low _pBDTEntryOut
  6018   001312  6ED9               	movwf	fsr2l,c
  6019   001314  6ADA               	clrf	fsr2h,c
  6020   001316  C007  FFDE         	movff	??i2_USBTransferOnePacket+2,postinc2
  6021   00131A  C008  FFDD         	movff	??i2_USBTransferOnePacket+3,postdec2
  6022   00131E                     i2l2697:
  6023                           
  6024                           ;usb/src/usb_device.c: 1050:     return (void*)handle;
  6025   00131E  C00A  F001         	movff	i2USBTransferOnePacket@handle,?i2_USBTransferOnePacket
  6026   001322  C00B  F002         	movff	i2USBTransferOnePacket@handle+1,?i2_USBTransferOnePacket+1
  6027   001326                     i2l302:
  6028   001326  0012               	return		;funcret
  6029   001328                     __end_ofi2_USBTransferOnePacket:
  6030                           	callstack 0
  6031                           
  6032 ;; *************** function _USBEnableEndpoint *****************
  6033 ;; Defined at:
  6034 ;;		line 882 in file "usb/src/usb_device.c"
  6035 ;; Parameters:    Size  Location     Type
  6036 ;;  ep              1    wreg     unsigned char 
  6037 ;;  options         1   10[COMRAM] unsigned char 
  6038 ;; Auto vars:     Size  Location     Type
  6039 ;;  ep              1   13[COMRAM] unsigned char 
  6040 ;;  p               2   11[COMRAM] PTR unsigned char 
  6041 ;;		 -> UEP0(1), 
  6042 ;; Return value:  Size  Location     Type
  6043 ;;                  1    wreg      void 
  6044 ;; Registers used:
  6045 ;;		wreg, fsr2l, fsr2h, status,2, status,0, prodl, prodh, cstack
  6046 ;; Tracked objects:
  6047 ;;		On entry : 0/0
  6048 ;;		On exit  : 0/0
  6049 ;;		Unchanged: 0/0
  6050 ;; Data sizes:     COMRAM   BANK0   BANK1  BANK2h  BANK2l
  6051 ;;      Params:         1       0       0       0       0
  6052 ;;      Locals:         3       0       0       0       0
  6053 ;;      Temps:          0       0       0       0       0
  6054 ;;      Totals:         4       0       0       0       0
  6055 ;;Total ram usage:        4 bytes
  6056 ;; Hardware stack levels used: 1
  6057 ;; Hardware stack levels required when called: 1
  6058 ;; This function calls:
  6059 ;;		_USBConfigureEndpoint
  6060 ;; This function is called by:
  6061 ;;		_HIDInitialize
  6062 ;; This function uses a non-reentrant model
  6063 ;;
  6064                           
  6065                           	psect	text32
  6066   001F2A                     __ptext32:
  6067                           	callstack 0
  6068   001F2A                     _USBEnableEndpoint:
  6069                           	callstack 23
  6070                           
  6071                           ;incstack = 0
  6072                           ;USBEnableEndpoint@ep stored from wreg
  6073   001F2A  6E0E               	movwf	USBEnableEndpoint@ep^0,c
  6074   001F2C                     
  6075                           ;usb/src/usb_device.c: 882: void USBEnableEndpoint(uint8_t ep, uint8_t options);usb/src/
      +                          usb_device.c: 883: {;usb/src/usb_device.c: 884:     unsigned char* p;;usb/src/usb_device
      +                          .c: 888:     if(options & 0x04)
  6076   001F2C  A40B               	btfss	USBEnableEndpoint@options^0,2,c
  6077   001F2E  EF9B  F00F         	goto	i2u143_41
  6078   001F32  EF9D  F00F         	goto	i2u143_40
  6079   001F36                     i2u143_41:
  6080   001F36  EFA2  F00F         	goto	i2l2663
  6081   001F3A                     i2u143_40:
  6082   001F3A                     
  6083                           ;usb/src/usb_device.c: 889:     {;usb/src/usb_device.c: 890:         USBConfigureEndpoin
      +                          t(ep, 0);
  6084   001F3A  0E00               	movlw	0
  6085   001F3C  6E01               	movwf	USBConfigureEndpoint@direction^0,c
  6086   001F3E  500E               	movf	USBEnableEndpoint@ep^0,w,c
  6087   001F40  ECB4  F00D         	call	_USBConfigureEndpoint
  6088   001F44                     i2l2663:
  6089                           
  6090                           ;usb/src/usb_device.c: 892:     if(options & 0x02)
  6091   001F44  A20B               	btfss	USBEnableEndpoint@options^0,1,c
  6092   001F46  EFA7  F00F         	goto	i2u144_41
  6093   001F4A  EFA9  F00F         	goto	i2u144_40
  6094   001F4E                     i2u144_41:
  6095   001F4E  EFAE  F00F         	goto	i2l2667
  6096   001F52                     i2u144_40:
  6097   001F52                     
  6098                           ;usb/src/usb_device.c: 893:     {;usb/src/usb_device.c: 894:         USBConfigureEndpoin
      +                          t(ep, 1);
  6099   001F52  0E01               	movlw	1
  6100   001F54  6E01               	movwf	USBConfigureEndpoint@direction^0,c
  6101   001F56  500E               	movf	USBEnableEndpoint@ep^0,w,c
  6102   001F58  ECB4  F00D         	call	_USBConfigureEndpoint
  6103   001F5C                     i2l2667:
  6104                           
  6105                           ;usb/src/usb_device.c: 903:         p = (unsigned char*)(&UEP0+ep);
  6106   001F5C  0E53               	movlw	83
  6107   001F5E  240E               	addwf	USBEnableEndpoint@ep^0,w,c
  6108   001F60  6E0C               	movwf	USBEnableEndpoint@p^0,c
  6109   001F62  6A0D               	clrf	(USBEnableEndpoint@p+1)^0,c
  6110   001F64  0E0F               	movlw	15
  6111   001F66  220D               	addwfc	(USBEnableEndpoint@p+1)^0,f,c
  6112   001F68                     
  6113                           ;usb/src/usb_device.c: 905:     *p = options;
  6114   001F68  C00C  FFD9         	movff	USBEnableEndpoint@p,fsr2l
  6115   001F6C  C00D  FFDA         	movff	USBEnableEndpoint@p+1,fsr2h
  6116   001F70  C00B  FFDF         	movff	USBEnableEndpoint@options,indf2
  6117   001F74  0012               	return		;funcret
  6118   001F76                     __end_of_USBEnableEndpoint:
  6119                           	callstack 0
  6120                           
  6121 ;; *************** function _USBConfigureEndpoint *****************
  6122 ;; Defined at:
  6123 ;;		line 1547 in file "usb/src/usb_device.c"
  6124 ;; Parameters:    Size  Location     Type
  6125 ;;  EPNum           1    wreg     unsigned char 
  6126 ;;  direction       1    0[COMRAM] unsigned char 
  6127 ;; Auto vars:     Size  Location     Type
  6128 ;;  EPNum           1    7[COMRAM] unsigned char 
  6129 ;;  handle          2    8[COMRAM] PTR volatile struct __BD
  6130 ;;		 -> BDT(32), 
  6131 ;; Return value:  Size  Location     Type
  6132 ;;                  1    wreg      void 
  6133 ;; Registers used:
  6134 ;;		wreg, fsr2l, fsr2h, status,2, status,0, prodl, prodh
  6135 ;; Tracked objects:
  6136 ;;		On entry : 0/0
  6137 ;;		On exit  : 0/0
  6138 ;;		Unchanged: 0/0
  6139 ;; Data sizes:     COMRAM   BANK0   BANK1  BANK2h  BANK2l
  6140 ;;      Params:         1       0       0       0       0
  6141 ;;      Locals:         3       0       0       0       0
  6142 ;;      Temps:          6       0       0       0       0
  6143 ;;      Totals:        10       0       0       0       0
  6144 ;;Total ram usage:       10 bytes
  6145 ;; Hardware stack levels used: 1
  6146 ;; This function calls:
  6147 ;;		Nothing
  6148 ;; This function is called by:
  6149 ;;		_USBEnableEndpoint
  6150 ;; This function uses a non-reentrant model
  6151 ;;
  6152                           
  6153                           	psect	text33
  6154   001B68                     __ptext33:
  6155                           	callstack 0
  6156   001B68                     _USBConfigureEndpoint:
  6157                           	callstack 23
  6158                           
  6159                           ;incstack = 0
  6160                           ;USBConfigureEndpoint@EPNum stored from wreg
  6161   001B68  6E08               	movwf	USBConfigureEndpoint@EPNum^0,c
  6162   001B6A                     
  6163                           ;usb/src/usb_device.c: 1547: static void USBConfigureEndpoint(uint8_t EPNum, uint8_t dir
      +                          ection);usb/src/usb_device.c: 1548: {;usb/src/usb_device.c: 1549:     volatile BDT_ENTRY
      +                          * handle;;usb/src/usb_device.c: 1553:     handle = (volatile BDT_ENTRY*)&BDT[0];
  6164   001B6A  0E00               	movlw	0
  6165   001B6C  6E09               	movwf	USBConfigureEndpoint@handle^0,c
  6166   001B6E  0E02               	movlw	2
  6167   001B70  6E0A               	movwf	(USBConfigureEndpoint@handle+1)^0,c
  6168   001B72                     
  6169                           ;usb/src/usb_device.c: 1554:     handle += (4*EPNum+2*direction+0u);
  6170   001B72  5001               	movf	USBConfigureEndpoint@direction^0,w,c
  6171   001B74  6E02               	movwf	??_USBConfigureEndpoint^0,c
  6172   001B76  6A03               	clrf	(??_USBConfigureEndpoint+1)^0,c
  6173   001B78  90D8               	bcf	status,0,c
  6174   001B7A  3602               	rlcf	??_USBConfigureEndpoint^0,f,c
  6175   001B7C  3603               	rlcf	(??_USBConfigureEndpoint+1)^0,f,c
  6176   001B7E  5008               	movf	USBConfigureEndpoint@EPNum^0,w,c
  6177   001B80  6E04               	movwf	(??_USBConfigureEndpoint+2)^0,c
  6178   001B82  6A05               	clrf	(??_USBConfigureEndpoint+3)^0,c
  6179   001B84  90D8               	bcf	status,0,c
  6180   001B86  3604               	rlcf	(??_USBConfigureEndpoint+2)^0,f,c
  6181   001B88  3605               	rlcf	(??_USBConfigureEndpoint+3)^0,f,c
  6182   001B8A  90D8               	bcf	status,0,c
  6183   001B8C  3604               	rlcf	(??_USBConfigureEndpoint+2)^0,f,c
  6184   001B8E  3605               	rlcf	(??_USBConfigureEndpoint+3)^0,f,c
  6185   001B90  5002               	movf	??_USBConfigureEndpoint^0,w,c
  6186   001B92  2404               	addwf	(??_USBConfigureEndpoint+2)^0,w,c
  6187   001B94  6E06               	movwf	(??_USBConfigureEndpoint+4)^0,c
  6188   001B96  5003               	movf	(??_USBConfigureEndpoint+1)^0,w,c
  6189   001B98  2005               	addwfc	(??_USBConfigureEndpoint+3)^0,w,c
  6190   001B9A  6E07               	movwf	(??_USBConfigureEndpoint+5)^0,c
  6191   001B9C  90D8               	bcf	status,0,c
  6192   001B9E  3606               	rlcf	(??_USBConfigureEndpoint+4)^0,f,c
  6193   001BA0  3607               	rlcf	(??_USBConfigureEndpoint+5)^0,f,c
  6194   001BA2  90D8               	bcf	status,0,c
  6195   001BA4  3606               	rlcf	(??_USBConfigureEndpoint+4)^0,f,c
  6196   001BA6  3607               	rlcf	(??_USBConfigureEndpoint+5)^0,f,c
  6197   001BA8  5006               	movf	(??_USBConfigureEndpoint+4)^0,w,c
  6198   001BAA  2609               	addwf	USBConfigureEndpoint@handle^0,f,c
  6199   001BAC  5007               	movf	(??_USBConfigureEndpoint+5)^0,w,c
  6200   001BAE  220A               	addwfc	(USBConfigureEndpoint@handle+1)^0,f,c
  6201   001BB0                     
  6202                           ;usb/src/usb_device.c: 1556:     handle->STAT.UOWN = 0;
  6203   001BB0  C009  FFD9         	movff	USBConfigureEndpoint@handle,fsr2l
  6204   001BB4  C00A  FFDA         	movff	USBConfigureEndpoint@handle+1,fsr2h
  6205   001BB8  9EDF               	bcf	indf2,7,c
  6206   001BBA                     
  6207                           ;usb/src/usb_device.c: 1561:     if(direction == 0)
  6208   001BBA  5001               	movf	USBConfigureEndpoint@direction^0,w,c
  6209   001BBC  A4D8               	btfss	status,2,c
  6210   001BBE  EFE3  F00D         	goto	i2u142_41
  6211   001BC2  EFE5  F00D         	goto	i2u142_40
  6212   001BC6                     i2u142_41:
  6213   001BC6  EFF1  F00D         	goto	i2l2653
  6214   001BCA                     i2u142_40:
  6215   001BCA                     
  6216                           ;usb/src/usb_device.c: 1562:     {;usb/src/usb_device.c: 1563:         pBDTEntryOut[EPNu
      +                          m] = handle;
  6217   001BCA  5008               	movf	USBConfigureEndpoint@EPNum^0,w,c
  6218   001BCC  0D02               	mullw	2
  6219   001BCE  50F3               	movf	243,w,c
  6220   001BD0  0F72               	addlw	low _pBDTEntryOut
  6221   001BD2  6ED9               	movwf	fsr2l,c
  6222   001BD4  6ADA               	clrf	fsr2h,c
  6223   001BD6  C009  FFDE         	movff	USBConfigureEndpoint@handle,postinc2
  6224   001BDA  C00A  FFDD         	movff	USBConfigureEndpoint@handle+1,postdec2
  6225                           
  6226                           ;usb/src/usb_device.c: 1564:     }
  6227   001BDE  EFFB  F00D         	goto	i2l2655
  6228   001BE2                     i2l2653:
  6229                           
  6230                           ;usb/src/usb_device.c: 1566:     {;usb/src/usb_device.c: 1567:         pBDTEntryIn[EPNum
      +                          ] = handle;
  6231   001BE2  5008               	movf	USBConfigureEndpoint@EPNum^0,w,c
  6232   001BE4  0D02               	mullw	2
  6233   001BE6  50F3               	movf	243,w,c
  6234   001BE8  0F6E               	addlw	low _pBDTEntryIn
  6235   001BEA  6ED9               	movwf	fsr2l,c
  6236   001BEC  6ADA               	clrf	fsr2h,c
  6237   001BEE  C009  FFDE         	movff	USBConfigureEndpoint@handle,postinc2
  6238   001BF2  C00A  FFDD         	movff	USBConfigureEndpoint@handle+1,postdec2
  6239   001BF6                     i2l2655:
  6240                           
  6241                           ;usb/src/usb_device.c: 1571:         handle->STAT.DTS = 0;
  6242   001BF6  C009  FFD9         	movff	USBConfigureEndpoint@handle,fsr2l
  6243   001BFA  C00A  FFDA         	movff	USBConfigureEndpoint@handle+1,fsr2h
  6244   001BFE  9CDF               	bcf	indf2,6,c
  6245   001C00                     
  6246                           ;usb/src/usb_device.c: 1572:         (handle+1)->STAT.DTS = 1;
  6247   001C00  EE20 F004          	lfsr	2,4
  6248   001C04  5009               	movf	USBConfigureEndpoint@handle^0,w,c
  6249   001C06  26D9               	addwf	fsr2l,f,c
  6250   001C08  500A               	movf	(USBConfigureEndpoint@handle+1)^0,w,c
  6251   001C0A  22DA               	addwfc	fsr2h,f,c
  6252   001C0C  8CDF               	bsf	indf2,6,c
  6253   001C0E  0012               	return		;funcret
  6254   001C10                     __end_of_USBConfigureEndpoint:
  6255                           	callstack 0
  6256                           
  6257 ;; *************** function _USBCtrlTrfOutHandler *****************
  6258 ;; Defined at:
  6259 ;;		line 2545 in file "usb/src/usb_device.c"
  6260 ;; Parameters:    Size  Location     Type
  6261 ;;		None
  6262 ;; Auto vars:     Size  Location     Type
  6263 ;;		None
  6264 ;; Return value:  Size  Location     Type
  6265 ;;                  1    wreg      void 
  6266 ;; Registers used:
  6267 ;;		wreg, fsr1l, fsr1h, fsr2l, fsr2h, status,2, status,0, cstack
  6268 ;; Tracked objects:
  6269 ;;		On entry : 0/0
  6270 ;;		On exit  : 0/0
  6271 ;;		Unchanged: 0/0
  6272 ;; Data sizes:     COMRAM   BANK0   BANK1  BANK2h  BANK2l
  6273 ;;      Params:         0       0       0       0       0
  6274 ;;      Locals:         0       0       0       0       0
  6275 ;;      Temps:          0       0       0       0       0
  6276 ;;      Totals:         0       0       0       0       0
  6277 ;;Total ram usage:        0 bytes
  6278 ;; Hardware stack levels used: 1
  6279 ;; Hardware stack levels required when called: 2
  6280 ;; This function calls:
  6281 ;;		_USBCtrlTrfRxService
  6282 ;; This function is called by:
  6283 ;;		_USBCtrlEPService
  6284 ;; This function uses a non-reentrant model
  6285 ;;
  6286                           
  6287                           	psect	text34
  6288   001DB6                     __ptext34:
  6289                           	callstack 0
  6290   001DB6                     _USBCtrlTrfOutHandler:
  6291                           	callstack 23
  6292   001DB6                     
  6293                           ;usb/src/usb_device.c: 2547:     if(controlTransferState == 2)
  6294   001DB6  0E02               	movlw	2
  6295   001DB8  1845               	xorwf	_controlTransferState^0,w,c	;volatile
  6296   001DBA  A4D8               	btfss	status,2,c
  6297   001DBC  EFE2  F00E         	goto	i2u214_41
  6298   001DC0  EFE4  F00E         	goto	i2u214_40
  6299   001DC4                     i2u214_41:
  6300   001DC4  EFE8  F00E         	goto	i2l3277
  6301   001DC8                     i2u214_40:
  6302   001DC8                     
  6303                           ;usb/src/usb_device.c: 2548:     {;usb/src/usb_device.c: 2549:         USBCtrlTrfRxServi
      +                          ce();
  6304   001DC8  ECF2  F005         	call	_USBCtrlTrfRxService	;wreg free
  6305                           
  6306                           ;usb/src/usb_device.c: 2550:     }
  6307   001DCC  EF14  F00F         	goto	i2l452
  6308   001DD0                     i2l3277:
  6309                           
  6310                           ;usb/src/usb_device.c: 2552:     {;usb/src/usb_device.c: 2555:         controlTransferSt
      +                          ate = 0;
  6311   001DD0  0E00               	movlw	0
  6312   001DD2  6E45               	movwf	_controlTransferState^0,c	;volatile
  6313                           
  6314                           ;usb/src/usb_device.c: 2562:         if(BothEP0OutUOWNsSet == 0)
  6315   001DD4  5041               	movf	_BothEP0OutUOWNsSet^0,w,c	;volatile
  6316   001DD6  A4D8               	btfss	status,2,c
  6317   001DD8  EFF0  F00E         	goto	i2u215_41
  6318   001DDC  EFF2  F00E         	goto	i2u215_40
  6319   001DE0                     i2u215_41:
  6320   001DE0  EF12  F00F         	goto	i2l3285
  6321   001DE4                     i2u215_40:
  6322   001DE4                     
  6323                           ;usb/src/usb_device.c: 2563:         {;usb/src/usb_device.c: 2564:             pBDTEntry
      +                          EP0OutNext->CNT = 8;
  6324   001DE4  EE20 F001          	lfsr	2,1
  6325   001DE8  5032               	movf	_pBDTEntryEP0OutNext^0,w,c
  6326   001DEA  26D9               	addwf	fsr2l,f,c
  6327   001DEC  5033               	movf	(_pBDTEntryEP0OutNext+1)^0,w,c
  6328   001DEE  22DA               	addwfc	fsr2h,f,c
  6329   001DF0  0E08               	movlw	8
  6330   001DF2  6EDF               	movwf	indf2,c
  6331                           
  6332                           ;usb/src/usb_device.c: 2565:             pBDTEntryEP0OutNext->ADR = ((uint16_t)(&SetupPk
      +                          t));
  6333   001DF4  EE20 F002          	lfsr	2,2
  6334   001DF8  5032               	movf	_pBDTEntryEP0OutNext^0,w,c
  6335   001DFA  26D9               	addwf	fsr2l,f,c
  6336   001DFC  5033               	movf	(_pBDTEntryEP0OutNext+1)^0,w,c
  6337   001DFE  22DA               	addwfc	fsr2h,f,c
  6338   001E00  0E20               	movlw	32
  6339   001E02  6EDE               	movwf	postinc2,c
  6340   001E04  0E02               	movlw	2
  6341   001E06  6EDD               	movwf	postdec2,c
  6342   001E08                     
  6343                           ;usb/src/usb_device.c: 2566:             pBDTEntryEP0OutNext->STAT.Val = 0x00|(0x08 & 0x
      +                          08)|0x04;
  6344   001E08  C032  FFD9         	movff	_pBDTEntryEP0OutNext,fsr2l
  6345   001E0C  C033  FFDA         	movff	_pBDTEntryEP0OutNext+1,fsr2h
  6346   001E10  0E0C               	movlw	12
  6347   001E12  6EDF               	movwf	indf2,c
  6348   001E14                     
  6349                           ;usb/src/usb_device.c: 2567:             pBDTEntryEP0OutNext->STAT.Val |= 0x80;
  6350   001E14  C032  FFD9         	movff	_pBDTEntryEP0OutNext,fsr2l
  6351   001E18  C033  FFDA         	movff	_pBDTEntryEP0OutNext+1,fsr2h
  6352   001E1C  0E00               	movlw	0
  6353   001E1E  8EDB               	bsf	plusw2,7,c
  6354                           
  6355                           ;usb/src/usb_device.c: 2568:         }
  6356   001E20  EF14  F00F         	goto	i2l452
  6357   001E24                     i2l3285:
  6358                           
  6359                           ;usb/src/usb_device.c: 2570:         {;usb/src/usb_device.c: 2571:             BothEP0Ou
      +                          tUOWNsSet = 0;
  6360   001E24  0E00               	movlw	0
  6361   001E26  6E41               	movwf	_BothEP0OutUOWNsSet^0,c	;volatile
  6362   001E28                     i2l452:
  6363   001E28  0012               	return		;funcret
  6364   001E2A                     __end_of_USBCtrlTrfOutHandler:
  6365                           	callstack 0
  6366                           
  6367 ;; *************** function _USBCtrlTrfRxService *****************
  6368 ;; Defined at:
  6369 ;;		line 1856 in file "usb/src/usb_device.c"
  6370 ;; Parameters:    Size  Location     Type
  6371 ;;		None
  6372 ;; Auto vars:     Size  Location     Type
  6373 ;;  byteToRead      1    1[COMRAM] unsigned char 
  6374 ;;  i               1    0[COMRAM] unsigned char 
  6375 ;; Return value:  Size  Location     Type
  6376 ;;                  1    wreg      void 
  6377 ;; Registers used:
  6378 ;;		wreg, fsr1l, fsr1h, fsr2l, fsr2h, status,2, status,0, cstack
  6379 ;; Tracked objects:
  6380 ;;		On entry : 0/0
  6381 ;;		On exit  : 0/0
  6382 ;;		Unchanged: 0/0
  6383 ;; Data sizes:     COMRAM   BANK0   BANK1  BANK2h  BANK2l
  6384 ;;      Params:         0       0       0       0       0
  6385 ;;      Locals:         2       0       0       0       0
  6386 ;;      Temps:          0       0       0       0       0
  6387 ;;      Totals:         2       0       0       0       0
  6388 ;;Total ram usage:        2 bytes
  6389 ;; Hardware stack levels used: 1
  6390 ;; Hardware stack levels required when called: 1
  6391 ;; This function calls:
  6392 ;;		_USBCtrlEPAllowStatusStage
  6393 ;; This function is called by:
  6394 ;;		_USBCtrlTrfOutHandler
  6395 ;; This function uses a non-reentrant model
  6396 ;;
  6397                           
  6398                           	psect	text35
  6399   000BE4                     __ptext35:
  6400                           	callstack 0
  6401   000BE4                     _USBCtrlTrfRxService:
  6402                           	callstack 23
  6403   000BE4                     
  6404                           ;usb/src/usb_device.c: 1858:     uint8_t byteToRead;;usb/src/usb_device.c: 1859:     uin
      +                          t8_t i;;usb/src/usb_device.c: 1863:     byteToRead = pBDTEntryEP0OutCurrent->CNT;
  6405   000BE4  EE20 F001          	lfsr	2,1
  6406   000BE8  5034               	movf	_pBDTEntryEP0OutCurrent^0,w,c
  6407   000BEA  26D9               	addwf	fsr2l,f,c
  6408   000BEC  5035               	movf	(_pBDTEntryEP0OutCurrent+1)^0,w,c
  6409   000BEE  22DA               	addwfc	fsr2h,f,c
  6410   000BF0  50DF               	movf	indf2,w,c
  6411   000BF2  6E02               	movwf	USBCtrlTrfRxService@byteToRead^0,c
  6412   000BF4                     
  6413                           ;usb/src/usb_device.c: 1869:     if(byteToRead > outPipes[0].wCount.Val)
  6414   000BF4  5002               	movf	USBCtrlTrfRxService@byteToRead^0,w,c
  6415   000BF6  0100               	movlb	0	; () banked
  6416   000BF8  5D64               	subwf	(_outPipes+4)& (0+255),w,b	;volatile
  6417   000BFA  0E00               	movlw	0
  6418   000BFC  5965               	subwfb	(_outPipes+5)& (0+255),w,b	;volatile
  6419   000BFE  B0D8               	btfsc	status,0,c
  6420   000C00  EF04  F006         	goto	i2u207_41
  6421   000C04  EF06  F006         	goto	i2u207_40
  6422   000C08                     i2u207_41:
  6423   000C08  EF08  F006         	goto	i2l3153
  6424   000C0C                     i2u207_40:
  6425   000C0C                     
  6426                           ; BSR set to: 0
  6427                           ;usb/src/usb_device.c: 1870:     {;usb/src/usb_device.c: 1871:         byteToRead = outP
      +                          ipes[0].wCount.Val;
  6428   000C0C  C064  F002         	movff	_outPipes+4,USBCtrlTrfRxService@byteToRead	;volatile
  6429   000C10                     i2l3153:
  6430                           
  6431                           ; BSR set to: 0
  6432                           ;usb/src/usb_device.c: 1874:     outPipes[0].wCount.Val -= byteToRead;
  6433   000C10  5002               	movf	USBCtrlTrfRxService@byteToRead^0,w,c
  6434   000C12  5F64               	subwf	(_outPipes+4)& (0+255),f,b	;volatile
  6435   000C14  0E00               	movlw	0
  6436   000C16  5B65               	subwfb	(_outPipes+5)& (0+255),f,b	;volatile
  6437   000C18                     
  6438                           ; BSR set to: 0
  6439                           ;usb/src/usb_device.c: 1878:     for(i=0;i<byteToRead;i++)
  6440   000C18  0E00               	movlw	0
  6441   000C1A  6E01               	movwf	USBCtrlTrfRxService@i^0,c
  6442   000C1C  EF1F  F006         	goto	i2l3163
  6443   000C20                     i2l3157:
  6444                           
  6445                           ; BSR set to: 0
  6446                           ;usb/src/usb_device.c: 1879:     {;usb/src/usb_device.c: 1880:         *outPipes[0].pDst
      +                          .bRam++ = CtrlTrfData[i];
  6447   000C20  0E28               	movlw	40
  6448   000C22  2401               	addwf	USBCtrlTrfRxService@i^0,w,c
  6449   000C24  6ED9               	movwf	fsr2l,c
  6450   000C26  6ADA               	clrf	fsr2h,c
  6451   000C28  0E02               	movlw	2
  6452   000C2A  22DA               	addwfc	fsr2h,f,c
  6453   000C2C  C060  FFE1         	movff	_outPipes,fsr1l	;volatile
  6454   000C30  C061  FFE2         	movff	_outPipes+1,fsr1h	;volatile
  6455   000C34  CFDF FFE7          	movff	indf2,indf1
  6456   000C38                     
  6457                           ; BSR set to: 0
  6458   000C38  4B60               	infsnz	_outPipes& (0+255),f,b	;volatile
  6459   000C3A  2B61               	incf	(_outPipes+1)& (0+255),f,b	;volatile
  6460   000C3C                     
  6461                           ; BSR set to: 0
  6462                           ;usb/src/usb_device.c: 1881:     }
  6463   000C3C  2A01               	incf	USBCtrlTrfRxService@i^0,f,c
  6464   000C3E                     i2l3163:
  6465                           
  6466                           ; BSR set to: 0
  6467   000C3E  5002               	movf	USBCtrlTrfRxService@byteToRead^0,w,c
  6468   000C40  5C01               	subwf	USBCtrlTrfRxService@i^0,w,c
  6469   000C42  A0D8               	btfss	status,0,c
  6470   000C44  EF26  F006         	goto	i2u208_41
  6471   000C48  EF28  F006         	goto	i2u208_40
  6472   000C4C                     i2u208_41:
  6473   000C4C  EF10  F006         	goto	i2l3157
  6474   000C50                     i2u208_40:
  6475   000C50                     
  6476                           ; BSR set to: 0
  6477                           ;usb/src/usb_device.c: 1885:     if(outPipes[0].wCount.Val > 0)
  6478   000C50  5164               	movf	(_outPipes+4)& (0+255),w,b	;volatile
  6479   000C52  1165               	iorwf	(_outPipes+5)& (0+255),w,b	;volatile
  6480   000C54  B4D8               	btfsc	status,2,c
  6481   000C56  EF2F  F006         	goto	i2u209_41
  6482   000C5A  EF31  F006         	goto	i2u209_40
  6483   000C5E                     i2u209_41:
  6484   000C5E  EF6A  F006         	goto	i2l3179
  6485   000C62                     i2u209_40:
  6486   000C62                     
  6487                           ; BSR set to: 0
  6488                           ;usb/src/usb_device.c: 1886:     {;usb/src/usb_device.c: 1887:         pBDTEntryEP0OutNe
      +                          xt->CNT = 8;
  6489   000C62  EE20 F001          	lfsr	2,1
  6490   000C66  5032               	movf	_pBDTEntryEP0OutNext^0,w,c
  6491   000C68  26D9               	addwf	fsr2l,f,c
  6492   000C6A  5033               	movf	(_pBDTEntryEP0OutNext+1)^0,w,c
  6493   000C6C  22DA               	addwfc	fsr2h,f,c
  6494   000C6E  0E08               	movlw	8
  6495   000C70  6EDF               	movwf	indf2,c
  6496                           
  6497                           ;usb/src/usb_device.c: 1888:         pBDTEntryEP0OutNext->ADR = ((uint16_t)(&CtrlTrfData
      +                          ));
  6498   000C72  EE20 F002          	lfsr	2,2
  6499   000C76  5032               	movf	_pBDTEntryEP0OutNext^0,w,c
  6500   000C78  26D9               	addwf	fsr2l,f,c
  6501   000C7A  5033               	movf	(_pBDTEntryEP0OutNext+1)^0,w,c
  6502   000C7C  22DA               	addwfc	fsr2h,f,c
  6503   000C7E  0E28               	movlw	40
  6504   000C80  6EDE               	movwf	postinc2,c
  6505   000C82  0E02               	movlw	2
  6506   000C84  6EDD               	movwf	postdec2,c
  6507   000C86                     
  6508                           ; BSR set to: 0
  6509                           ;usb/src/usb_device.c: 1889:         if(pBDTEntryEP0OutCurrent->STAT.DTS == 0)
  6510   000C86  C034  FFD9         	movff	_pBDTEntryEP0OutCurrent,fsr2l
  6511   000C8A  C035  FFDA         	movff	_pBDTEntryEP0OutCurrent+1,fsr2h
  6512   000C8E  BCDF               	btfsc	indf2,6,c
  6513   000C90  EF4C  F006         	goto	i2u210_41
  6514   000C94  EF4E  F006         	goto	i2u210_40
  6515   000C98                     i2u210_41:
  6516   000C98  EF5C  F006         	goto	i2l3175
  6517   000C9C                     i2u210_40:
  6518   000C9C                     
  6519                           ; BSR set to: 0
  6520                           ;usb/src/usb_device.c: 1890:         {;usb/src/usb_device.c: 1891:             pBDTEntry
      +                          EP0OutNext->STAT.Val = 0x40|(0x08 & 0x08);
  6521   000C9C  C032  FFD9         	movff	_pBDTEntryEP0OutNext,fsr2l
  6522   000CA0  C033  FFDA         	movff	_pBDTEntryEP0OutNext+1,fsr2h
  6523   000CA4  0E48               	movlw	72
  6524   000CA6  6EDF               	movwf	indf2,c
  6525   000CA8                     
  6526                           ; BSR set to: 0
  6527                           ;usb/src/usb_device.c: 1892:             pBDTEntryEP0OutNext->STAT.Val |= 0x80;
  6528   000CA8  C032  FFD9         	movff	_pBDTEntryEP0OutNext,fsr2l
  6529   000CAC  C033  FFDA         	movff	_pBDTEntryEP0OutNext+1,fsr2h
  6530   000CB0  0E00               	movlw	0
  6531   000CB2  8EDB               	bsf	plusw2,7,c
  6532                           
  6533                           ;usb/src/usb_device.c: 1893:         }
  6534   000CB4  EF93  F006         	goto	i2l384
  6535   000CB8                     i2l3175:
  6536                           
  6537                           ; BSR set to: 0
  6538                           ;usb/src/usb_device.c: 1895:         {;usb/src/usb_device.c: 1896:             pBDTEntry
      +                          EP0OutNext->STAT.Val = 0x00|(0x08 & 0x08);
  6539   000CB8  C032  FFD9         	movff	_pBDTEntryEP0OutNext,fsr2l
  6540   000CBC  C033  FFDA         	movff	_pBDTEntryEP0OutNext+1,fsr2h
  6541   000CC0  0E08               	movlw	8
  6542   000CC2  6EDF               	movwf	indf2,c
  6543   000CC4                     
  6544                           ; BSR set to: 0
  6545                           ;usb/src/usb_device.c: 1897:             pBDTEntryEP0OutNext->STAT.Val |= 0x80;
  6546   000CC4  C032  FFD9         	movff	_pBDTEntryEP0OutNext,fsr2l
  6547   000CC8  C033  FFDA         	movff	_pBDTEntryEP0OutNext+1,fsr2h
  6548   000CCC  0E00               	movlw	0
  6549   000CCE  8EDB               	bsf	plusw2,7,c
  6550   000CD0  EF93  F006         	goto	i2l384
  6551   000CD4                     i2l3179:
  6552                           
  6553                           ; BSR set to: 0
  6554                           ;usb/src/usb_device.c: 1901:     {;usb/src/usb_device.c: 1905:         pBDTEntryEP0OutNe
      +                          xt->CNT = 8;
  6555   000CD4  EE20 F001          	lfsr	2,1
  6556   000CD8  5032               	movf	_pBDTEntryEP0OutNext^0,w,c
  6557   000CDA  26D9               	addwf	fsr2l,f,c
  6558   000CDC  5033               	movf	(_pBDTEntryEP0OutNext+1)^0,w,c
  6559   000CDE  22DA               	addwfc	fsr2h,f,c
  6560   000CE0  0E08               	movlw	8
  6561   000CE2  6EDF               	movwf	indf2,c
  6562                           
  6563                           ;usb/src/usb_device.c: 1906:         pBDTEntryEP0OutNext->ADR = ((uint16_t)(&SetupPkt));
  6564   000CE4  EE20 F002          	lfsr	2,2
  6565   000CE8  5032               	movf	_pBDTEntryEP0OutNext^0,w,c
  6566   000CEA  26D9               	addwf	fsr2l,f,c
  6567   000CEC  5033               	movf	(_pBDTEntryEP0OutNext+1)^0,w,c
  6568   000CEE  22DA               	addwfc	fsr2h,f,c
  6569   000CF0  0E20               	movlw	32
  6570   000CF2  6EDE               	movwf	postinc2,c
  6571   000CF4  0E02               	movlw	2
  6572   000CF6  6EDD               	movwf	postdec2,c
  6573   000CF8                     
  6574                           ; BSR set to: 0
  6575                           ;usb/src/usb_device.c: 1910:         pBDTEntryEP0OutNext->STAT.Val = 0x04;
  6576   000CF8  C032  FFD9         	movff	_pBDTEntryEP0OutNext,fsr2l
  6577   000CFC  C033  FFDA         	movff	_pBDTEntryEP0OutNext+1,fsr2h
  6578   000D00  0E04               	movlw	4
  6579   000D02  6EDF               	movwf	indf2,c
  6580   000D04                     
  6581                           ; BSR set to: 0
  6582                           ;usb/src/usb_device.c: 1911:         pBDTEntryEP0OutNext->STAT.Val |= 0x80;
  6583   000D04  C032  FFD9         	movff	_pBDTEntryEP0OutNext,fsr2l
  6584   000D08  C033  FFDA         	movff	_pBDTEntryEP0OutNext+1,fsr2h
  6585   000D0C  0E00               	movlw	0
  6586   000D0E  8EDB               	bsf	plusw2,7,c
  6587   000D10                     
  6588                           ; BSR set to: 0
  6589   000D10  9F63               	bcf	(_outPipes+3)& (0+255),7,b	;volatile
  6590   000D12                     
  6591                           ; BSR set to: 0
  6592                           ;usb/src/usb_device.c: 1945:         if(USBDeferStatusStagePacket == 0)
  6593   000D12  503F               	movf	_USBDeferStatusStagePacket^0,w,c	;volatile
  6594   000D14  A4D8               	btfss	status,2,c
  6595   000D16  EF8F  F006         	goto	i2u211_41
  6596   000D1A  EF91  F006         	goto	i2u211_40
  6597   000D1E                     i2u211_41:
  6598   000D1E  EF93  F006         	goto	i2l384
  6599   000D22                     i2u211_40:
  6600   000D22                     
  6601                           ; BSR set to: 0
  6602                           ;usb/src/usb_device.c: 1946:         {;usb/src/usb_device.c: 1947:             USBCtrlEP
      +                          AllowStatusStage();
  6603   000D22  ECBB  F00B         	call	_USBCtrlEPAllowStatusStage	;wreg free
  6604   000D26                     i2l384:
  6605   000D26  0012               	return		;funcret
  6606   000D28                     __end_of_USBCtrlTrfRxService:
  6607                           	callstack 0
  6608                           
  6609 ;; *************** function _USBCtrlEPAllowStatusStage *****************
  6610 ;; Defined at:
  6611 ;;		line 1420 in file "usb/src/usb_device.c"
  6612 ;; Parameters:    Size  Location     Type
  6613 ;;		None
  6614 ;; Auto vars:     Size  Location     Type
  6615 ;;		None
  6616 ;; Return value:  Size  Location     Type
  6617 ;;                  1    wreg      void 
  6618 ;; Registers used:
  6619 ;;		wreg, fsr2l, fsr2h, status,2, status,0
  6620 ;; Tracked objects:
  6621 ;;		On entry : 0/0
  6622 ;;		On exit  : 0/0
  6623 ;;		Unchanged: 0/0
  6624 ;; Data sizes:     COMRAM   BANK0   BANK1  BANK2h  BANK2l
  6625 ;;      Params:         0       0       0       0       0
  6626 ;;      Locals:         0       0       0       0       0
  6627 ;;      Temps:          0       0       0       0       0
  6628 ;;      Totals:         0       0       0       0       0
  6629 ;;Total ram usage:        0 bytes
  6630 ;; Hardware stack levels used: 1
  6631 ;; This function calls:
  6632 ;;		Nothing
  6633 ;; This function is called by:
  6634 ;;		_USBDeviceTasks
  6635 ;;		_USBCtrlEPServiceComplete
  6636 ;;		_USBCtrlTrfRxService
  6637 ;; This function uses a non-reentrant model
  6638 ;;
  6639                           
  6640                           	psect	text36
  6641   001776                     __ptext36:
  6642                           	callstack 0
  6643   001776                     _USBCtrlEPAllowStatusStage:
  6644                           	callstack 23
  6645   001776                     
  6646                           ;usb/src/usb_device.c: 1427:     if(USBStatusStageEnabledFlag1 == 0)
  6647   001776  503E               	movf	_USBStatusStageEnabledFlag1^0,w,c	;volatile
  6648   001778  A4D8               	btfss	status,2,c
  6649   00177A  EFC1  F00B         	goto	i2u162_41
  6650   00177E  EFC3  F00B         	goto	i2u162_40
  6651   001782                     i2u162_41:
  6652   001782  EF32  F00C         	goto	i2l332
  6653   001786                     i2u162_40:
  6654   001786                     
  6655                           ;usb/src/usb_device.c: 1428:     {;usb/src/usb_device.c: 1429:         USBStatusStageEna
      +                          bledFlag1 = 1;
  6656   001786  0E01               	movlw	1
  6657   001788  6E3E               	movwf	_USBStatusStageEnabledFlag1^0,c	;volatile
  6658                           
  6659                           ;usb/src/usb_device.c: 1430:         if(USBStatusStageEnabledFlag2 == 0)
  6660   00178A  503D               	movf	_USBStatusStageEnabledFlag2^0,w,c	;volatile
  6661   00178C  A4D8               	btfss	status,2,c
  6662   00178E  EFCB  F00B         	goto	i2u163_41
  6663   001792  EFCD  F00B         	goto	i2u163_40
  6664   001796                     i2u163_41:
  6665   001796  EF32  F00C         	goto	i2l332
  6666   00179A                     i2u163_40:
  6667   00179A                     
  6668                           ;usb/src/usb_device.c: 1431:         {;usb/src/usb_device.c: 1432:             USBStatus
      +                          StageEnabledFlag2 = 1;
  6669   00179A  0E01               	movlw	1
  6670   00179C  6E3D               	movwf	_USBStatusStageEnabledFlag2^0,c	;volatile
  6671   00179E                     
  6672                           ;usb/src/usb_device.c: 1436:             if(controlTransferState == 2)
  6673   00179E  0E02               	movlw	2
  6674   0017A0  1845               	xorwf	_controlTransferState^0,w,c	;volatile
  6675   0017A2  A4D8               	btfss	status,2,c
  6676   0017A4  EFD6  F00B         	goto	i2u164_41
  6677   0017A8  EFD8  F00B         	goto	i2u164_40
  6678   0017AC                     i2u164_41:
  6679   0017AC  EFEE  F00B         	goto	i2l2861
  6680   0017B0                     i2u164_40:
  6681   0017B0                     
  6682                           ;usb/src/usb_device.c: 1437:             {;usb/src/usb_device.c: 1438:                 p
      +                          BDTEntryIn[0]->CNT = 0;
  6683   0017B0  0100               	movlb	0	; () banked
  6684   0017B2  EE20 F001          	lfsr	2,1
  6685   0017B6  516E               	movf	_pBDTEntryIn& (0+255),w,b
  6686   0017B8  26D9               	addwf	fsr2l,f,c
  6687   0017BA  516F               	movf	(_pBDTEntryIn+1)& (0+255),w,b
  6688   0017BC  22DA               	addwfc	fsr2h,f,c
  6689   0017BE  6ADF               	clrf	indf2,c
  6690   0017C0                     
  6691                           ; BSR set to: 0
  6692                           ;usb/src/usb_device.c: 1439:                 pBDTEntryIn[0]->STAT.Val = 0x40|(0x08 & 0x0
      +                          8);
  6693   0017C0  C06E  FFD9         	movff	_pBDTEntryIn,fsr2l
  6694   0017C4  C06F  FFDA         	movff	_pBDTEntryIn+1,fsr2h
  6695   0017C8  0E48               	movlw	72
  6696   0017CA  6EDF               	movwf	indf2,c
  6697   0017CC                     
  6698                           ; BSR set to: 0
  6699                           ;usb/src/usb_device.c: 1440:                 pBDTEntryIn[0]->STAT.Val |= 0x80;
  6700   0017CC  C06E  FFD9         	movff	_pBDTEntryIn,fsr2l
  6701   0017D0  C06F  FFDA         	movff	_pBDTEntryIn+1,fsr2h
  6702   0017D4  0E00               	movlw	0
  6703   0017D6  8EDB               	bsf	plusw2,7,c
  6704                           
  6705                           ;usb/src/usb_device.c: 1441:             }
  6706   0017D8  EF32  F00C         	goto	i2l332
  6707   0017DC                     i2l2861:
  6708   0017DC  0445               	decf	_controlTransferState^0,w,c	;volatile
  6709   0017DE  A4D8               	btfss	status,2,c
  6710   0017E0  EFF4  F00B         	goto	i2u165_41
  6711   0017E4  EFF6  F00B         	goto	i2u165_40
  6712   0017E8                     i2u165_41:
  6713   0017E8  EF32  F00C         	goto	i2l328
  6714   0017EC                     i2u165_40:
  6715   0017EC                     
  6716                           ;usb/src/usb_device.c: 1443:             {;usb/src/usb_device.c: 1444:                 B
      +                          othEP0OutUOWNsSet = 0;
  6717   0017EC  0E00               	movlw	0
  6718   0017EE  6E41               	movwf	_BothEP0OutUOWNsSet^0,c	;volatile
  6719   0017F0                     
  6720                           ;usb/src/usb_device.c: 1449:                     pBDTEntryEP0OutCurrent->CNT = 8;
  6721   0017F0  EE20 F001          	lfsr	2,1
  6722   0017F4  5034               	movf	_pBDTEntryEP0OutCurrent^0,w,c
  6723   0017F6  26D9               	addwf	fsr2l,f,c
  6724   0017F8  5035               	movf	(_pBDTEntryEP0OutCurrent+1)^0,w,c
  6725   0017FA  22DA               	addwfc	fsr2h,f,c
  6726   0017FC  0E08               	movlw	8
  6727   0017FE  6EDF               	movwf	indf2,c
  6728   001800                     
  6729                           ;usb/src/usb_device.c: 1450:                     pBDTEntryEP0OutCurrent->ADR = ((uint16_
      +                          t)(&SetupPkt));
  6730   001800  EE20 F002          	lfsr	2,2
  6731   001804  5034               	movf	_pBDTEntryEP0OutCurrent^0,w,c
  6732   001806  26D9               	addwf	fsr2l,f,c
  6733   001808  5035               	movf	(_pBDTEntryEP0OutCurrent+1)^0,w,c
  6734   00180A  22DA               	addwfc	fsr2h,f,c
  6735   00180C  0E20               	movlw	32
  6736   00180E  6EDE               	movwf	postinc2,c
  6737   001810  0E02               	movlw	2
  6738   001812  6EDD               	movwf	postdec2,c
  6739   001814                     
  6740                           ;usb/src/usb_device.c: 1451:                     pBDTEntryEP0OutCurrent->STAT.Val = 0x04
      +                          ;
  6741   001814  C034  FFD9         	movff	_pBDTEntryEP0OutCurrent,fsr2l
  6742   001818  C035  FFDA         	movff	_pBDTEntryEP0OutCurrent+1,fsr2h
  6743   00181C  0E04               	movlw	4
  6744   00181E  6EDF               	movwf	indf2,c
  6745   001820                     
  6746                           ;usb/src/usb_device.c: 1452:                     pBDTEntryEP0OutCurrent->STAT.Val |= 0x8
      +                          0;
  6747   001820  C034  FFD9         	movff	_pBDTEntryEP0OutCurrent,fsr2l
  6748   001824  C035  FFDA         	movff	_pBDTEntryEP0OutCurrent+1,fsr2h
  6749   001828  0E00               	movlw	0
  6750   00182A  8EDB               	bsf	plusw2,7,c
  6751   00182C                     
  6752                           ;usb/src/usb_device.c: 1453:                     BothEP0OutUOWNsSet = 1;
  6753   00182C  0E01               	movlw	1
  6754   00182E  6E41               	movwf	_BothEP0OutUOWNsSet^0,c	;volatile
  6755   001830                     
  6756                           ;usb/src/usb_device.c: 1457:                 pBDTEntryEP0OutNext->CNT = 8;
  6757   001830  EE20 F001          	lfsr	2,1
  6758   001834  5032               	movf	_pBDTEntryEP0OutNext^0,w,c
  6759   001836  26D9               	addwf	fsr2l,f,c
  6760   001838  5033               	movf	(_pBDTEntryEP0OutNext+1)^0,w,c
  6761   00183A  22DA               	addwfc	fsr2h,f,c
  6762   00183C  0E08               	movlw	8
  6763   00183E  6EDF               	movwf	indf2,c
  6764   001840                     
  6765                           ;usb/src/usb_device.c: 1458:                 pBDTEntryEP0OutNext->ADR = ((uint16_t)(&Set
      +                          upPkt));
  6766   001840  EE20 F002          	lfsr	2,2
  6767   001844  5032               	movf	_pBDTEntryEP0OutNext^0,w,c
  6768   001846  26D9               	addwf	fsr2l,f,c
  6769   001848  5033               	movf	(_pBDTEntryEP0OutNext+1)^0,w,c
  6770   00184A  22DA               	addwfc	fsr2h,f,c
  6771   00184C  0E20               	movlw	32
  6772   00184E  6EDE               	movwf	postinc2,c
  6773   001850  0E02               	movlw	2
  6774   001852  6EDD               	movwf	postdec2,c
  6775   001854                     
  6776                           ;usb/src/usb_device.c: 1459:                 pBDTEntryEP0OutNext->STAT.Val = 0x80;
  6777   001854  C032  FFD9         	movff	_pBDTEntryEP0OutNext,fsr2l
  6778   001858  C033  FFDA         	movff	_pBDTEntryEP0OutNext+1,fsr2h
  6779   00185C  0E80               	movlw	128
  6780   00185E  6EDF               	movwf	indf2,c
  6781   001860  EF32  F00C         	goto	i2l332
  6782   001864                     i2l328:
  6783   001864                     i2l332:
  6784   001864  0012               	return		;funcret
  6785   001866                     __end_of_USBCtrlEPAllowStatusStage:
  6786                           	callstack 0
  6787                           
  6788 ;; *************** function _USBCtrlTrfInHandler *****************
  6789 ;; Defined at:
  6790 ;;		line 2599 in file "usb/src/usb_device.c"
  6791 ;; Parameters:    Size  Location     Type
  6792 ;;		None
  6793 ;; Auto vars:     Size  Location     Type
  6794 ;;  lastDTS         1    1[COMRAM] unsigned char 
  6795 ;; Return value:  Size  Location     Type
  6796 ;;                  1    wreg      void 
  6797 ;; Registers used:
  6798 ;;		wreg, fsr1l, fsr1h, fsr2l, fsr2h, status,2, status,0, tblptrl, tblptrh, tblptru, cstack
  6799 ;; Tracked objects:
  6800 ;;		On entry : 0/0
  6801 ;;		On exit  : 0/0
  6802 ;;		Unchanged: 0/0
  6803 ;; Data sizes:     COMRAM   BANK0   BANK1  BANK2h  BANK2l
  6804 ;;      Params:         0       0       0       0       0
  6805 ;;      Locals:         1       0       0       0       0
  6806 ;;      Temps:          0       0       0       0       0
  6807 ;;      Totals:         1       0       0       0       0
  6808 ;;Total ram usage:        1 bytes
  6809 ;; Hardware stack levels used: 1
  6810 ;; Hardware stack levels required when called: 1
  6811 ;; This function calls:
  6812 ;;		_USBCtrlTrfTxService
  6813 ;; This function is called by:
  6814 ;;		_USBCtrlEPService
  6815 ;; This function uses a non-reentrant model
  6816 ;;
  6817                           
  6818                           	psect	text37
  6819   00166A                     __ptext37:
  6820                           	callstack 0
  6821   00166A                     _USBCtrlTrfInHandler:
  6822                           	callstack 24
  6823   00166A                     
  6824                           ;usb/src/usb_device.c: 2601:     uint8_t lastDTS;;usb/src/usb_device.c: 2603:     lastDT
      +                          S = pBDTEntryIn[0]->STAT.DTS;
  6825   00166A  C06E  FFD9         	movff	_pBDTEntryIn,fsr2l
  6826   00166E  C06F  FFDA         	movff	_pBDTEntryIn+1,fsr2h
  6827   001672  0100               	movlb	0	; () banked
  6828   001674  0E00               	movlw	0
  6829   001676  BCDF               	btfsc	indf2,6,c
  6830   001678  0E01               	movlw	1
  6831   00167A  6E02               	movwf	USBCtrlTrfInHandler@lastDTS^0,c
  6832   00167C                     
  6833                           ; BSR set to: 0
  6834                           ;usb/src/usb_device.c: 2606:     pBDTEntryIn[0] = (volatile BDT_ENTRY*)(((uint16_t)pBDTE
      +                          ntryIn[0]) ^ 0x0004);
  6835   00167C  0E04               	movlw	4
  6836   00167E  196E               	xorwf	_pBDTEntryIn& (0+255),w,b
  6837   001680  6F6E               	movwf	_pBDTEntryIn& (0+255),b
  6838   001682  516F               	movf	(_pBDTEntryIn+1)& (0+255),w,b
  6839   001684  6F6F               	movwf	(_pBDTEntryIn+1)& (0+255),b
  6840   001686                     
  6841                           ; BSR set to: 0
  6842                           ;usb/src/usb_device.c: 2611:     if(USBDeviceState == ADR_PENDING_STATE)
  6843   001686  0E08               	movlw	8
  6844   001688  1847               	xorwf	_USBDeviceState^0,w,c	;volatile
  6845   00168A  A4D8               	btfss	status,2,c
  6846   00168C  EF4A  F00B         	goto	i2u216_41
  6847   001690  EF4C  F00B         	goto	i2u216_40
  6848   001694                     i2u216_41:
  6849   001694  EF5F  F00B         	goto	i2l3301
  6850   001698                     i2u216_40:
  6851   001698                     
  6852                           ; BSR set to: 0
  6853                           ;usb/src/usb_device.c: 2612:     {;usb/src/usb_device.c: 2613:         UADDR = (SetupPkt
      +                          .bDevADR & 0x7F);
  6854   001698  0102               	movlb	2	; () banked
  6855   00169A  5122               	movf	34,w,b	;volatile
  6856   00169C  0B7F               	andlw	127
  6857   00169E  010F               	movlb	15	; () banked
  6858   0016A0  6F5C               	movwf	92,b	;volatile
  6859   0016A2                     
  6860                           ; BSR set to: 15
  6861                           ;usb/src/usb_device.c: 2614:         if(UADDR != 0u)
  6862   0016A2  515C               	movf	92,w,b	;volatile
  6863   0016A4  B4D8               	btfsc	status,2,c
  6864   0016A6  EF57  F00B         	goto	i2u217_41
  6865   0016AA  EF59  F00B         	goto	i2u217_40
  6866   0016AE                     i2u217_41:
  6867   0016AE  EF5D  F00B         	goto	i2l3299
  6868   0016B2                     i2u217_40:
  6869   0016B2                     
  6870                           ; BSR set to: 15
  6871                           ;usb/src/usb_device.c: 2615:         {;usb/src/usb_device.c: 2616:             USBDevice
      +                          State=ADDRESS_STATE;
  6872   0016B2  0E10               	movlw	16
  6873   0016B4  6E47               	movwf	_USBDeviceState^0,c	;volatile
  6874                           
  6875                           ;usb/src/usb_device.c: 2617:         }
  6876   0016B6  EF5F  F00B         	goto	i2l3301
  6877   0016BA                     i2l3299:
  6878                           
  6879                           ; BSR set to: 15
  6880                           ;usb/src/usb_device.c: 2619:         {;usb/src/usb_device.c: 2620:             USBDevice
      +                          State=DEFAULT_STATE;
  6881   0016BA  0E04               	movlw	4
  6882   0016BC  6E47               	movwf	_USBDeviceState^0,c	;volatile
  6883   0016BE                     i2l3301:
  6884                           
  6885                           ;usb/src/usb_device.c: 2625:     if(controlTransferState == 1)
  6886   0016BE  0445               	decf	_controlTransferState^0,w,c	;volatile
  6887   0016C0  A4D8               	btfss	status,2,c
  6888   0016C2  EF65  F00B         	goto	i2u218_41
  6889   0016C6  EF67  F00B         	goto	i2u218_40
  6890   0016CA                     i2u218_41:
  6891   0016CA  EFAF  F00B         	goto	i2l458
  6892   0016CE                     i2u218_40:
  6893   0016CE                     
  6894                           ;usb/src/usb_device.c: 2626:     {;usb/src/usb_device.c: 2627:         pBDTEntryIn[0]->A
      +                          DR = ((uint16_t)(CtrlTrfData));
  6895   0016CE  0100               	movlb	0	; () banked
  6896   0016D0  EE20 F002          	lfsr	2,2
  6897   0016D4  516E               	movf	_pBDTEntryIn& (0+255),w,b
  6898   0016D6  26D9               	addwf	fsr2l,f,c
  6899   0016D8  516F               	movf	(_pBDTEntryIn+1)& (0+255),w,b
  6900   0016DA  22DA               	addwfc	fsr2h,f,c
  6901   0016DC  0E28               	movlw	40
  6902   0016DE  6EDE               	movwf	postinc2,c
  6903   0016E0  0E02               	movlw	2
  6904   0016E2  6EDD               	movwf	postdec2,c
  6905   0016E4                     
  6906                           ; BSR set to: 0
  6907                           ;usb/src/usb_device.c: 2628:         USBCtrlTrfTxService();
  6908   0016E4  ECAD  F00A         	call	_USBCtrlTrfTxService	;wreg free
  6909   0016E8                     
  6910                           ;usb/src/usb_device.c: 2634:         if(shortPacketStatus == 2)
  6911   0016E8  0E02               	movlw	2
  6912   0016EA  1846               	xorwf	_shortPacketStatus^0,w,c	;volatile
  6913   0016EC  A4D8               	btfss	status,2,c
  6914   0016EE  EF7B  F00B         	goto	i2u219_41
  6915   0016F2  EF7D  F00B         	goto	i2u219_40
  6916   0016F6                     i2u219_41:
  6917   0016F6  EF8B  F00B         	goto	i2l3313
  6918   0016FA                     i2u219_40:
  6919   0016FA                     
  6920                           ;usb/src/usb_device.c: 2635:         {;usb/src/usb_device.c: 2638:             pBDTEntry
      +                          In[0]->STAT.Val = 0x04;
  6921   0016FA  C06E  FFD9         	movff	_pBDTEntryIn,fsr2l
  6922   0016FE  C06F  FFDA         	movff	_pBDTEntryIn+1,fsr2h
  6923   001702  0E04               	movlw	4
  6924   001704  6EDF               	movwf	indf2,c
  6925   001706                     
  6926                           ;usb/src/usb_device.c: 2639:             pBDTEntryIn[0]->STAT.Val |= 0x80;
  6927   001706  C06E  FFD9         	movff	_pBDTEntryIn,fsr2l
  6928   00170A  C06F  FFDA         	movff	_pBDTEntryIn+1,fsr2h
  6929   00170E  0E00               	movlw	0
  6930   001710  8EDB               	bsf	plusw2,7,c
  6931                           
  6932                           ;usb/src/usb_device.c: 2640:         }
  6933   001712  EFBA  F00B         	goto	i2l466
  6934   001716                     i2l3313:
  6935                           
  6936                           ;usb/src/usb_device.c: 2642:         {;usb/src/usb_device.c: 2643:             if(lastDT
      +                          S == 0)
  6937   001716  5002               	movf	USBCtrlTrfInHandler@lastDTS^0,w,c
  6938   001718  A4D8               	btfss	status,2,c
  6939   00171A  EF91  F00B         	goto	i2u220_41
  6940   00171E  EF93  F00B         	goto	i2u220_40
  6941   001722                     i2u220_41:
  6942   001722  EFA1  F00B         	goto	i2l3319
  6943   001726                     i2u220_40:
  6944   001726                     
  6945                           ;usb/src/usb_device.c: 2644:             {;usb/src/usb_device.c: 2645:                 p
      +                          BDTEntryIn[0]->STAT.Val = 0x40|(0x08 & 0x08);
  6946   001726  C06E  FFD9         	movff	_pBDTEntryIn,fsr2l
  6947   00172A  C06F  FFDA         	movff	_pBDTEntryIn+1,fsr2h
  6948   00172E  0E48               	movlw	72
  6949   001730  6EDF               	movwf	indf2,c
  6950   001732                     
  6951                           ;usb/src/usb_device.c: 2646:                 pBDTEntryIn[0]->STAT.Val |= 0x80;
  6952   001732  C06E  FFD9         	movff	_pBDTEntryIn,fsr2l
  6953   001736  C06F  FFDA         	movff	_pBDTEntryIn+1,fsr2h
  6954   00173A  0E00               	movlw	0
  6955   00173C  8EDB               	bsf	plusw2,7,c
  6956                           
  6957                           ;usb/src/usb_device.c: 2647:             }
  6958   00173E  EFBA  F00B         	goto	i2l466
  6959   001742                     i2l3319:
  6960                           
  6961                           ;usb/src/usb_device.c: 2649:             {;usb/src/usb_device.c: 2650:                 p
      +                          BDTEntryIn[0]->STAT.Val = 0x00|(0x08 & 0x08);
  6962   001742  C06E  FFD9         	movff	_pBDTEntryIn,fsr2l
  6963   001746  C06F  FFDA         	movff	_pBDTEntryIn+1,fsr2h
  6964   00174A  0E08               	movlw	8
  6965   00174C  6EDF               	movwf	indf2,c
  6966   00174E                     
  6967                           ;usb/src/usb_device.c: 2651:                 pBDTEntryIn[0]->STAT.Val |= 0x80;
  6968   00174E  C06E  FFD9         	movff	_pBDTEntryIn,fsr2l
  6969   001752  C06F  FFDA         	movff	_pBDTEntryIn+1,fsr2h
  6970   001756  0E00               	movlw	0
  6971   001758  8EDB               	bsf	plusw2,7,c
  6972   00175A  EFBA  F00B         	goto	i2l466
  6973   00175E                     i2l458:
  6974                           
  6975                           ;usb/src/usb_device.c: 2656:  {;usb/src/usb_device.c: 2660:         if(outPipes[0].info.
      +                          bits.busy == 1)
  6976   00175E  0100               	movlb	0	; () banked
  6977   001760  AF63               	btfss	(_outPipes+3)& (0+255),7,b	;volatile
  6978   001762  EFB5  F00B         	goto	i2u221_41
  6979   001766  EFB7  F00B         	goto	i2u221_40
  6980   00176A                     i2u221_41:
  6981   00176A  EFB8  F00B         	goto	i2l3325
  6982   00176E                     i2u221_40:
  6983   00176E                     
  6984                           ; BSR set to: 0
  6985                           ;usb/src/usb_device.c: 2666:             outPipes[0].info.bits.busy = 0;
  6986   00176E  9F63               	bcf	(_outPipes+3)& (0+255),7,b	;volatile
  6987   001770                     i2l3325:
  6988                           
  6989                           ; BSR set to: 0
  6990                           ;usb/src/usb_device.c: 2669:         controlTransferState = 0;
  6991   001770  0E00               	movlw	0
  6992   001772  6E45               	movwf	_controlTransferState^0,c	;volatile
  6993   001774                     i2l466:
  6994   001774  0012               	return		;funcret
  6995   001776                     __end_of_USBCtrlTrfInHandler:
  6996                           	callstack 0
  6997                           
  6998 ;; *************** function _USBCtrlTrfTxService *****************
  6999 ;; Defined at:
  7000 ;;		line 1775 in file "usb/src/usb_device.c"
  7001 ;; Parameters:    Size  Location     Type
  7002 ;;		None
  7003 ;; Auto vars:     Size  Location     Type
  7004 ;;  byteToSend      1    0[COMRAM] unsigned char 
  7005 ;; Return value:  Size  Location     Type
  7006 ;;                  1    wreg      void 
  7007 ;; Registers used:
  7008 ;;		wreg, fsr1l, fsr1h, fsr2l, fsr2h, status,2, status,0, tblptrl, tblptrh, tblptru
  7009 ;; Tracked objects:
  7010 ;;		On entry : 0/0
  7011 ;;		On exit  : 0/0
  7012 ;;		Unchanged: 0/0
  7013 ;; Data sizes:     COMRAM   BANK0   BANK1  BANK2h  BANK2l
  7014 ;;      Params:         0       0       0       0       0
  7015 ;;      Locals:         1       0       0       0       0
  7016 ;;      Temps:          0       0       0       0       0
  7017 ;;      Totals:         1       0       0       0       0
  7018 ;;Total ram usage:        1 bytes
  7019 ;; Hardware stack levels used: 1
  7020 ;; This function calls:
  7021 ;;		Nothing
  7022 ;; This function is called by:
  7023 ;;		_USBCtrlEPAllowDataStage
  7024 ;;		_USBCtrlTrfInHandler
  7025 ;; This function uses a non-reentrant model
  7026 ;;
  7027                           
  7028                           	psect	text38
  7029   00155A                     __ptext38:
  7030                           	callstack 0
  7031   00155A                     _USBCtrlTrfTxService:
  7032                           	callstack 22
  7033   00155A                     
  7034                           ;usb/src/usb_device.c: 1777:     uint8_t byteToSend;;usb/src/usb_device.c: 1781:     byt
      +                          eToSend = 8;
  7035   00155A  0E08               	movlw	8
  7036   00155C  6E01               	movwf	USBCtrlTrfTxService@byteToSend^0,c
  7037   00155E                     
  7038                           ;usb/src/usb_device.c: 1782:     if(inPipes[0].wCount.Val < (uint8_t)8)
  7039   00155E  0100               	movlb	0	; () banked
  7040   001560  516D               	movf	(_inPipes+5)& (0+255),w,b	;volatile
  7041   001562  E107               	bnz	i2u153_41
  7042   001564  0E08               	movlw	8
  7043   001566  5D6C               	subwf	(_inPipes+4)& (0+255),w,b	;volatile
  7044   001568  B0D8               	btfsc	status,0,c
  7045   00156A  EFB9  F00A         	goto	i2u153_41
  7046   00156E  EFBB  F00A         	goto	i2u153_40
  7047   001572                     i2u153_41:
  7048   001572  EFD3  F00A         	goto	i2l2809
  7049   001576                     i2u153_40:
  7050   001576                     
  7051                           ; BSR set to: 0
  7052                           ;usb/src/usb_device.c: 1783:     {;usb/src/usb_device.c: 1784:         byteToSend = inPi
      +                          pes[0].wCount.Val;
  7053   001576  C06C  F001         	movff	_inPipes+4,USBCtrlTrfTxService@byteToSend	;volatile
  7054   00157A                     
  7055                           ; BSR set to: 0
  7056                           ;usb/src/usb_device.c: 1791:         if(shortPacketStatus == 0)
  7057   00157A  5046               	movf	_shortPacketStatus^0,w,c	;volatile
  7058   00157C  A4D8               	btfss	status,2,c
  7059   00157E  EFC3  F00A         	goto	i2u154_41
  7060   001582  EFC5  F00A         	goto	i2u154_40
  7061   001586                     i2u154_41:
  7062   001586  EFC9  F00A         	goto	i2l2805
  7063   00158A                     i2u154_40:
  7064   00158A                     
  7065                           ; BSR set to: 0
  7066                           ;usb/src/usb_device.c: 1792:         {;usb/src/usb_device.c: 1793:             shortPack
      +                          etStatus = 1;
  7067   00158A  0E01               	movlw	1
  7068   00158C  6E46               	movwf	_shortPacketStatus^0,c	;volatile
  7069                           
  7070                           ;usb/src/usb_device.c: 1794:         }
  7071   00158E  EFD3  F00A         	goto	i2l2809
  7072   001592                     i2l2805:
  7073                           
  7074                           ; BSR set to: 0
  7075   001592  0446               	decf	_shortPacketStatus^0,w,c	;volatile
  7076   001594  A4D8               	btfss	status,2,c
  7077   001596  EFCF  F00A         	goto	i2u155_41
  7078   00159A  EFD1  F00A         	goto	i2u155_40
  7079   00159E                     i2u155_41:
  7080   00159E  EFD3  F00A         	goto	i2l2809
  7081   0015A2                     i2u155_40:
  7082   0015A2                     
  7083                           ; BSR set to: 0
  7084                           ;usb/src/usb_device.c: 1796:         {;usb/src/usb_device.c: 1797:             shortPack
      +                          etStatus = 2;
  7085   0015A2  0E02               	movlw	2
  7086   0015A4  6E46               	movwf	_shortPacketStatus^0,c	;volatile
  7087   0015A6                     i2l2809:
  7088                           
  7089                           ; BSR set to: 0
  7090                           ;usb/src/usb_device.c: 1803:     inPipes[0].wCount.Val -= byteToSend;
  7091   0015A6  5001               	movf	USBCtrlTrfTxService@byteToSend^0,w,c
  7092   0015A8  5F6C               	subwf	(_inPipes+4)& (0+255),f,b	;volatile
  7093   0015AA  0E00               	movlw	0
  7094   0015AC  5B6D               	subwfb	(_inPipes+5)& (0+255),f,b	;volatile
  7095   0015AE                     
  7096                           ; BSR set to: 0
  7097                           ;usb/src/usb_device.c: 1808:     pBDTEntryIn[0]->CNT = byteToSend;
  7098   0015AE  EE20 F001          	lfsr	2,1
  7099   0015B2  516E               	movf	_pBDTEntryIn& (0+255),w,b
  7100   0015B4  26D9               	addwf	fsr2l,f,c
  7101   0015B6  516F               	movf	(_pBDTEntryIn+1)& (0+255),w,b
  7102   0015B8  22DA               	addwfc	fsr2h,f,c
  7103   0015BA  C001  FFDF         	movff	USBCtrlTrfTxService@byteToSend,indf2
  7104   0015BE                     
  7105                           ; BSR set to: 0
  7106                           ;usb/src/usb_device.c: 1812:     pDst = (volatile uint8_t*)CtrlTrfData;
  7107   0015BE  0E28               	movlw	40
  7108   0015C0  6E30               	movwf	_pDst^0,c
  7109   0015C2  0E02               	movlw	2
  7110   0015C4  6E31               	movwf	(_pDst+1)^0,c
  7111   0015C6                     
  7112                           ; BSR set to: 0
  7113                           ;usb/src/usb_device.c: 1813:     if(inPipes[0].info.bits.ctrl_trf_mem == 0x00)
  7114   0015C6  B16B               	btfsc	(_inPipes+3)& (0+255),0,b	;volatile
  7115   0015C8  EFE8  F00A         	goto	i2u156_41
  7116   0015CC  EFEA  F00A         	goto	i2u156_40
  7117   0015D0                     i2u156_41:
  7118   0015D0  EF2C  F00B         	goto	i2l2837
  7119   0015D4                     i2u156_40:
  7120   0015D4  EF07  F00B         	goto	i2l2827
  7121   0015D8                     i2l2819:
  7122                           
  7123                           ; BSR set to: 0
  7124                           ;usb/src/usb_device.c: 1816:         {;usb/src/usb_device.c: 1817:             *pDst++ =
      +                           *inPipes[0].pSrc.bRom++;
  7125   0015D8  C068  FFF6         	movff	_inPipes,tblptrl	;volatile
  7126   0015DC  C069  FFF7         	movff	_inPipes+1,tblptrh	;volatile
  7127   0015E0  6AF8               	clrf	tblptru,c
  7128   0015E2  C030  FFD9         	movff	_pDst,fsr2l
  7129   0015E6  C031  FFDA         	movff	_pDst+1,fsr2h
  7130   0015EA  0E02               	movlw	(high __ramtop+-1)
  7131   0015EC  64F7               	cpfsgt	tblptrh,c
  7132   0015EE  D003               	bra	i2u157_47
  7133   0015F0  0008               	tblrd		*
  7134   0015F2  50F5               	movf	tablat,w,c
  7135   0015F4  D005               	bra	i2u157_40
  7136   0015F6                     i2u157_47:
  7137   0015F6  CFF6 FFE1          	movff	tblptrl,fsr1l
  7138   0015FA  CFF7 FFE2          	movff	tblptrh,fsr1h
  7139   0015FE  50E7               	movf	indf1,w,c
  7140   001600                     i2u157_40:
  7141   001600  6EDF               	movwf	indf2,c
  7142   001602  0100               	movlb	0	; () banked
  7143   001604  4B68               	infsnz	_inPipes& (0+255),f,b	;volatile
  7144   001606  2B69               	incf	(_inPipes+1)& (0+255),f,b	;volatile
  7145   001608                     
  7146                           ; BSR set to: 0
  7147   001608  4A30               	infsnz	_pDst^0,f,c
  7148   00160A  2A31               	incf	(_pDst+1)^0,f,c
  7149   00160C                     
  7150                           ; BSR set to: 0
  7151                           ;usb/src/usb_device.c: 1818:             byteToSend--;
  7152   00160C  0601               	decf	USBCtrlTrfTxService@byteToSend^0,f,c
  7153   00160E                     i2l2827:
  7154                           
  7155                           ; BSR set to: 0
  7156                           ;usb/src/usb_device.c: 1815:         while(byteToSend)
  7157   00160E  5001               	movf	USBCtrlTrfTxService@byteToSend^0,w,c
  7158   001610  A4D8               	btfss	status,2,c
  7159   001612  EF0D  F00B         	goto	i2u158_41
  7160   001616  EF0F  F00B         	goto	i2u158_40
  7161   00161A                     i2u158_41:
  7162   00161A  EFEC  F00A         	goto	i2l2819
  7163   00161E                     i2u158_40:
  7164   00161E  EF34  F00B         	goto	i2l371
  7165   001622                     i2l2829:
  7166                           
  7167                           ; BSR set to: 0
  7168                           ;usb/src/usb_device.c: 1824:         {;usb/src/usb_device.c: 1825:             *pDst++ =
      +                           *inPipes[0].pSrc.bRam++;
  7169   001622  C068  FFF6         	movff	_inPipes,tblptrl	;volatile
  7170   001626  C069  FFF7         	movff	_inPipes+1,tblptrh	;volatile
  7171   00162A  6AF8               	clrf	tblptru,c
  7172   00162C  C030  FFD9         	movff	_pDst,fsr2l
  7173   001630  C031  FFDA         	movff	_pDst+1,fsr2h
  7174   001634  0E02               	movlw	(high __ramtop+-1)
  7175   001636  64F7               	cpfsgt	tblptrh,c
  7176   001638  D003               	bra	i2u159_47
  7177   00163A  0008               	tblrd		*
  7178   00163C  50F5               	movf	tablat,w,c
  7179   00163E  D005               	bra	i2u159_40
  7180   001640                     i2u159_47:
  7181   001640  CFF6 FFE1          	movff	tblptrl,fsr1l
  7182   001644  CFF7 FFE2          	movff	tblptrh,fsr1h
  7183   001648  50E7               	movf	indf1,w,c
  7184   00164A                     i2u159_40:
  7185   00164A  6EDF               	movwf	indf2,c
  7186   00164C  0100               	movlb	0	; () banked
  7187   00164E  4B68               	infsnz	_inPipes& (0+255),f,b	;volatile
  7188   001650  2B69               	incf	(_inPipes+1)& (0+255),f,b	;volatile
  7189   001652                     
  7190                           ; BSR set to: 0
  7191   001652  4A30               	infsnz	_pDst^0,f,c
  7192   001654  2A31               	incf	(_pDst+1)^0,f,c
  7193   001656                     
  7194                           ; BSR set to: 0
  7195                           ;usb/src/usb_device.c: 1826:             byteToSend--;
  7196   001656  0601               	decf	USBCtrlTrfTxService@byteToSend^0,f,c
  7197   001658                     i2l2837:
  7198                           
  7199                           ; BSR set to: 0
  7200                           ;usb/src/usb_device.c: 1823:         while(byteToSend)
  7201   001658  5001               	movf	USBCtrlTrfTxService@byteToSend^0,w,c
  7202   00165A  A4D8               	btfss	status,2,c
  7203   00165C  EF32  F00B         	goto	i2u160_41
  7204   001660  EF34  F00B         	goto	i2u160_40
  7205   001664                     i2u160_41:
  7206   001664  EF11  F00B         	goto	i2l2829
  7207   001668                     i2u160_40:
  7208   001668                     i2l371:
  7209                           
  7210                           ; BSR set to: 0
  7211   001668  0012               	return		;funcret
  7212   00166A                     __end_of_USBCtrlTrfTxService:
  7213                           	callstack 0
  7214                           
  7215                           	psect	rparam
  7216   000000                     
  7217                           	psect	temp
  7218   00004D                     btemp:
  7219                           	callstack 0
  7220   00004D                     	ds	1
  7221   000000                     int$flags	set	btemp
  7222   000000                     wtemp8	set	btemp+1
  7223   000000                     ttemp5	set	btemp+1
  7224   000000                     ttemp6	set	btemp+4
  7225   000000                     ttemp7	set	btemp+8
  7226                           
  7227                           	psect	config
  7228                           
  7229                           ;Config register CONFIG1L @ 0x300000
  7230                           ;	CPU System Clock Selection bits
  7231                           ;	CPUDIV = NOCLKDIV, No CPU System Clock divide
  7232                           ;	USB Clock Selection bit
  7233                           ;	USBDIV = OFF, USB clock comes directly from the OSC1/OSC2 oscillator block; no divide
  7234   300000                     	org	3145728
  7235   300000  00                 	db	0
  7236                           
  7237                           ;Config register CONFIG1H @ 0x300001
  7238                           ;	Oscillator Selection bits
  7239                           ;	FOSC = HS, HS oscillator
  7240                           ;	4 X PLL Enable bit
  7241                           ;	PLLEN = ON, Oscillator multiplied by 4
  7242                           ;	Primary Clock Enable bit
  7243                           ;	PCLKEN = 0x1, unprogrammed default
  7244                           ;	Fail-Safe Clock Monitor Enable
  7245                           ;	FCMEN = OFF, Fail-Safe Clock Monitor disabled
  7246                           ;	Internal/External Oscillator Switchover bit
  7247                           ;	IESO = OFF, Oscillator Switchover mode disabled
  7248   300001                     	org	3145729
  7249   300001  32                 	db	50
  7250                           
  7251                           ;Config register CONFIG2L @ 0x300002
  7252                           ;	Power-up Timer Enable bit
  7253                           ;	PWRTEN = OFF, PWRT disabled
  7254                           ;	Brown-out Reset Enable bits
  7255                           ;	BOREN = OFF, Brown-out Reset disabled in hardware and software
  7256                           ;	Brown-out Reset Voltage bits
  7257                           ;	BORV = 30, VBOR set to 3.0 V nominal
  7258   300002                     	org	3145730
  7259   300002  01                 	db	1
  7260                           
  7261                           ;Config register CONFIG2H @ 0x300003
  7262                           ;	Watchdog Timer Enable bit
  7263                           ;	WDTEN = OFF, WDT is controlled by SWDTEN bit of the WDTCON register
  7264                           ;	Watchdog Timer Postscale Select bits
  7265                           ;	WDTPS = 32768, 1:32768
  7266   300003                     	org	3145731
  7267   300003  1E                 	db	30
  7268                           
  7269                           ; Padding undefined space
  7270   300004                     	org	3145732
  7271   300004  FF                 	db	255
  7272                           
  7273                           ;Config register CONFIG3H @ 0x300005
  7274                           ;	HFINTOSC Fast Start-up bit
  7275                           ;	HFOFST = OFF, The system clock is held off until the HFINTOSC is stable.
  7276                           ;	MCLR Pin Enable bit
  7277                           ;	MCLRE = OFF, RA3 input pin enabled; MCLR disabled
  7278   300005                     	org	3145733
  7279   300005  00                 	db	0
  7280                           
  7281                           ;Config register CONFIG4L @ 0x300006
  7282                           ;	Stack Full/Underflow Reset Enable bit
  7283                           ;	STVREN = ON, Stack full/underflow will cause Reset
  7284                           ;	Single-Supply ICSP Enable bit
  7285                           ;	LVP = OFF, Single-Supply ICSP disabled
  7286                           ;	Boot Block Size Select bit
  7287                           ;	BBSIZ = OFF, 1kW boot block size
  7288                           ;	Extended Instruction Set Enable bit
  7289                           ;	XINST = OFF, Instruction set extension and Indexed Addressing mode disabled (Legacy mo
      +                          de)
  7290                           ;	Background Debugger Enable bit
  7291                           ;	DEBUG = 0x1, unprogrammed default
  7292   300006                     	org	3145734
  7293   300006  81                 	db	129
  7294                           
  7295                           ; Padding undefined space
  7296   300007                     	org	3145735
  7297   300007  FF                 	db	255
  7298                           
  7299                           ;Config register CONFIG5L @ 0x300008
  7300                           ;	Code Protection bit
  7301                           ;	CP0 = OFF, Block 0 not code-protected
  7302                           ;	Code Protection bit
  7303                           ;	CP1 = OFF, Block 1 not code-protected
  7304   300008                     	org	3145736
  7305   300008  03                 	db	3
  7306                           
  7307                           ;Config register CONFIG5H @ 0x300009
  7308                           ;	Boot Block Code Protection bit
  7309                           ;	CPB = OFF, Boot block not code-protected
  7310                           ;	Data EEPROM Code Protection bit
  7311                           ;	CPD = 0x1, unprogrammed default
  7312   300009                     	org	3145737
  7313   300009  C0                 	db	192
  7314                           
  7315                           ;Config register CONFIG6L @ 0x30000A
  7316                           ;	Table Write Protection bit
  7317                           ;	WRT0 = OFF, Block 0 not write-protected
  7318                           ;	Table Write Protection bit
  7319                           ;	WRT1 = OFF, Block 1 not write-protected
  7320   30000A                     	org	3145738
  7321   30000A  03                 	db	3
  7322                           
  7323                           ;Config register CONFIG6H @ 0x30000B
  7324                           ;	Configuration Register Write Protection bit
  7325                           ;	WRTC = OFF, Configuration registers not write-protected
  7326                           ;	Boot Block Write Protection bit
  7327                           ;	WRTB = OFF, Boot block not write-protected
  7328                           ;	Data EEPROM Write Protection bit
  7329                           ;	WRTD = 0x1, unprogrammed default
  7330   30000B                     	org	3145739
  7331   30000B  E0                 	db	224
  7332                           
  7333                           ;Config register CONFIG7L @ 0x30000C
  7334                           ;	Table Read Protection bit
  7335                           ;	EBTR0 = OFF, Block 0 not protected from table reads executed in other blocks
  7336                           ;	Table Read Protection bit
  7337                           ;	EBTR1 = OFF, Block 1 not protected from table reads executed in other blocks
  7338   30000C                     	org	3145740
  7339   30000C  03                 	db	3
  7340                           
  7341                           ;Config register CONFIG7H @ 0x30000D
  7342                           ;	Boot Block Table Read Protection bit
  7343                           ;	EBTRB = OFF, Boot block not protected from table reads executed in other blocks
  7344   30000D                     	org	3145741
  7345   30000D  40                 	db	64
  7346                           tosu	equ	0xFFF
  7347                           tosh	equ	0xFFE
  7348                           tosl	equ	0xFFD
  7349                           stkptr	equ	0xFFC
  7350                           pclatu	equ	0xFFB
  7351                           pclath	equ	0xFFA
  7352                           pcl	equ	0xFF9
  7353                           tblptru	equ	0xFF8
  7354                           tblptrh	equ	0xFF7
  7355                           tblptrl	equ	0xFF6
  7356                           tablat	equ	0xFF5
  7357                           prodh	equ	0xFF4
  7358                           prodl	equ	0xFF3
  7359                           indf0	equ	0xFEF
  7360                           postinc0	equ	0xFEE
  7361                           postdec0	equ	0xFED
  7362                           preinc0	equ	0xFEC
  7363                           plusw0	equ	0xFEB
  7364                           fsr0h	equ	0xFEA
  7365                           fsr0l	equ	0xFE9
  7366                           wreg	equ	0xFE8
  7367                           indf1	equ	0xFE7
  7368                           postinc1	equ	0xFE6
  7369                           postdec1	equ	0xFE5
  7370                           preinc1	equ	0xFE4
  7371                           plusw1	equ	0xFE3
  7372                           fsr1h	equ	0xFE2
  7373                           fsr1l	equ	0xFE1
  7374                           bsr	equ	0xFE0
  7375                           indf2	equ	0xFDF
  7376                           postinc2	equ	0xFDE
  7377                           postdec2	equ	0xFDD
  7378                           preinc2	equ	0xFDC
  7379                           plusw2	equ	0xFDB
  7380                           fsr2h	equ	0xFDA
  7381                           fsr2l	equ	0xFD9
  7382                           status	equ	0xFD8

Data Sizes:
    Strings     0
    Constant    194
    Data        0
    BSS         59
    Persistent  0
    Stack       0

Auto Spaces:
    Space          Size  Autos    Used
    COMRAM           94     43      76
    BANK0           160     15      41
    BANK1           256      0       0
    BANK2h           32      0       0
    BANK2l           48      0       0

Pointer List with Targets:

    inPipes$pSrc$bRam	PTR unsigned char  size(2) Largest target is 0

    inPipes$pSrc$bRom	PTR const unsigned char  size(2) Largest target is 0

    inPipes$pSrc$wRam	PTR unsigned short  size(2) Largest target is 0

    inPipes$pSrc$wRom	PTR const unsigned short  size(2) Largest target is 0

    memcpy@d	PTR unsigned char  size(2) Largest target is 8
		 -> SetupPkt(BIGRAMlh[8]), 

    memcpy@d1	PTR void  size(2) Largest target is 8
		 -> SetupPkt(BIGRAMlh[8]), 

    memcpy@s	PTR const unsigned char  size(2) Largest target is 767
		 -> CtrlTrfData(BIGRAMlh[8]), RAM(DATA[767]), SetupPkt(BIGRAMlh[8]), 

    memcpy@s1	PTR const void  size(2) Largest target is 767
		 -> CtrlTrfData(BIGRAMlh[8]), RAM(DATA[767]), SetupPkt(BIGRAMlh[8]), 

    memset@dest	PTR void  size(2) Largest target is 32
		 -> BDT(BIGRAMll[32]), UEP1(BITBIGSFRlll[1]), USBAlternateInterface(COMRAM[1]), 

    memset@p	PTR unsigned char  size(2) Largest target is 32
		 -> BDT(BIGRAMll[32]), UEP1(BITBIGSFRlll[1]), USBAlternateInterface(COMRAM[1]), 

    outPipes$pDst$bRam	PTR unsigned char  size(2) Largest target is 0

    outPipes$pDst$wRam	PTR unsigned short  size(2) Largest target is 0

    outPipes$pFunc	PTR FTN()void  size(2) Largest target is 0

    pBDTEntryEP0OutCurrent	PTR volatile struct __BDT size(2) Largest target is 32
		 -> BDT(BIGRAMll[32]), NULL(NULL[0]), 

    pBDTEntryEP0OutNext	PTR volatile struct __BDT size(2) Largest target is 767
		 -> BDT(BIGRAMll[32]), RAM(DATA[767]), NULL(NULL[0]), 

    pBDTEntryIn	PTR volatile struct __BDT[2] size(2) Largest target is 767
		 -> BDT(BIGRAMll[32]), RAM(DATA[767]), NULL(NULL[0]), 

    pBDTEntryOut	PTR volatile struct __BDT[2] size(2) Largest target is 767
		 -> BDT(BIGRAMll[32]), RAM(DATA[767]), NULL(NULL[0]), 

    pDst	PTR volatile unsigned char  size(2) Largest target is 8
		 -> CtrlTrfData(BIGRAMlh[8]), NULL(NULL[0]), 

    S494$bRam	PTR unsigned char  size(2) Largest target is 0

    S494$bRom	PTR const unsigned char  size(2) Largest target is 0

    S494$wRam	PTR unsigned short  size(2) Largest target is 0

    S494$wRom	PTR const unsigned short  size(2) Largest target is 0

    S518$bRam	PTR unsigned char  size(2) Largest target is 0

    S518$wRam	PTR unsigned short  size(2) Largest target is 0

    S528$pFunc	PTR FTN()void  size(2) Largest target is 0

    sp__memcpy	PTR void  size(2) Largest target is 8
		 -> SetupPkt(BIGRAMlh[8]), 

    sp__memset	PTR void  size(2) Largest target is 32
		 -> BDT(BIGRAMll[32]), UEP1(BITBIGSFRlll[1]), USBAlternateInterface(COMRAM[1]), 

    sp__USBTransferOnePacket	PTR void  size(2) Largest target is 767
		 -> BDT(BIGRAMll[32]), RAM(DATA[767]), NULL(NULL[0]), 

    USB_CD_Ptr	const PTR const unsigned char [1] size(1) Largest target is 41
		 -> configDescriptor1(CODE[41]), 

    USB_SD_Ptr	const PTR const unsigned char [3] size(1) Largest target is 52
		 -> sd000(CODE[4]), sd001(CODE[52]), sd002(CODE[46]), 

    USBConfigureEndpoint@handle	PTR volatile struct __BDT size(2) Largest target is 32
		 -> BDT(BIGRAMll[32]), 

    USBEnableEndpoint@p	PTR unsigned char  size(2) Largest target is 1
		 -> UEP0(BITBIGSFRlll[1]), 

    USBInHandle	PTR volatile void  size(2) Largest target is 767
		 -> BDT(BIGRAMll[32]), RAM(DATA[767]), NULL(NULL[0]), 

    USBOutHandle	PTR volatile void  size(2) Largest target is 767
		 -> BDT(BIGRAMll[32]), RAM(DATA[767]), NULL(NULL[0]), 

    USBStdFeatureReqHandler@p	PTR struct __BDT size(2) Largest target is 767
		 -> BDT(BIGRAMll[32]), RAM(DATA[767]), NULL(NULL[0]), 

    USBStdFeatureReqHandler@pUEP	PTR unsigned char  size(2) Largest target is 1
		 -> UEP0(BITBIGSFRlll[1]), 

    USBStdGetStatusHandler@p	PTR struct __BDT size(2) Largest target is 767
		 -> BDT(BIGRAMll[32]), RAM(DATA[767]), NULL(NULL[0]), 

    USBTransferOnePacket@data	PTR unsigned char  size(2) Largest target is 64
		 -> ReceivedData(BIGRAMll[64]), SendData(BIGRAMh[64]), 

    USBTransferOnePacket@handle	PTR volatile struct __BDT size(2) Largest target is 767
		 -> BDT(BIGRAMll[32]), RAM(DATA[767]), NULL(NULL[0]), 

    USER_USB_CALLBACK_EVENT_HANDLER@pdata	PTR void  size(2) Largest target is 767
		 -> BDT(BIGRAMll[32]), RAM(DATA[767]), USBActiveConfiguration(COMRAM[1]), USTATcopy(COMRAM[1]), 
		 -> NULL(NULL[0]), 


Critical Paths under _main in COMRAM

    None.

Critical Paths under _SYS_InterruptHigh in COMRAM

    _SYS_InterruptHigh->_USBDeviceTasks
    _USBDeviceTasks->_USBCtrlEPService
    i2_USBDeviceInit->i2_memset
    _USBWakeFromSuspend->_USER_USB_CALLBACK_EVENT_HANDLER
    _USBSuspend->_USER_USB_CALLBACK_EVENT_HANDLER
    _USBCtrlTrfSetupHandler->_USBCheckStdRequest
    _USBCtrlEPAllowDataStage->_USBCtrlTrfTxService
    _USBCheckStdRequest->_USBStdFeatureReqHandler
    _USBStdSetCfgHandler->_USER_USB_CALLBACK_EVENT_HANDLER
    _USBStdFeatureReqHandler->_USER_USB_CALLBACK_EVENT_HANDLER
    _HIDInitialize->_USBEnableEndpoint
    _USBEnableEndpoint->_USBConfigureEndpoint
    _USBCtrlTrfOutHandler->_USBCtrlTrfRxService
    _USBCtrlTrfInHandler->_USBCtrlTrfTxService

Critical Paths under _main in BANK0

    _USBDeviceInit->_memset
    _Read_Write_USB->_USBTransferOnePacket
    _Chek_ADC->_ADC_Read10bit

Critical Paths under _SYS_InterruptHigh in BANK0

    None.

Critical Paths under _main in BANK1

    None.

Critical Paths under _SYS_InterruptHigh in BANK1

    None.

Critical Paths under _main in BANK2h

    None.

Critical Paths under _SYS_InterruptHigh in BANK2h

    None.

Critical Paths under _main in BANK2l

    None.

Critical Paths under _SYS_InterruptHigh in BANK2l

    None.

Call Graph Tables:

 ---------------------------------------------------------------------------------
 (Depth) Function   	        Calls       Base Space   Used Autos Params    Refs
 ---------------------------------------------------------------------------------
 (0) _main                                                 4     4      0    3028
                                             11 BANK0      4     4      0
                       _Check_Button
                           _Chek_ADC
                     _Read_Write_USB
                  _SYSTEM_Initialize
                    _USBDeviceAttach
                      _USBDeviceInit
 ---------------------------------------------------------------------------------
 (1) _USBDeviceInit                                        1     1      0    1361
                                              8 BANK0      1     1      0
                             _memset
 ---------------------------------------------------------------------------------
 (2) _memset                                               8     2      6    1070
                                              0 BANK0      8     2      6
 ---------------------------------------------------------------------------------
 (1) _USBDeviceAttach                                      0     0      0       0
 ---------------------------------------------------------------------------------
 (1) _SYSTEM_Initialize                                    0     0      0       0
 ---------------------------------------------------------------------------------
 (1) _Read_Write_USB                                       0     0      0    1364
               _USBTransferOnePacket
 ---------------------------------------------------------------------------------
 (2) _USBTransferOnePacket                                11     7      4    1364
                                              0 BANK0     11     7      4
 ---------------------------------------------------------------------------------
 (1) _Chek_ADC                                             2     2      0     105
                                              4 BANK0      2     2      0
                      _ADC_Read10bit
 ---------------------------------------------------------------------------------
 (2) _ADC_Read10bit                                        4     2      2      40
                                              0 BANK0      4     2      2
 ---------------------------------------------------------------------------------
 (1) _Check_Button                                         0     0      0       0
 ---------------------------------------------------------------------------------
 Estimated maximum stack depth 2
 ---------------------------------------------------------------------------------
 (Depth) Function   	        Calls       Base Space   Used Autos Params    Refs
 ---------------------------------------------------------------------------------
 (3) _SYS_InterruptHigh                                   10    10      0   28932
                                             33 COMRAM    10    10      0
                     _USBDeviceTasks
 ---------------------------------------------------------------------------------
 (4) _USBDeviceTasks                                       1     1      0   28932
                                             32 COMRAM     1     1      0
          _USBCtrlEPAllowStatusStage
                   _USBCtrlEPService
      _USBIncrement1msInternalTimers
                    _USBStallHandler
                         _USBSuspend
                 _USBWakeFromSuspend
    _USER_USB_CALLBACK_EVENT_HANDLER
                    i2_USBDeviceInit
 ---------------------------------------------------------------------------------
 (5) i2_USBDeviceInit                                      1     1      0     610
                                              8 COMRAM     1     1      0
                           i2_memset
 ---------------------------------------------------------------------------------
 (5) _USBWakeFromSuspend                                   0     0      0    3790
    _USER_USB_CALLBACK_EVENT_HANDLER
 ---------------------------------------------------------------------------------
 (5) _USBSuspend                                           0     0      0    3790
    _USER_USB_CALLBACK_EVENT_HANDLER
 ---------------------------------------------------------------------------------
 (5) _USBStallHandler                                      1     1      0       0
                                              0 COMRAM     1     1      0
 ---------------------------------------------------------------------------------
 (5) _USBIncrement1msInternalTimers                        0     0      0       0
 ---------------------------------------------------------------------------------
 (5) _USBCtrlEPService                                     1     1      0   16906
                                             31 COMRAM     1     1      0
                _USBCtrlTrfInHandler
               _USBCtrlTrfOutHandler
             _USBCtrlTrfSetupHandler
                             _memcpy
 ---------------------------------------------------------------------------------
 (6) _memcpy                                              11     5      6     410
                                              0 COMRAM    11     5      6
 ---------------------------------------------------------------------------------
 (6) _USBCtrlTrfSetupHandler                               0     0      0   16267
                 _USBCheckStdRequest
           _USBCtrlEPServiceComplete
    _USER_USB_CALLBACK_EVENT_HANDLER
 ---------------------------------------------------------------------------------
 (7) _USBCtrlEPServiceComplete                             0     0      0      92
            _USBCtrlEPAllowDataStage
          _USBCtrlEPAllowStatusStage
 ---------------------------------------------------------------------------------
 (8) _USBCtrlEPAllowDataStage                              0     0      0      92
                _USBCtrlTrfTxService
 ---------------------------------------------------------------------------------
 (7) _USBCheckStdRequest                                   2     2      0   12385
                                             29 COMRAM     2     2      0
            _USBStdFeatureReqHandler
                _USBStdGetDscHandler
             _USBStdGetStatusHandler
                _USBStdSetCfgHandler
    _USER_USB_CALLBACK_EVENT_HANDLER
 ---------------------------------------------------------------------------------
 (8) _USBStdSetCfgHandler                                  1     1      0    4288
                                             22 COMRAM     1     1      0
    _USER_USB_CALLBACK_EVENT_HANDLER
                           i2_memset
 ---------------------------------------------------------------------------------
 (6) i2_memset                                             8     2      6     408
                                              0 COMRAM     8     2      6
 ---------------------------------------------------------------------------------
 (8) _USBStdGetStatusHandler                               4     4      0      46
                                              0 COMRAM     4     4      0
 ---------------------------------------------------------------------------------
 (8) _USBStdGetDscHandler                                  2     2      0       0
                                              0 COMRAM     2     2      0
 ---------------------------------------------------------------------------------
 (8) _USBStdFeatureReqHandler                              7     7      0    4261
                                             22 COMRAM     7     7      0
    _USER_USB_CALLBACK_EVENT_HANDLER
 ---------------------------------------------------------------------------------
 (5) _USER_USB_CALLBACK_EVENT_HANDLER                      8     2      6    3790
                                             14 COMRAM     8     2      6
                      _HIDInitialize
                 _USBCheckHIDRequest
 ---------------------------------------------------------------------------------
 (6) _USBCheckHIDRequest                                   2     2      0       0
                                              0 COMRAM     2     2      0
 ---------------------------------------------------------------------------------
 (6) _HIDInitialize                                        0     0      0    1098
                  _USBEnableEndpoint
             i2_USBTransferOnePacket
 ---------------------------------------------------------------------------------
 (7) i2_USBTransferOnePacket                              11     7      4     454
                                              0 COMRAM    11     7      4
 ---------------------------------------------------------------------------------
 (7) _USBEnableEndpoint                                    4     3      1     644
                                             10 COMRAM     4     3      1
               _USBConfigureEndpoint
 ---------------------------------------------------------------------------------
 (8) _USBConfigureEndpoint                                10     9      1     400
                                              0 COMRAM    10     9      1
 ---------------------------------------------------------------------------------
 (6) _USBCtrlTrfOutHandler                                 0     0      0     114
                _USBCtrlTrfRxService
 ---------------------------------------------------------------------------------
 (7) _USBCtrlTrfRxService                                  2     2      0     114
                                              0 COMRAM     2     2      0
          _USBCtrlEPAllowStatusStage
 ---------------------------------------------------------------------------------
 (8) _USBCtrlEPAllowStatusStage                            0     0      0       0
 ---------------------------------------------------------------------------------
 (6) _USBCtrlTrfInHandler                                  1     1      0     115
                                              1 COMRAM     1     1      0
                _USBCtrlTrfTxService
 ---------------------------------------------------------------------------------
 (9) _USBCtrlTrfTxService                                  1     1      0      92
                                              0 COMRAM     1     1      0
 ---------------------------------------------------------------------------------
 Estimated maximum stack depth 9
 ---------------------------------------------------------------------------------

 Call Graph Graphs:

 _main (ROOT)
   _Check_Button
   _Chek_ADC
     _ADC_Read10bit
   _Read_Write_USB
     _USBTransferOnePacket
   _SYSTEM_Initialize
   _USBDeviceAttach
   _USBDeviceInit
     _memset

 _SYS_InterruptHigh (ROOT)
   _USBDeviceTasks
     _USBCtrlEPAllowStatusStage
     _USBCtrlEPService
       _USBCtrlTrfInHandler
         _USBCtrlTrfTxService
       _USBCtrlTrfOutHandler
         _USBCtrlTrfRxService
           _USBCtrlEPAllowStatusStage
       _USBCtrlTrfSetupHandler
         _USBCheckStdRequest
           _USBStdFeatureReqHandler
             _USER_USB_CALLBACK_EVENT_HANDLER
               _HIDInitialize
                 _USBEnableEndpoint
                   _USBConfigureEndpoint
                 i2_USBTransferOnePacket
               _USBCheckHIDRequest
           _USBStdGetDscHandler
           _USBStdGetStatusHandler
           _USBStdSetCfgHandler
             _USER_USB_CALLBACK_EVENT_HANDLER
             i2_memset
           _USER_USB_CALLBACK_EVENT_HANDLER
         _USBCtrlEPServiceComplete
           _USBCtrlEPAllowDataStage
             _USBCtrlTrfTxService
           _USBCtrlEPAllowStatusStage
         _USER_USB_CALLBACK_EVENT_HANDLER
       _memcpy
     _USBIncrement1msInternalTimers
     _USBStallHandler
     _USBSuspend
       _USER_USB_CALLBACK_EVENT_HANDLER
     _USBWakeFromSuspend
       _USER_USB_CALLBACK_EVENT_HANDLER
     _USER_USB_CALLBACK_EVENT_HANDLER
     i2_USBDeviceInit
       i2_memset

 Address spaces:
Name               Size   Autos  Total    Cost      Usage
BIGRAMll           1FF      0       0      26        0.0%
EEDATA             100      0       0       0        0.0%
BITBANK1           100      0       0       6        0.0%
BANK1              100      0       0       7        0.0%
BITBANK0            A0      0       0       4        0.0%
BANK0               A0      F      29       5       25.6%
BITCOMRAM           5E      0       0       0        0.0%
COMRAM              5E     2B      4C       1       80.9%
BIGRAMlh            30      0       0      25        0.0%
BITBANK2l           30      0       0       9        0.0%
BANK2l              30      0       0      11        0.0%
BITBIGSFRhhhhlh     20      0       0      13        0.0%
BIGRAMh             20      0       0      24        0.0%
BANK2h              20      0       0      10        0.0%
BITBANK2h           20      0       0       8        0.0%
BITBIGSFRhhlhh      1D      0       0      15        0.0%
BITBIGSFRhlll       13      0       0      20        0.0%
BITBIGSFRhhll       10      0       0      17        0.0%
BITBIGSFRhhhhh       D      0       0      12        0.0%
BITBIGSFRhhlhl       B      0       0      16        0.0%
BITBIGSFRhhhhll      B      0       0      14        0.0%
BITBIGSFRhllh        6      0       0      19        0.0%
BITBIGSFRlll         6      0       0      22        0.0%
BITBIGSFRllh         2      0       0      21        0.0%
BITBIGSFRhlh         1      0       0      18        0.0%
BIGSFR               0      0       0     200        0.0%
BITSFR_1             0      0       0     200        0.0%
SFR_1                0      0       0     200        0.0%
BITSFR               0      0       0     200        0.0%
SFR                  0      0       0     200        0.0%
STACK                0      0       0       2        0.0%
NULL                 0      0       0       0        0.0%
ABS                  0      0      75      23        0.0%
DATA                 0      0      75       3        0.0%
CODE                 0      0       0       0        0.0%


Microchip Technology PIC18 Macro Assembler V2.45 build 20230818022343 
Symbol Table                                                                                   Sun Dec 31 16:19:02 2023

                             _USB_SD_Ptr 0301                                       l91 1F04  
                                     l84 19DA                                       l94 1F28  
                                     l86 19B6                                       l78 1954  
                                     l79 19FA                                       l97 20BA  
                                     l99 20C8                            _USBDeviceInit 0E6A  
                     _USBCheckHIDRequest 08FC     USER_USB_CALLBACK_EVENT_HANDLER@event 000F  
   USER_USB_CALLBACK_EVENT_HANDLER@pdata 0011                                      l100 20E2  
                                    l106 1FFE                                      l109 21BE  
                                    l302 1200                                      l321 1FAA  
                                    l322 1FA8                                      l324 1FBC  
                                    l261 0ED6              __end_of_USBStdGetDscHandler 0BE4  
                                    l266 0FA0                                      _BDT 0200  
                                    _UIE 0F60                                      _UIR 0F62  
                             _USBSuspend 2148                     USBStdSetCfgHandler@i 0017  
                                    prod 0FF3                                      wreg 0FE8  
                         _USBDeviceTasks 06DC                      ?_USBCheckHIDRequest 0001  
                         _USBDeviceState 0047                    ??_USBCtrlTrfRxService 0001  
               USBEnableEndpoint@options 000B                                     l1257 2076  
                                   l4011 112C                                     l4003 10DC  
                                   l4021 1174                                     l4005 10EE  
                                   l4101 21B8                                     l4023 1180  
                                   l4015 1138                                     l4007 1106  
                                   l4111 0E9C                                     l4103 0E6A  
                                   l4041 20DA                                     l4033 20B0  
                                   l4025 1190                                     l4017 115C  
                                   l4009 111A                                     l4121 0EAC  
                                   l4113 0EA2                                     l4105 0E6C  
                                   l4035 20B8                                     l4027 11C6  
                                   l4019 1168                                     l4051 205A  
                                   l4131 0EE0                                     l4123 0EC4  
                                   l4115 0EA6                                     l4107 0E7A  
                                   l4211 1CE4               USBConfigureEndpoint@handle 0009  
                                   l4037 20D0                                     l4029 11F8  
                                   l4061 1978                                     l4053 1940  
                                   l4045 203E                                     l4141 0EF6  
                                   l4133 0EE2                                     l4125 0EC6  
                                   l4109 0E98                                     l4221 1CFE  
                                   l4205 1CB6                                     l4071 1EEE  
                                   l4039 20D6                                     l4063 198E  
                                   l4047 204A                                     l4151 0F3C  
                                   l4143 0F04                                     l4135 0EE4  
                                   l4127 0ED8                                     l4223 1D1A  
                                   l4207 1CC4                                     l4073 1F12  
                                   l4081 1FD0                                     l4065 19A0  
                                   l4049 2056                                     l4161 0F6A  
                                   l4153 0F46                                     l4137 0EEA  
                                   l4129 0EDE                                     l4225 1D1E  
                                   l4217 1CEC                                     l4209 1CC8  
                                   l4075 1F18                                     l4083 1FE6  
                                   l4067 19BA                                     l4059 1966  
                                   l4091 21AE                                     l4171 0F84  
                                   l4163 0F70                                     l4155 0F50  
                                   l4139 0EEE                                     l4227 1D22  
                                   l4219 1CFA                                     l4077 1F1E  
                                   l4069 1EDC                                     l4085 1FF2  
                                   l4093 21B0                                     l4181 1F86  
                                   l4173 0F88                                     l4165 0F7A  
                                   l4157 0F52                                     l4149 0F1C  
                                   l4087 1FF6                                     l4079 1FBE  
                                   l4095 21B2                                     l4191 1FB8  
                                   l4183 1F9C                                     l4175 0F98  
                                   l4167 0F7E                                     l4159 0F62  
                                   l4097 21B4                                     l4089 219A  
                                   l4185 1F9E                                     l4177 0F9C  
                                   l4169 0F82                                     l4193 1CA0  
                                   l4099 21B6                                     l4187 1FA0  
                                   l4179 1F76                                     l4195 1CA4  
                                   l4189 1FA2                                     l4197 1CA8  
                                   l4199 1CAC                                     u3000 0F62  
                                   u3001 0F5E                                     u3010 1F86  
                                   u3011 1F82                                     u3020 1FB8  
                                   u3021 1FB4                                     u3030 1CE4  
                                   u3031 1CE0                                     u3040 1D1A  
                                   u3041 1D16                                     u2820 10EE  
                                   u2900 198E                                     u2821 10EA  
                                   u2901 198A                                     u2830 112C  
                                   u2910 19A0                                     u2831 1128  
                                   u2911 199C                                     u2840 1190  
                                   u2920 19B6                                     u2841 118C  
                                   u2921 19B2                                     u2930 1EEE  
                                   u2850 20C8                                     u2931 1EEA  
                                   u2851 20C4                                     u2940 1F04  
                                   u2860 2076                                     u2941 1F00  
                                   u2861 2072                                     u2950 1F12  
                                   u2870 1950                                     u2951 1F0E  
                                   u2871 194C                                     u2960 1FD0  
                                   u2880 1962                                     u2961 1FCC  
                                   u2881 195E                                     u2970 1FE6  
                                   u2890 1978                                     u2971 1FE2  
                                   u2891 1974                                     u2980 0ED6  
                                   u2981 0ED2                                     u2990 0F04  
                                   u2991 0F00                                     i2l60 2146  
                  ??_USBCtrlTrfTxService 0001                                     i2l57 0036  
                                   i2l75 1DB4                                     _UCFG 0F61  
                                   _UEP0 0F53                                     _UEP1 0F54  
                                   _UEIE 0F5B                                     _UEIR 0F5F  
                                   _UCON 0F64   USBStdFeatureReqHandler@current_ep_data 001B  
                                   _pDst 0030                                     _main 1CA0  
               ??i2_USBTransferOnePacket 0005                                     fsr1h 0FE2  
                                   fsr2h 0FDA                                     indf1 0FE7  
                                   indf2 0FDF                                     fsr1l 0FE1  
                                   fsr2l 0FD9                          _USBDeviceAttach 1F76  
                                   btemp 004D                                     prodh 0FF4  
                                   prodl 0FF3                                     start 0062  
                   ??_USBCheckHIDRequest 0001               __end_of_USBCheckStdRequest 1448  
                 ??_USBCtrlTrfOutHandler 0003                             ___param_bank 0000  
              ??_USBStdFeatureReqHandler 0017                             _USBOutHandle 0038  
               ??_USBStdGetStatusHandler 0001                           ?_USBDeviceInit 0001  
                                  ?_main 0001                   __end_of_USBDeviceTasks 08FC  
              ?_USBCtrlEPServiceComplete 0001                          ??_HIDInitialize 000F  
                                  i2l302 1326                                    i2l332 1864  
                                  i2l420 1558                                    i2l412 153A  
                                  i2l405 0BE2                                    i2l413 1472  
                                  i2l261 100A                                    i2l510 06DA  
                                  i2l414 147A                                    i2l343 1C0E  
                                  i2l423 1E88                                    i2l328 1864  
                                  i2l272 073C                                    i2l409 1456  
                                  i2l425 1E8A                                    i2l273 08FA  
                                  i2l506 0648                                    i2l338 1B66  
                                  i2l346 0DC4                                    i2l442 1AB2  
                                  i2l434 203C                                    i2l266 10D6  
                                  i2l282 085A                                    i2l371 1668  
                                  i2l515 2114                                    i2l283 08F8  
                                  i2l452 1E28                                    i2l356 0E68  
                                  i2l428 2172                                    i2l284 086C  
                                  i2l445 1C9E                                    i2l382 0D10  
                                  i2l470 1446                                    i2l391 193E  
                                  i2l384 0D26                                    i2l296 1F74  
                                  i2l472 1344                                    i2l465 176E  
                                  i2l481 139E                                    i2l466 1774  
                                  i2l458 175E                                    i2l538 0A70  
                                  i2l487 040E                                    i2l498 059A  
                                  _UADDR 0F5C                                    _PORTC 0F82  
                                  _TRISC 0F94                                    _USTAT 0F63  
        __end_of_USBCtrlEPAllowDataStage 1B68                                    _sd000 03BF  
                                  _sd001 0305                                    _sd002 0339  
         ?_USBIncrement1msInternalTimers 0001                                    main@i 0085  
                                  tablat 0FF5                                    plusw2 0FDB  
                       __end_of_Chek_ADC 2000                                    ttemp5 004E  
                                  ttemp6 0051                                    ttemp7 0055  
                                  status 0FD8                                    wtemp8 004E  
                       __end_ofi2_memset 20B0                          __initialization 2174  
                           __end_of_main 1D2E                                   ??_main 0085  
                          __activetblptr 0002                          ?_USBDeviceTasks 0001  
                           _Check_Button 1EDC                              ?_USBSuspend 0001  
                __end_of_USBDeviceAttach 1FBE                                   _ADCON0 0FC2  
                                 _ADCON1 0FC1                                   _ADCON2 0FC0  
                                 _ADRESH 0FC4                                   _ADRESL 0FC3  
                                 i2l3001 1506                                   i2l3003 154A  
                                 i2l1251 1EDA                                   i2l3021 0402  
                                 i2l3013 03C4                                   i2l3005 1552  
                                 i2l3101 0D48                                   i2l3031 045C  
                                 i2l3023 040A                                   i2l3015 03D6  
                                 i2l3007 1554                                   i2l3111 0D90  
                                 i2l3103 0D5C                                   i2l3041 04C4  
                                 i2l3033 046E                                   i2l3025 041E  
                                 i2l3017 03EA                                   i2l1257 20AE  
                                 i2l3201 1360                                   i2l3121 0DEC  
                                 i2l3113 0D9C                                   i2l3105 0D60  
                                 i2l3051 050C                                   i2l3043 04D6  
                                 i2l3035 0482                                   i2l3027 0432  
                                 i2l3019 03EE                                   i2l3211 137C  
                                 i2l3203 1368                                   i2l3131 0E10  
                                 i2l3123 0DF0                                   i2l3115 0DB4  
                                 i2l3107 0D64                                   i2l3301 16BE  
                                 i2l3061 0572                                   i2l3053 0526  
                                 i2l3045 04E4                                   i2l3037 0498  
                                 i2l3029 0446                                   i2l3221 13A2  
                                 i2l3213 1384                                   i2l3205 136A  
                                 i2l3141 0E50                                   i2l3133 0E20  
                                 i2l3125 0DF4                                   i2l3117 0DD4  
                                 i2l3109 0D6C                                   i2l3311 1706  
                                 i2l3303 16CE                                   i2l3151 0C0C  
                                 i2l3071 05E2                                   i2l3063 0588  
                                 i2l3055 053C                                   i2l3047 04F4  
                                 i2l3039 04AE                                   i2l3223 13B4  
                                 i2l3215 1392                                   i2l3207 136E  
                                 i2l3143 0E54                                   i2l3135 0E34  
                                 i2l3127 0E04                                   i2l3119 0DE8  
                                 i2l3321 174E                                   i2l3313 1716  
                                 i2l3305 16E4                                   i2l3161 0C3C  
                                 i2l3153 0C10                                   i2l3081 0632  
                                 i2l3073 05EE                                   i2l3057 054E  
                                 i2l3065 05B6                                   i2l3049 04FE  
                                 i2l3217 1394                                   i2l3209 1374  
                                 i2l3137 0E40                                   i2l3129 0E0C  
                                 i2l3241 1EB0                                   i2l3401 2156  
                                 i2l3323 176E                                   i2l3315 1726  
                                 i2l3307 16E8                                   i2l3171 0C9C  
                                 i2l3163 0C3E                                   i2l3155 0C18  
                                 i2l3147 0BE4                                   i2l3083 0658  
                                 i2l3091 06AC                                   i2l3075 060E  
                                 i2l3067 05C0                                   i2l3059 0564  
                                 i2l3219 1398                                   i2l3227 13D4  
                                 i2l3139 0E4C                                   i2l3251 1C34  
                                 i2l3243 1EBC                                   i2l3235 1E8C  
                                 i2l3411 2112                                   i2l3403 20E4  
                                 i2l3325 1770                                   i2l3317 1732  
                                 i2l3309 16FA                                   i2l3181 0CF8  
                                 i2l3173 0CA8                                   i2l3165 0C50  
                                 i2l3157 0C20                                   i2l3149 0BF4  
                                 i2l2701 2116                                   i2l3093 06B8  
                                 i2l3085 066E                                   i2l3077 061A  
                                 i2l3069 05D6                                   i2l3261 1C66  
                                 i2l3253 1C40                                   i2l3237 1EA0  
                                 i2l3245 1EC0                                   i2l3405 20F0  
                                 i2l3421 1E7A                                   i2l3413 1E2A  
                                 i2l3501 1086                                   i2l3319 1742  
                                 i2l3183 0D04                                   i2l3175 0CB8  
                                 i2l3167 0C62                                   i2l3159 0C38  
                                 i2l2703 211E                                   i2l2711 0916  
                                 i2l3095 06CE                                   i2l3087 0680  
                                 i2l3079 0624                                   i2l3191 1328  
                                 i2l3271 1C9A                                   i2l3263 1C6E  
                                 i2l3255 1C4C                                   i2l3247 1C10  
                                 i2l3239 1EAC                                   i2l3431 1A32  
                                 i2l3407 2100                                   i2l3423 1E86  
                                 i2l3415 1E3A                                   i2l3511 10B4  
                                 i2l3503 1096                                   i2l2801 157A  
                                 i2l3185 0D10                                   i2l3177 0CC4  
                                 i2l3169 0C86                                   i2l3281 1E08  
                                 i2l3273 1DB6                                   i2l2705 2128  
                                 i2l2721 0950                                   i2l3089 068C  
                                 i2l4401 151C                                   i2l3097 0D28  
                                 i2l3265 1C72                                   i2l3257 1C56  
                                 i2l3249 1C28                                   i2l3441 1A92  
                                 i2l3433 1A3A                                   i2l3425 19FC  
                                 i2l3409 2102                                   i2l3417 1E54  
                                 i2l3521 10D2                                   i2l3513 10B8  
                                 i2l3505 10A0                                   i2l2811 15AE  
                                 i2l2803 158A                                   i2l3291 1686  
                                 i2l3187 0D12                                   i2l3179 0CD4  
                                 i2l3283 1E14                                   i2l3275 1DC8  
                                 i2l2651 1BCA                                   i2l2643 1B6A  
                                 i2l4411 0A3A                                   i2l2731 0984  
                                 i2l2723 095E                                   i2l2715 092A  
                                 i2l2707 08FC                                   i2l4403 0BC4  
                                 i2l3195 1348                                   i2l3099 0D3A  
                                 i2l3267 1C7A                                   i2l3259 1C62  
                                 i2l3435 1A44                                   i2l3443 1A9A  
                                 i2l3427 1A00                                   i2l3419 1E6E  
                                 i2l3515 10BA                                   i2l3507 10A6  
                                 i2l3451 0FB2                                   i2l3611 0898  
                                 i2l3603 087A                                   i2l3531 0700  
                                 i2l3523 06DC                                   i2l2821 1602  
                                 i2l2813 15BE                                   i2l2805 1592  
                                 i2l3293 1698                                   i2l3189 0D22  
                                 i2l3285 1E24                                   i2l3277 1DD0  
                                 i2l2653 1BE2                                   i2l2645 1B72  
                                 i2l2661 1F3A                                   i2l2741 09DA  
                                 i2l2725 0966                                   i2l4405 1D60  
                                 i2l3197 1350                                   i2l2901 1B5A  
                                 i2l3269 1C7E                                   i2l3445 1AAE  
                                 i2l3437 1A62                                   i2l3429 1A16  
                                 i2l3381 2020                                   i2l3517 10BE  
                                 i2l3509 10B0                                   i2l3453 0FCE  
                                 i2l3621 08E6                                   i2l3613 08A8  
                                 i2l3605 087E                                   i2l3541 0728  
                                 i2l3525 06EC                                   i2l3533 0706  
                                 i2l2831 164C                                   i2l2823 1608  
                                 i2l2815 15C6                                   i2l2807 15A2  
                                 i2l3295 16A2                                   i2l3287 166A  
                                 i2l3279 1DE4                                   i2l2655 1BF6  
                                 i2l2647 1BB0                                   i2l2663 1F44  
                                 i2l2671 1204                                   i2l2751 0A00  
                                 i2l2743 09E2                                   i2l2727 096E  
                                 i2l2719 0940                                   i2l2735 098C  
                                 i2l4407 1DA6                                   i2l2903 1866  
                                 i2l3199 1358                                   i2l3439 1A8A  
                                 i2l3391 2148                                   i2l3383 2022  
                                 i2l3519 10CE                                   i2l3471 100C  
                                 i2l3455 0FD2                                   i2l3447 0FA2  
                                 i2l3623 08E8                                   i2l3615 08B4  
                                 i2l3607 0888                                   i2l3551 075E  
                                 i2l3543 0736                                   i2l3535 0714  
                                 i2l3527 06FA                                   i2l2833 1652  
                                 i2l2825 160C                                   i2l2809 15A6  
                                 i2l3297 16B2                                   i2l3289 167C  
                                 i2l2657 1C00                                   i2l2649 1BBA  
                                 i2l2665 1F52                                   i2l2673 1214  
                                 i2l2753 0A08                                   i2l2745 09EA  
                                 i2l4409 09A0                                   i2l2729 097C  
                                 i2l2737 09BE                                   i2l2841 2084  
                                 i2l2921 18CE                                   i2l2905 186A  
                                 i2l3393 214A                                   i2l3385 2028  
                                 i2l3377 2000                                   i2l3481 101E  
                                 i2l3473 1012                                   i2l3465 0FE0  
                                 i2l3457 0FD8                                   i2l3449 0FA4  
                                 i2l3617 08C4                                   i2l3609 088A  
                                 i2l3561 0784                                   i2l3553 0762  
                                 i2l3545 074A                                   i2l3537 0722  
                                 i2l3529 06FE                                   i2l2835 1656  
                                 i2l2819 15D8                                   i2l2827 160E  
                                 i2l3299 16BA                                   i2l2851 179A  
                                 i2l2667 1F5C                                   i2l2659 1F2C  
                                 i2l2691 12A6                                   i2l2683 125E  
                                 i2l2675 122C                                   i2l2755 0A10  
                                 i2l2747 09F2                                   i2l2763 0A26  
                                 i2l2843 2090                                   i2l2931 1904  
                                 i2l2923 18E8                                   i2l2915 18A8  
                                 i2l2907 18A2                                   i2l3395 214C  
                                 i2l3387 202A                                   i2l3379 2004  
                                 i2l3483 1022                                   i2l3475 1014  
                                 i2l3467 0FF8                                   i2l3459 0FDC  
                                 i2l3619 08CC                                   i2l3571 07C2  
                                 i2l3563 0792                                   i2l3547 0758  
                                 i2l3555 0764                                   i2l3539 0724  
                                 i2l2829 1622                                   i2l2837 1658  
                                 i2l2861 17DC                                   i2l2853 179E  
                                 i2l2669 1F68                                   i2l2693 12B6  
                                 i2l2685 1282                                   i2l2677 1240  
                                 i2l2757 0A18                                   i2l2749 09F8  
                                 i2l2781 1D3A                                   i2l2941 0A72  
                                 i2l2845 2094                                   i2l2933 1908  
                                 i2l2925 18EA                                   i2l2917 18BC  
                                 i2l2909 18A4                                   i2l3397 214E  
                                 i2l3389 2038                                   i2l3493 1050  
                                 i2l3485 102A                                   i2l3477 1016  
                                 i2l3469 0FFA                                   i2l3581 07F6  
                                 i2l3573 07D2                                   i2l3565 07A0  
                                 i2l3557 0772                                   i2l3549 075C  
                                 i2l2871 1820                                   i2l2863 17EC  
                                 i2l2855 17B0                                   i2l2847 1776  
                                 i2l2695 12EC                                   i2l2687 128E  
                                 i2l2679 1252                                   i2l2759 0A1E  
                                 i2l2951 0ABA                                   i2l2943 0A86  
                                 i2l2839 2078                                   i2l2935 1918  
                                 i2l2927 18F4                                   i2l2919 18BE  
                                 i2l3399 2152                                   i2l3495 1070  
                                 i2l3487 1038                                   i2l3479 1018  
                                 i2l3591 083E                                   i2l3583 0804  
                                 i2l3575 07D4                                   i2l3567 07BC  
                                 i2l3559 0780                                   i2l2873 182C  
                                 i2l2865 17F0                                   i2l2857 17C0  
                                 i2l2849 1786                                   i2l2697 131E  
                                 i2l2689 129A                                   i2l2785 1D42  
                                 i2l2777 1D2E                                   i2l2961 0B52  
                                 i2l2953 0AD4                                   i2l2945 0A90  
                                 i2l2937 1920                                   i2l2929 18FC  
                                 i2l2881 1AB4                                   i2l3497 107A  
                                 i2l3593 0844                                   i2l3585 0808  
                                 i2l3577 07E4                                   i2l3569 07BE  
                                 i2l2795 155A                                   i2l2875 1830  
                                 i2l2867 1800                                   i2l2859 17CC  
                                 i2l2779 1D32                                   i2l2963 0B6C  
                                 i2l2955 0B04                                   i2l2947 0A9E  
                                 i2l2971 0BAE                                   i2l2939 193A  
                                 i2l2891 1B0E                                   i2l2883 1ABC  
                                 i2l3499 1084                                   i2l3595 0854  
                                 i2l3587 0816                                   i2l3579 07E8  
                                 i2l2797 155E                                   i2l2877 1840  
                                 i2l2869 1814                                   i2l2965 0B9A  
                                 i2l2957 0B38                                   i2l2949 0AAA  
                                 i2l2981 145A                                   i2l2893 1B2C  
                                 i2l2885 1ACE                                   i2l3597 0868  
                                 i2l3589 0824                                   i2l3765 0032  
                                 i2l2799 1576                                   i2l2879 1854  
                                 i2l2967 0BA4                                   i2l2959 0B42  
                                 i2l2991 14BC                                   i2l2983 146A  
                                 i2l4399 13E8                                   i2l2895 1B34  
                                 i2l2887 1AF2                                   i2l2993 14D2  
                                 i2l2985 147E                                   i2l2977 1448  
                                 i2l2897 1B38                                   i2l2889 1AFE  
                                 i2l2995 14E8                                   i2l2987 1494  
                                 i2l2899 1B4E                                   i2l2997 14FE  
                                 i2l2989 14A2                 i2USBTransferOnePacket@ep 0009  
                      ??i2_USBDeviceInit 0009                        _shortPacketStatus 0046  
                        USBDeviceTasks@i 0021              USBStdFeatureReqHandler@pUEP 0019  
               USBTransferOnePacket@data 007B               USBCtrlTrfInHandler@lastDTS 0002  
                        ??_USBDeviceInit 0082                        _USBEnableEndpoint 1F2A  
                                 _memcpy 1E8C                                   _memset 203E  
                                 clear_0 217A                                   clear_1 2186  
                                 isa$std 0001                       ?_USBEnableEndpoint 000B  
                           __mediumconst 0000                                   tblptrh 0FF7  
                                 tblptrl 0FF6                                   tblptru 0FF8  
                    ??_USBEnableEndpoint 000C                              _CtrlTrfData 0228  
                   _controlTransferState 0045                        _SYSTEM_Initialize 219A  
                             __accesstop 0060                  __end_of__initialization 218C  
                          _ADC_Read10bit 20B0                       ?_SYSTEM_Initialize 0001  
                          ___rparam_used 0001                           __pcstackCOMRAM 0001  
              __end_of_USBEnableEndpoint 1F76                            __end_of_sd000 03C3  
                          __end_of_sd001 0339                            __end_of_sd002 0367  
                    ??_SYSTEM_Initialize 007A                          _active_protocol 0048  
            __end_of_USBCtrlTrfInHandler 1776                           _Read_Write_USB 1940  
                 i2_USBTransferOnePacket 1202                                ?_Chek_ADC 0001  
                              ?i2_memset 0001                 ??_USBCtrlTrfSetupHandler 0020  
                _USBTicksSinceSuspendEnd 003A                         ?_USBDeviceAttach 0001  
              __end_of_SYSTEM_Initialize 21C0                   _USBStdGetStatusHandler 1448  
                             __pbssBANK0 0060                           ?_ADC_Read10bit 007A  
                            _pBDTEntryIn 006E         __end_of_USBCtrlEPServiceComplete 0E6A  
                   USBCtrlTrfRxService@i 0001                   __end_of_Read_Write_USB 19FC  
                                ?_memcpy 0001                                  ?_memset 007A  
                             _device_dsc 03AD                         _USBCtrlEPService 19FC  
                             _ep_data_in 0078              __end_of_USBCtrlTrfRxService 0D28  
                             ??_Chek_ADC 007E                       _USBCheckStdRequest 1328  
                      _configDescriptor1 0367                               ??i2_memset 0007  
            __end_of_USBCtrlTrfTxService 166A                      _USBStdSetCfgHandler 1866  
                    ?_USBCheckStdRequest 0001                                  _UIEbits 0F60  
                                _UIRbits 0F62                                  __Hparam 0000  
        ??_USBIncrement1msInternalTimers 0001                     ?_USBStdSetCfgHandler 0001  
                                __Lparam 0000                        __end_of_hid_rpt01 03AD  
                   ??_USBCheckStdRequest 001E                         ??_USBDeviceTasks 0021  
                      ??_USBStallHandler 0001                             __psmallconst 0300  
                        ?_Read_Write_USB 0001                                  __pcinit 2174  
              __end_of_configDescriptor1 0390                                  __ramtop 0300  
                                __ptext0 1CA0                                  __ptext1 0E6A  
                                __ptext2 203E                                  __ptext3 1F76  
                                __ptext4 219A                                  __ptext5 1940  
                                __ptext6 10D8                                  __ptext7 1FBE  
                                __ptext8 20B0                                  __ptext9 1EDC  
                           i2memset@dest 0001                                  _inPipes 0068  
            _USBDeferOUTDataStagePackets 003B                             ??_USBSuspend 0017  
                  __end_of_HIDInitialize 2148                          i2_USBDeviceInit 0FA2  
                       i2USBDeviceInit@i 0009                       __end_of_USB_CD_Ptr 0305  
                   end_of_initialization 218C                          ??_ADC_Read10bit 007C  
                     __end_of_USB_SD_Ptr 0304                                  memcpy@d 0007  
                                memcpy@n 0005                                  memcpy@s 0009  
                    _pBDTEntryEP0OutNext 0032                                  memset@c 007C  
                                memset@n 007E                                  memset@p 0080  
                          __Lmediumconst 0000                          _USB1msTickCount 002C  
               ?_USBStdFeatureReqHandler 0001                    ??_USBStdSetCfgHandler 0017  
                     __end_of_USBSuspend 2174                  _USBCtrlEPAllowDataStage 1AB4  
                                postdec2 0FDD                                  postinc0 0FEE  
                                postinc2 0FDE                 _USBCtrlEPServiceComplete 0D28  
             _USBStatusStageEnabledFlag1 003E               _USBStatusStageEnabledFlag2 003D  
                     USBEnableEndpoint@p 000C                                _PORTBbits 0F81  
                              _TRISBbits 0F93                       _BothEP0OutUOWNsSet 0041  
              USBConfigureEndpoint@EPNum 0008               ?_USBCtrlEPAllowStatusStage 0001  
    USER_USB_CALLBACK_EVENT_HANDLER@size 0013                                _USTATcopy 004A  
           __end_of_USBTransferOnePacket 1202                   _USBCtrlTrfSetupHandler 1C10  
                ?i2_USBTransferOnePacket 0001                    __end_of_USBDeviceInit 0FA2  
  __end_of_USBIncrement1msInternalTimers 2116            _USBIncrement1msInternalTimers 20E4  
                __end_ofi2_USBDeviceInit 10D8                                i2memset@c 0003  
                              i2memset@n 0005                                i2memset@p 0007  
                         __end_of_memcpy 1EDC                           __end_of_memset 2078  
                      _USBBusIsSuspended 0043                      start_initialization 2174  
                ?_USBStdGetStatusHandler 0001            USBCtrlTrfRxService@byteToRead 0002  
           __end_of_USBConfigureEndpoint 1C10          __end_of_USBStdFeatureReqHandler 06DC  
      __end_of_USBCtrlEPAllowStatusStage 1866                 __end_of_USBCtrlEPService 1AB4  
              ??_USBCtrlEPAllowDataStage 0002                           USBDeviceInit@i 0082  
                 _pBDTEntryEP0OutCurrent 0034                  USBTransferOnePacket@dir 007A  
                USBTransferOnePacket@len 007D           __end_ofi2_USBTransferOnePacket 1328  
                    _USBStdGetDscHandler 0A72                                 ??_memcpy 0007  
                               ??_memset 0080                               memset@dest 007A  
                 _USBActiveConfiguration 004C           __end_of_USBStdGetStatusHandler 155A  
                            __pbssCOMRAM 002C                            __pcstackBANK0 007A  
                           _ReceivedData 0260                     ?_USBStdGetDscHandler 0001  
             __end_of_USBWakeFromSuspend 203E                          _USBStallHandler 1E2A  
                           _pBDTEntryOut 0072                         ??_Read_Write_USB 0085  
                              __pintcode 0008                                _hid_rpt01 0390  
                              _idle_rate 0049                              Chek_ADC@pot 007E  
                       ?i2_USBDeviceInit 0001                            ?_Check_Button 0001  
                   _USBTransferOnePacket 10D8                              __smallconst 0300  
           __end_of_USBCtrlTrfOutHandler 1E2A                    ??_USBStdGetDscHandler 0001  
                            _ep_data_out 0076            USBConfigureEndpoint@direction 0001  
             __end_of_USBCheckHIDRequest 0A72               ??_USBCtrlEPServiceComplete 0002  
                               _IPR2bits 0FA2                                 _PIE2bits 0FA0  
                               i2u200_40 0D3A                                 i2u200_41 0D36  
                               i2u201_40 0D48                                 i2u201_41 0D44  
                               i2u210_40 0C9C                                 i2u202_40 0D5C  
                               i2u210_41 0C98                                 i2u202_41 0D58  
                               i2u211_40 0D22                                 i2u203_40 0DD4  
                               i2u211_41 0D1E                                 i2u203_41 0DD0  
                               i2u220_40 1726                                 i2u212_40 1340  
                               i2u204_40 0DE8                                 i2u220_41 1722  
                               i2u212_41 133C                                 i2u204_41 0DE4  
                               i2u221_40 176E                                 i2u205_40 0E04  
                               i2u213_40 1EDA                                 i2u221_41 176A  
                               i2u205_41 0E00                                 i2u213_41 1ED6  
                               i2u214_40 1DC8                                 i2u142_40 1BCA  
                               i2u150_40 093C                                 i2u206_40 0E64  
                               i2u230_40 1E3A                                 i2u214_41 1DC4  
                               i2u142_41 1BC6                                 i2u150_41 0938  
                               i2u206_41 0E60                                 i2u230_41 1E36  
                               i2u207_40 0C0C                                 i2u215_40 1DE4  
                               i2u143_40 1F3A                                 i2u151_40 0950  
                               i2u231_40 1E54                                 i2u207_41 0C08  
                               i2u215_41 1DE0                                 i2u143_41 1F36  
                               i2u151_41 094C                                 i2u231_41 1E50  
                               i2u160_40 1668                                 i2u216_40 1698  
                               i2u208_40 0C50                                 i2u144_40 1F52  
                               i2u152_40 09D6                                 i2u232_40 1E6E  
                               i2u240_40 06FA                                 i2u160_41 1664  
                               i2u216_41 1694                                 i2u208_41 0C4C  
                               i2u144_41 1F4E                                 i2u152_41 09D2  
                               i2u232_41 1E6A                                 i2u240_41 06F6  
                               i2u153_40 1576                                 i2u217_40 16B2  
                               i2u209_40 0C62                                 i2u145_40 1214  
                               i2u161_40 20AE                                 i2u233_40 1A16  
                               i2u241_40 0714                                 i2u153_41 1572  
                               i2u217_41 16AE                                 i2u209_41 0C5E  
                               i2u145_41 1210                                 i2u161_41 20AA  
                               i2u233_41 1A12                                 i2u241_41 0710  
                               i2u154_40 158A                                 i2u218_40 16CE  
                               i2u162_40 1786                                 i2u146_40 1252  
                               i2u170_40 0A86                                 i2u234_40 1A62  
                               i2u250_40 07D2                                 i2u242_40 0722  
                               i2u154_41 1586                                 i2u218_41 16CA  
                               i2u162_41 1782                                 i2u146_41 124E  
                               i2u170_41 0A82                                 i2u234_41 1A5E  
                               i2u250_41 07CE                                 i2u242_41 071E  
                               i2u155_40 15A2                                 i2u219_40 16FA  
                               i2u163_40 179A                                 i2u147_40 12B6  
                               i2u171_40 0ABA                                 i2u235_40 1AAE  
                               i2u227_40 2038                                 i2u251_40 07E4  
                               i2u243_40 0736                                 i2u155_41 159E  
                               i2u219_41 16F6                                 i2u163_41 1796  
                               i2u147_41 12B2                                 i2u171_41 0AB6  
                               i2u235_41 1AAA                                 i2u227_41 2034  
                               i2u251_41 07E0                                 i2u243_41 0732  
                               i2u156_40 15D4                                 i2u164_40 17B0  
                               i2u148_40 0912                                 i2u172_40 0B00  
                               i2u180_40 14FE                                 i2u228_40 2100  
                               i2u236_40 100A                                 i2u260_40 08C4  
                               i2u252_40 07F6                                 i2u244_40 074A  
                               i2u156_41 15D0                                 i2u164_41 17AC  
                               i2u148_41 090E                                 i2u180_41 14FA  
                               i2u228_41 20FC                                 i2u236_41 1006  
                               i2u260_41 08C0                                 i2u252_41 07F2  
                               i2u244_41 0746                                 i2u172_47 0AF6  
                               i2u157_40 1600                                 i2u165_40 17EC  
                               i2u149_40 0926                                 i2u173_40 0B30  
                               i2u181_40 154A                                 i2u229_40 2112  
                               i2u237_40 1038                                 i2u261_40 08F8  
                               i2u253_40 0804                                 i2u245_40 0758  
                               i2u165_41 17E8                                 i2u149_41 0922  
                               i2u181_41 1546                                 i2u229_41 210E  
                               i2u237_41 1034                                 i2u261_41 08F4  
                               i2u253_41 0800                                 i2u245_41 0754  
                               i2u157_47 15F6                                 i2u173_47 0B26  
                               i2u158_40 161E                                 i2u190_40 0482  
                               i2u182_40 03D6                                 i2u174_40 0B52  
                               i2u166_40 1ACE                                 i2u238_40 1096  
                               i2u254_40 0816                                 i2u246_40 0772  
                               i2u158_41 161A                                 i2u190_41 047E  
                               i2u182_41 03D2                                 i2u174_41 0B4E  
                               i2u166_41 1ACA                                 i2u238_41 1092  
                               i2u254_41 0812                                 i2u246_41 076E  
                               i2u159_40 164A                                 i2u191_40 04E4  
                               i2u183_40 03EA                                 i2u175_40 0B8C  
                               i2u167_40 1B2C                                 i2u255_40 0824  
                               i2u247_40 0780                                 i2u239_40 06EC  
                               i2u191_41 04E0                                 i2u183_41 03E6  
                               i2u167_41 1B28                                 i2u255_41 0820  
                               i2u247_41 077C                                 i2u239_41 06E8  
                               i2u159_47 1640                                 i2u175_47 0B82  
                               i2u192_40 050C                                 i2u184_40 0402  
                               i2u176_40 146A                                 i2u168_40 18CE  
                               i2u256_40 0854                                 i2u248_40 0792  
                               i2u192_41 0508                                 i2u184_41 03FE  
                               i2u176_41 1466                                 i2u168_41 18CA  
                               i2u256_41 0850                                 i2u248_41 078E  
                               i2u193_40 054E                                 i2u185_40 041E  
                               i2u177_40 1494                                 i2u169_40 1918  
                               i2u257_40 0868                                 i2u249_40 07A0  
                               i2u193_41 054A                                 i2u185_41 041A  
                               i2u177_41 1490                                 i2u169_41 1914  
                               i2u257_41 0864                                 i2u249_41 079C  
                               i2u194_40 0564                                 i2u186_40 0432  
                               i2u178_40 14A2                                 i2u258_40 087A  
                               i2u194_41 0560                                 i2u186_41 042E  
                               i2u178_41 149E                                 i2u258_41 0876  
                               i2u195_40 0572                                 i2u187_40 0446  
                               i2u179_40 14E8                                 i2u259_40 0898  
                               i2u195_41 056E                                 i2u187_41 0442  
                               i2u179_41 14E4                                 i2u259_41 0894  
                               _PIR2bits 0FA1                                 i2u196_40 05D6  
                               i2u188_40 045C                                 i2u196_41 05D2  
                               i2u188_41 0458                                 i2u197_40 0632  
                               i2u189_40 046E                                 i2u197_41 062E  
                               i2u189_41 046A                                 i2u198_40 0648  
                               i2u198_41 0644                                 i2u199_40 0658  
                               i2u199_41 0654                                 _RCONbits 0FD0  
                               _UEP0bits 0F53               _USBDeferINDataStagePackets 003C  
                               _UCONbits 0F64                     _USBConfigureEndpoint 1B68  
                         ??_Check_Button 007A                               _ADCON0bits 0FC2  
                             _ADCON2bits 0FC0                                main@i_443 0087  
                  ?_USBTransferOnePacket 007A                                 _Chek_ADC 1FBE  
                      _SYS_InterruptHigh 0008                                 _WPUBbits 0F78  
                           _RemoteWakeup 0044                                 i2_memset 2078  
                     ?_SYS_InterruptHigh 0001                  __end_of_USBStallHandler 1E8C  
                            _INTCON2bits 0FF1              ??_USBCtrlEPAllowStatusStage 0001  
            __end_of_USBStdSetCfgHandler 1940                      ??_SYS_InterruptHigh 0022  
                  __end_of_ADC_Read10bit 20E4                       __end_of_device_dsc 03BF  
                               _SendData 02A0                  ?_USBCtrlTrfSetupHandler 0001  
                USBStdGetStatusHandler@p 0003                                 __Hrparam 0000  
                              memcpy@tmp 000B                                 __Lrparam 0000  
                 USBTransferOnePacket@ep 0082                                 _SetupPkt 0220  
                  ?_USBConfigureEndpoint 0001                        ??_USBDeviceAttach 007A  
              __end_of_SYS_InterruptHigh 0062                               _ANSELHbits 0F7F  
                               __ptext11 06DC                                 __ptext20 0D28  
                               __ptext12 0FA2                                 __ptext21 1AB4  
                               __ptext13 2000                                 __ptext30 2116  
                               __ptext22 1328                                 __ptext14 2148  
                               __ptext31 1202                                 __ptext23 1866  
                               __ptext15 1E2A                                 __ptext32 1F2A  
                               __ptext24 2078                                 __ptext16 20E4  
                               __ptext33 1B68                                 __ptext25 1448  
                               __ptext17 19FC                                 __ptext34 1DB6  
                               __ptext26 0A72                                 __ptext18 1E8C  
                               __ptext35 0BE4                                 __ptext27 03C4  
                               __ptext19 1C10                                 __ptext36 1776  
                               __ptext28 1D2E                                 __ptext37 166A  
                               __ptext29 08FC                                 __ptext38 155A  
         __end_of_USBCtrlTrfSetupHandler 1CA0                        ?_USBCtrlEPService 0001  
                     ??_USBCtrlEPService 0020                      _USBCtrlTrfInHandler 166A  
                               isa$xinst 0000                                 _outPipes 0060  
                   _USBCtrlTrfOutHandler 1DB6                                 int$flags 004D  
              _USBCtrlEPAllowStatusStage 1776                   ??_USBTransferOnePacket 007E  
              _USBDeferStatusStagePacket 003F                               _INTCONbits 0FF2  
                   ?_USBCtrlTrfInHandler 0001                                 memcpy@d1 0001  
                               memcpy@s1 0003            USBCtrlTrfTxService@byteToSend 0001  
                          _HIDInitialize 2116                         ?_USBStallHandler 0001  
               USBStdFeatureReqHandler@p 001C                                 intlevel2 0000  
__end_of_USER_USB_CALLBACK_EVENT_HANDLER 1DB6        ??_USER_USB_CALLBACK_EVENT_HANDLER 0015  
       ?_USER_USB_CALLBACK_EVENT_HANDLER 000F          _USER_USB_CALLBACK_EVENT_HANDLER 1D2E  
           i2USBTransferOnePacket@handle 000A                     __end_of_Check_Button 1F2A  
             i2USBTransferOnePacket@data 0002                   ??_USBConfigureEndpoint 0002  
                  ?_USBCtrlTrfOutHandler 0001                      _USBCtrlTrfRxService 0BE4  
                     _USBWakeFromSuspend 2000                  _USBStdFeatureReqHandler 03C4  
                    _USBCtrlTrfTxService 155A                      ?_USBWakeFromSuspend 0001  
                  ??_USBCtrlTrfInHandler 0002                    _USBAlternateInterface 004B  
                         ?_HIDInitialize 0001                i2USBTransferOnePacket@dir 0001  
              i2USBTransferOnePacket@len 0004                      USBEnableEndpoint@ep 000E  
                        _endpoint_number 0042                      ADC_Read10bit@result 007C  
                   ?_USBCtrlTrfRxService 0001                 ?_USBCtrlEPAllowDataStage 0001  
                   ?_USBCtrlTrfTxService 0001             _USBStatusStageTimeoutCounter 0040  
                   ??_USBWakeFromSuspend 0017               USBTransferOnePacket@handle 0083  
                             _USB_CD_Ptr 0304                              _USBInHandle 0036  
