

Microchip MPLAB XC8 Assembler V2.40 build 20220703182018 
                                                                                               Fri Feb 09 18:32:30 2024

Microchip MPLAB XC8 C Compiler v2.40 (Free license) build 20220703182018 Og9 
     1                           	processor	18F14K50
     2                           	fnconf	rparam,??,?,0
     3                           	pagewidth 120
     4                           	opt	flic
     5                           	psect	smallconst,global,reloc=2,class=SMALLCONST,delta=1,noexec
     6                           	psect	cinit,global,reloc=2,class=CODE,delta=1
     7                           	psect	bssCOMRAM,global,class=COMRAM,space=1,delta=1,lowdata,noexec
     8                           	psect	bssBANK0,global,class=BANK0,space=1,delta=1,lowdata,noexec
     9                           	psect	cstackBANK0,global,class=BANK0,space=1,delta=1,lowdata,noexec
    10                           	psect	cstackCOMRAM,global,class=COMRAM,space=1,delta=1,lowdata,noexec
    11                           	psect	text0,global,reloc=2,class=CODE,delta=1
    12                           	psect	text1,global,reloc=2,class=CODE,delta=1
    13                           	psect	text2,global,reloc=2,class=CODE,delta=1
    14                           	psect	text3,global,reloc=2,class=CODE,delta=1
    15                           	psect	text4,global,reloc=2,class=CODE,delta=1
    16                           	psect	text5,global,reloc=2,class=CODE,delta=1
    17                           	psect	text6,global,reloc=2,class=CODE,delta=1
    18                           	psect	text7,global,reloc=2,class=CODE,delta=1,group=2
    19                           	psect	text8,global,reloc=2,class=CODE,delta=1
    20                           	psect	text9,global,reloc=2,class=CODE,delta=1
    21                           	psect	text10,global,reloc=2,class=CODE,delta=1
    22                           	psect	text11,global,reloc=2,class=CODE,delta=1
    23                           	psect	text12,global,reloc=2,class=CODE,delta=1
    24                           	psect	text13,global,reloc=2,class=CODE,delta=1
    25                           	psect	text14,global,reloc=2,class=CODE,delta=1
    26                           	psect	text15,global,reloc=2,class=CODE,delta=1
    27                           	psect	intcode,global,reloc=2,class=CODE,delta=1
    28                           	psect	text17,global,reloc=2,class=CODE,delta=1
    29                           	psect	text18,global,reloc=2,class=CODE,delta=1
    30                           	psect	text19,global,reloc=2,class=CODE,delta=1
    31                           	psect	text20,global,reloc=2,class=CODE,delta=1
    32                           	psect	text21,global,reloc=2,class=CODE,delta=1
    33                           	psect	text22,global,reloc=2,class=CODE,delta=1
    34                           	psect	text23,global,reloc=2,class=CODE,delta=1
    35                           	psect	text24,global,reloc=2,class=CODE,delta=1,group=2
    36                           	psect	text25,global,reloc=2,class=CODE,delta=1
    37                           	psect	text26,global,reloc=2,class=CODE,delta=1
    38                           	psect	text27,global,reloc=2,class=CODE,delta=1
    39                           	psect	text28,global,reloc=2,class=CODE,delta=1
    40                           	psect	text29,global,reloc=2,class=CODE,delta=1
    41                           	psect	text30,global,reloc=2,class=CODE,delta=1
    42                           	psect	text31,global,reloc=2,class=CODE,delta=1
    43                           	psect	text32,global,reloc=2,class=CODE,delta=1
    44                           	psect	text33,global,reloc=2,class=CODE,delta=1
    45                           	psect	text34,global,reloc=2,class=CODE,delta=1
    46                           	psect	text35,global,reloc=2,class=CODE,delta=1
    47                           	psect	text36,global,reloc=2,class=CODE,delta=1
    48                           	psect	text37,global,reloc=2,class=CODE,delta=1
    49                           	psect	text38,global,reloc=2,class=CODE,delta=1
    50                           	psect	text39,global,reloc=2,class=CODE,delta=1
    51                           	psect	text40,global,reloc=2,class=CODE,delta=1
    52                           	psect	text41,global,reloc=2,class=CODE,delta=1
    53                           	psect	text42,global,reloc=2,class=CODE,delta=1
    54                           	psect	text43,global,reloc=2,class=CODE,delta=1
    55                           	psect	text44,global,reloc=2,class=CODE,delta=1
    56                           	psect	text45,global,reloc=2,class=CODE,delta=1
    57                           	psect	text46,global,reloc=2,class=CODE,delta=1
    58                           	psect	text47,global,reloc=2,class=CODE,delta=1
    59                           	psect	text48,global,reloc=2,class=CODE,delta=1
    60                           	psect	text49,global,reloc=2,class=CODE,delta=1
    61                           	psect	text50,global,reloc=2,class=CODE,delta=1
    62                           	psect	text51,global,reloc=2,class=CODE,delta=1
    63                           	psect	text52,global,reloc=2,class=CODE,delta=1
    64                           	psect	text53,global,reloc=2,class=CODE,delta=1
    65                           	psect	text54,global,reloc=2,class=CODE,delta=1
    66                           	psect	text55,global,reloc=2,class=CODE,delta=1
    67                           	psect	text56,global,reloc=2,class=CODE,delta=1
    68                           	psect	text57,global,reloc=2,class=CODE,delta=1
    69                           	psect	intsave_regs,global,class=BIGRAM,space=1,delta=1,noexec
    70                           	psect	text58,global,reloc=2,class=CODE,delta=1
    71                           	psect	rparam,global,class=COMRAM,space=1,delta=1,noexec
    72                           	psect	temp,global,ovrld,common,class=COMRAM,space=1,delta=1
    73                           	psect	idloc,global,abs,ovrld,class=IDLOC,space=5,delta=1,noexec
    74                           	psect	config,global,abs,ovrld,class=CONFIG,space=4,delta=1,noexec
    75                           	dabs	1,0x200,32,_BDT
    76                           	dabs	1,0x240,8,_inputReport
    77                           	dabs	1,0x228,8,_CtrlTrfData
    78                           	dabs	1,0x220,8,_SetupPkt
    79                           	dabs	1,0x248,1,_outputReport
    80   000000                     
    81                           ; Version 2.40
    82                           ; Generated 04/07/2022 GMT
    83                           ; 
    84                           ; Copyright © 2022, Microchip Technology Inc. and its subsidiaries ("Microchip")
    85                           ; All rights reserved.
    86                           ; 
    87                           ; This software is developed by Microchip Technology Inc. and its subsidiaries ("Microch
      +                          ip").
    88                           ; 
    89                           ; Redistribution and use in source and binary forms, with or without modification, are
    90                           ; permitted provided that the following conditions are met:
    91                           ; 
    92                           ;     1. Redistributions of source code must retain the above copyright notice, this lis
      +                          t of
    93                           ;        conditions and the following disclaimer.
    94                           ; 
    95                           ;     2. Redistributions in binary form must reproduce the above copyright notice, this 
      +                          list
    96                           ;        of conditions and the following disclaimer in the documentation and/or other
    97                           ;        materials provided with the distribution. Publication is not required when
    98                           ;        this file is used in an embedded application.
    99                           ; 
   100                           ;     3. Microchip's name may not be used to endorse or promote products derived from th
      +                          is
   101                           ;        software without specific prior written permission.
   102                           ; 
   103                           ; THIS SOFTWARE IS PROVIDED BY MICROCHIP "AS IS" AND ANY EXPRESS OR IMPLIED WARRANTIES,
   104                           ; INCLUDING, BUT NOT LIMITED TO, THE IMPLIED WARRANTIES OF MERCHANTABILITY AND FITNESS F
      +                          OR
   105                           ; PURPOSE ARE DISCLAIMED.  IN NO EVENT SHALL MICROCHIP BE LIABLE FOR ANY DIRECT, INDIREC
      +                          T,
   106                           ; INCIDENTAL, SPECIAL, EXEMPLARY, OR CONSEQUENTIAL DAMAGES (INCLUDING BUT NOT LIMITED TO
   107                           ; PROCUREMENT OF SUBSTITUTE GOODS OR SERVICES; LOSS OF USE, DATA OR PROFITS; OR BUSINESS
   108                           ; INTERRUPTION) HOWSOEVER CAUSED AND ON ANY THEORY OF LIABILITY, WHETHER IN CONTRACT, ST
      +                          RICT
   109                           ; LIABILITY, OR TORT (INCLUDING NEGLIGENCE OR OTHERWISE) ARISING IN ANY WAY OUT OF THE U
      +                          SE OF
   110                           ; THIS SOFTWARE, EVEN IF ADVISED OF THE POSSIBILITY OF SUCH DAMAGE.
   111                           ; 
   112                           ; 
   113                           ; Code-generator required, PIC18F14K50 Definitions
   114                           ; 
   115                           ; SFR Addresses
   116   000000                     
   117                           	psect	smallconst
   118   000300                     __psmallconst:
   119                           	callstack 0
   120   000300  00                 	db	0
   121   000301                     _USB_SD_Ptr:
   122                           	callstack 0
   123   000301  CF                 	db	low _sd000
   124   000302  44                 	db	low _sd001
   125   000303  A1                 	db	low _sd002
   126   000304                     __end_of_USB_SD_Ptr:
   127                           	callstack 0
   128   000304                     _USB_CD_Ptr:
   129                           	callstack 0
   130   000304  78                 	db	low _configDescriptor1
   131   000305                     __end_of_USB_CD_Ptr:
   132                           	callstack 0
   133   000305                     _hid_rpt01:
   134                           	callstack 0
   135   000305  05                 	db	5
   136   000306  01                 	db	1
   137   000307  09                 	db	9
   138   000308  06                 	db	6
   139   000309  A1                 	db	161
   140   00030A  01                 	db	1
   141   00030B  05                 	db	5
   142   00030C  07                 	db	7
   143   00030D  19                 	db	25
   144   00030E  E0                 	db	224
   145   00030F  29                 	db	41
   146   000310  E7                 	db	231
   147   000311  15                 	db	21
   148   000312  00                 	db	0
   149   000313  25                 	db	37
   150   000314  01                 	db	1
   151   000315  75                 	db	117
   152   000316  01                 	db	1
   153   000317  95                 	db	149
   154   000318  08                 	db	8
   155   000319  81                 	db	129
   156   00031A  02                 	db	2
   157   00031B  95                 	db	149
   158   00031C  01                 	db	1
   159   00031D  75                 	db	117
   160   00031E  08                 	db	8
   161   00031F  81                 	db	129
   162   000320  03                 	db	3
   163   000321  95                 	db	149
   164   000322  05                 	db	5
   165   000323  75                 	db	117
   166   000324  01                 	db	1
   167   000325  05                 	db	5
   168   000326  08                 	db	8
   169   000327  19                 	db	25
   170   000328  01                 	db	1
   171   000329  29                 	db	41
   172   00032A  05                 	db	5
   173   00032B  91                 	db	145
   174   00032C  02                 	db	2
   175   00032D  95                 	db	149
   176   00032E  01                 	db	1
   177   00032F  75                 	db	117
   178   000330  03                 	db	3
   179   000331  91                 	db	145
   180   000332  03                 	db	3
   181   000333  95                 	db	149
   182   000334  06                 	db	6
   183   000335  75                 	db	117
   184   000336  08                 	db	8
   185   000337  15                 	db	21
   186   000338  00                 	db	0
   187   000339  25                 	db	37
   188   00033A  65                 	db	101
   189   00033B  05                 	db	5
   190   00033C  07                 	db	7
   191   00033D  19                 	db	25
   192   00033E  00                 	db	0
   193   00033F  29                 	db	41
   194   000340  65                 	db	101
   195   000341  81                 	db	129
   196   000342  00                 	db	0
   197   000343  C0                 	db	192
   198   000344                     __end_of_hid_rpt01:
   199                           	callstack 0
   200   000344                     _sd001:
   201                           	callstack 0
   202   000344  34                 	db	52
   203   000345  03                 	db	3
   204   000346  004D               	dw	77
   205   000348  0069               	dw	105
   206   00034A  0063               	dw	99
   207   00034C  0072               	dw	114
   208   00034E  006F               	dw	111
   209   000350  0063               	dw	99
   210   000352  0068               	dw	104
   211   000354  0069               	dw	105
   212   000356  0070               	dw	112
   213   000358  0020               	dw	32
   214   00035A  0054               	dw	84
   215   00035C  0065               	dw	101
   216   00035E  0063               	dw	99
   217   000360  0068               	dw	104
   218   000362  006E               	dw	110
   219   000364  006F               	dw	111
   220   000366  006C               	dw	108
   221   000368  006F               	dw	111
   222   00036A  0067               	dw	103
   223   00036C  0079               	dw	121
   224   00036E  0020               	dw	32
   225   000370  0049               	dw	73
   226   000372  006E               	dw	110
   227   000374  0063               	dw	99
   228   000376  002E               	dw	46
   229   000378                     __end_of_sd001:
   230                           	callstack 0
   231   000378                     _configDescriptor1:
   232                           	callstack 0
   233   000378  09                 	db	9
   234   000379  02                 	db	2
   235   00037A  29                 	db	41
   236   00037B  00                 	db	0
   237   00037C  01                 	db	1
   238   00037D  01                 	db	1
   239   00037E  00                 	db	0
   240   00037F  C0                 	db	192
   241   000380  F4                 	db	244
   242   000381  09                 	db	9
   243   000382  04                 	db	4
   244   000383  00                 	db	0
   245   000384  00                 	db	0
   246   000385  02                 	db	2
   247   000386  03                 	db	3
   248   000387  01                 	db	1
   249   000388  01                 	db	1
   250   000389  00                 	db	0
   251   00038A  09                 	db	9
   252   00038B  21                 	db	33
   253   00038C  11                 	db	17
   254   00038D  01                 	db	1
   255   00038E  00                 	db	0
   256   00038F  01                 	db	1
   257   000390  22                 	db	34
   258   000391  3F                 	db	63
   259   000392  00                 	db	0
   260   000393  07                 	db	7
   261   000394  05                 	db	5
   262   000395  81                 	db	129
   263   000396  03                 	db	3
   264   000397  08                 	db	8
   265   000398  00                 	db	0
   266   000399  01                 	db	1
   267   00039A  07                 	db	7
   268   00039B  05                 	db	5
   269   00039C  01                 	db	1
   270   00039D  03                 	db	3
   271   00039E  08                 	db	8
   272   00039F  00                 	db	0
   273   0003A0  01                 	db	1
   274   0003A1                     __end_of_configDescriptor1:
   275                           	callstack 0
   276   0003A1                     _sd002:
   277                           	callstack 0
   278   0003A1  1C                 	db	28
   279   0003A2  03                 	db	3
   280   0003A3  0052               	dw	82
   281   0003A5  0066               	dw	102
   282   0003A7  0069               	dw	105
   283   0003A9  0064               	dw	100
   284   0003AB  0020               	dw	32
   285   0003AD  0052               	dw	82
   286   0003AF  0065               	dw	101
   287   0003B1  0061               	dw	97
   288   0003B3  0064               	dw	100
   289   0003B5  0065               	dw	101
   290   0003B7  0072               	dw	114
   291   0003B9  0020               	dw	32
   292   0003BB  0020               	dw	32
   293   0003BD                     __end_of_sd002:
   294                           	callstack 0
   295   0003BD                     _device_dsc:
   296                           	callstack 0
   297   0003BD  12                 	db	18
   298   0003BE  01                 	db	1
   299   0003BF  0200               	dw	512
   300   0003C1  00                 	db	0
   301   0003C2  00                 	db	0
   302   0003C3  00                 	db	0
   303   0003C4  08                 	db	8
   304   0003C5  04D8               	dw	1240
   305   0003C7  EEC6               	dw	61126
   306   0003C9  0001               	dw	1
   307   0003CB  01                 	db	1
   308   0003CC  02                 	db	2
   309   0003CD  00                 	db	0
   310   0003CE  01                 	db	1
   311   0003CF                     __end_of_device_dsc:
   312                           	callstack 0
   313   0003CF                     _sd000:
   314                           	callstack 0
   315   0003CF  04                 	db	4
   316   0003D0  03                 	db	3
   317   0003D1  0409               	dw	1033
   318   0003D3                     __end_of_sd000:
   319                           	callstack 0
   320   000000                     _TMR1H	set	4047
   321   000000                     _TMR1L	set	4046
   322   000000                     _USTAT	set	3939
   323   000000                     _UCONbits	set	3940
   324   000000                     _UIE	set	3936
   325   000000                     _UCFG	set	3937
   326   000000                     _UIR	set	3938
   327   000000                     _ADRESL	set	4035
   328   000000                     _ADRESH	set	4036
   329   000000                     _TXREG	set	4013
   330   000000                     _RCREG	set	4014
   331   000000                     _BAUDCON	set	4024
   332   000000                     _UEP0bits	set	3923
   333   000000                     _T1CONbits	set	4045
   334   000000                     _UCON	set	3940
   335   000000                     _UIEbits	set	3936
   336   000000                     _UIRbits	set	3938
   337   000000                     _UEIE	set	3931
   338   000000                     _UEIR	set	3935
   339   000000                     _ANSELHbits	set	3967
   340   000000                     _PORTAbits	set	3968
   341   000000                     _UEP1	set	3924
   342   000000                     _UEP0	set	3923
   343   000000                     _LATCbits	set	3979
   344   000000                     _TRISBbits	set	3987
   345   000000                     _TRISCbits	set	3988
   346   000000                     _PIE1bits	set	3997
   347   000000                     _PIR1bits	set	3998
   348   000000                     _PIE2bits	set	4000
   349   000000                     _RCSTA	set	4011
   350   000000                     _TXSTA	set	4012
   351   000000                     _ADCON2	set	4032
   352   000000                     _ADCON1	set	4033
   353   000000                     _ADCON0bits	set	4034
   354   000000                     _T1CON	set	4045
   355   000000                     _RCONbits	set	4048
   356   000000                     _IPR2bits	set	4002
   357   000000                     _PIR2bits	set	4001
   358   000000                     _UADDR	set	3932
   359   000000                     _INTCONbits	set	4082
   360   0003D3  00                 	db	0	; dummy byte at the end
   361   000000                     
   362                           ; #config settings
   363                           
   364                           	psect	cinit
   365   002016                     __pcinit:
   366                           	callstack 0
   367   002016                     start_initialization:
   368                           	callstack 0
   369   002016                     __initialization:
   370                           	callstack 0
   371                           
   372                           ; Clear objects allocated to BANK0 (38 bytes)
   373   002016  EE00  F060         	lfsr	0,__pbssBANK0
   374   00201A  0E26               	movlw	38
   375   00201C                     clear_0:
   376   00201C  6AEE               	clrf	postinc0,c
   377   00201E  06E8               	decf	wreg,f,c
   378   002020  E1FD               	bnz	clear_0
   379                           
   380                           ; Clear objects allocated to COMRAM (45 bytes)
   381   002022  EE00  F001         	lfsr	0,__pbssCOMRAM
   382   002026  0E2D               	movlw	45
   383   002028                     clear_1:
   384   002028  6AEE               	clrf	postinc0,c
   385   00202A  06E8               	decf	wreg,f,c
   386   00202C  E1FD               	bnz	clear_1
   387   00202E                     end_of_initialization:
   388                           	callstack 0
   389   00202E                     __end_of__initialization:
   390                           	callstack 0
   391   00202E  905B               	bcf	int$flags,0,c	;clear compiler interrupt flag (level 1)
   392   002030  925B               	bcf	int$flags,1,c	;clear compiler interrupt flag (level 2)
   393   002032  0E00               	movlw	low (__Lmediumconst shr (0+16))
   394   002034  6EF8               	movwf	tblptru,c
   395   002036  0100               	movlb	0
   396   002038  EF1E  F010         	goto	_main	;jump to C main() function
   397                           
   398                           	psect	bssCOMRAM
   399   000001                     __pbssCOMRAM:
   400                           	callstack 0
   401   000001                     _outPipes:
   402                           	callstack 0
   403   000001                     	ds	8
   404   000009                     _inPipes:
   405                           	callstack 0
   406   000009                     	ds	6
   407   00000F                     _pBDTEntryIn:
   408                           	callstack 0
   409   00000F                     	ds	4
   410   000013                     _pBDTEntryOut:
   411                           	callstack 0
   412   000013                     	ds	4
   413   000017                     APP_LEDUpdateUSBStatus@ledCount:
   414                           	callstack 0
   415   000017                     	ds	2
   416   000019                     _ep_data_out:
   417                           	callstack 0
   418   000019                     	ds	2
   419   00001B                     _ep_data_in:
   420                           	callstack 0
   421   00001B                     	ds	2
   422   00001D                     _pBDTEntryEP0OutNext:
   423                           	callstack 0
   424   00001D                     	ds	2
   425   00001F                     _pBDTEntryEP0OutCurrent:
   426                           	callstack 0
   427   00001F                     	ds	2
   428   000021                     _SOFCounter:
   429                           	callstack 0
   430   000021                     	ds	2
   431   000023                     _USBDeferStatusStagePacket:
   432                           	callstack 0
   433   000023                     	ds	1
   434   000024                     _USBStatusStageTimeoutCounter:
   435                           	callstack 0
   436   000024                     	ds	1
   437   000025                     _endpoint_number:
   438                           	callstack 0
   439   000025                     	ds	1
   440   000026                     _USBBusIsSuspended:
   441                           	callstack 0
   442   000026                     	ds	1
   443   000027                     _RemoteWakeup:
   444                           	callstack 0
   445   000027                     	ds	1
   446   000028                     _controlTransferState:
   447                           	callstack 0
   448   000028                     	ds	1
   449   000029                     _shortPacketStatus:
   450                           	callstack 0
   451   000029                     	ds	1
   452   00002A                     _USBDeviceState:
   453                           	callstack 0
   454   00002A                     	ds	1
   455   00002B                     _USTATcopy:
   456                           	callstack 0
   457   00002B                     	ds	1
   458   00002C                     _USBAlternateInterface:
   459                           	callstack 0
   460   00002C                     	ds	1
   461   00002D                     _USBActiveConfiguration:
   462                           	callstack 0
   463   00002D                     	ds	1
   464                           
   465                           	psect	bssBANK0
   466   000060                     __pbssBANK0:
   467                           	callstack 0
   468   000060                     _oldInputReport:
   469                           	callstack 0
   470   000060                     	ds	8
   471   000068                     _keyboard:
   472                           	callstack 0
   473   000068                     	ds	6
   474   00006E                     _g_tsys:
   475                           	callstack 0
   476   00006E                     	ds	4
   477   000072                     _USB1msTickCount:
   478                           	callstack 0
   479   000072                     	ds	4
   480   000076                     _OldSOFCount:
   481                           	callstack 0
   482   000076                     	ds	2
   483   000078                     _LocalSOFCount:
   484                           	callstack 0
   485   000078                     	ds	2
   486   00007A                     _keyboardIdleRate:
   487                           	callstack 0
   488   00007A                     	ds	2
   489   00007C                     _pDst:
   490                           	callstack 0
   491   00007C                     	ds	2
   492   00007E                     _USBTicksSinceSuspendEnd:
   493                           	callstack 0
   494   00007E                     	ds	1
   495   00007F                     _USBDeferOUTDataStagePackets:
   496                           	callstack 0
   497   00007F                     	ds	1
   498   000080                     _USBDeferINDataStagePackets:
   499                           	callstack 0
   500   000080                     	ds	1
   501   000081                     _USBStatusStageEnabledFlag2:
   502                           	callstack 0
   503   000081                     	ds	1
   504   000082                     _USBStatusStageEnabledFlag1:
   505                           	callstack 0
   506   000082                     	ds	1
   507   000083                     _BothEP0OutUOWNsSet:
   508                           	callstack 0
   509   000083                     	ds	1
   510   000084                     _active_protocol:
   511                           	callstack 0
   512   000084                     	ds	1
   513   000085                     _idle_rate:
   514                           	callstack 0
   515   000085                     	ds	1
   516                           
   517                           	psect	cstackBANK0
   518   000086                     __pcstackBANK0:
   519                           	callstack 0
   520   000086                     ??_BUTTON_IsPressed:
   521   000086                     ??_BUTTON_Enable:
   522   000086                     ??_LED_On:
   523   000086                     ??_LED_Off:
   524   000086                     ??_LED_Enable:
   525   000086                     ?_USBTransferOnePacket:
   526                           	callstack 0
   527   000086                     USBTransferOnePacket@dir:
   528                           	callstack 0
   529   000086                     memset@dest:
   530                           	callstack 0
   531                           
   532                           ; 2 bytes @ 0x0
   533   000086                     	ds	1
   534   000087                     USBTransferOnePacket@data:
   535                           	callstack 0
   536                           
   537                           ; 2 bytes @ 0x1
   538   000087                     	ds	1
   539   000088                     BUTTON_IsPressed@button:
   540                           	callstack 0
   541   000088                     BUTTON_Enable@button:
   542                           	callstack 0
   543   000088                     LED_On@led:
   544                           	callstack 0
   545   000088                     LED_Off@led:
   546                           	callstack 0
   547   000088                     LED_Enable@led:
   548                           	callstack 0
   549   000088                     memset@c:
   550                           	callstack 0
   551                           
   552                           ; 2 bytes @ 0x2
   553   000088                     	ds	1
   554   000089                     ??_SYSTEM_Initialize:
   555   000089                     USBTransferOnePacket@len:
   556                           	callstack 0
   557                           
   558                           ; 1 bytes @ 0x3
   559   000089                     	ds	1
   560   00008A                     ??_USBTransferOnePacket:
   561   00008A                     memset@n:
   562                           	callstack 0
   563                           
   564                           ; 2 bytes @ 0x4
   565   00008A                     	ds	1
   566   00008B                     SYSTEM_Initialize@state:
   567                           	callstack 0
   568                           
   569                           ; 1 bytes @ 0x5
   570   00008B                     	ds	1
   571   00008C                     ??_memset:
   572   00008C                     USBTransferOnePacket@ep:
   573                           	callstack 0
   574                           
   575                           ; 1 bytes @ 0x6
   576   00008C                     	ds	1
   577   00008D                     USBTransferOnePacket@handle:
   578                           	callstack 0
   579                           
   580                           ; 2 bytes @ 0x7
   581   00008D                     	ds	1
   582   00008E                     memset@k:
   583                           	callstack 0
   584                           
   585                           ; 2 bytes @ 0x8
   586   00008E                     	ds	2
   587   000090                     memset@s:
   588                           	callstack 0
   589                           
   590                           ; 2 bytes @ 0xA
   591   000090                     	ds	2
   592   000092                     ??_APP_KeyboardTasks:
   593   000092                     USBDeviceInit@i:
   594                           	callstack 0
   595                           
   596                           ; 1 bytes @ 0xC
   597   000092                     	ds	2
   598   000094                     APP_KeyboardTasks@needToSendNewReportPacket:
   599                           	callstack 0
   600                           
   601                           ; 1 bytes @ 0xE
   602   000094                     	ds	1
   603   000095                     APP_KeyboardTasks@TimeDeltaMilliseconds:
   604                           	callstack 0
   605                           
   606                           ; 2 bytes @ 0xF
   607   000095                     	ds	2
   608   000097                     APP_KeyboardTasks@i:
   609                           	callstack 0
   610                           
   611                           ; 1 bytes @ 0x11
   612   000097                     	ds	1
   613   000098                     
   614                           ; 1 bytes @ 0x12
   615                           
   616                           	psect	cstackCOMRAM
   617   00002E                     __pcstackCOMRAM:
   618                           	callstack 0
   619   00002E                     ??_LED_Toggle:
   620   00002E                     ??_USBStdGetDscHandler:
   621   00002E                     ??_USBStdGetStatusHandler:
   622   00002E                     ??i2_BUTTON_Enable:
   623   00002E                     ??i2_LED_On:
   624   00002E                     ??i2_LED_Off:
   625   00002E                     ??i2_LED_Enable:
   626   00002E                     ?i2_USBTransferOnePacket:
   627                           	callstack 0
   628   00002E                     USBConfigureEndpoint@direction:
   629                           	callstack 0
   630   00002E                     USBCtrlTrfTxService@byteToSend:
   631                           	callstack 0
   632   00002E                     USBHIDCBSetIdleRateHandler@newIdleRate:
   633                           	callstack 0
   634   00002E                     i2USBTransferOnePacket@dir:
   635                           	callstack 0
   636   00002E                     memcpy@d1:
   637                           	callstack 0
   638   00002E                     i2memset@dest:
   639                           	callstack 0
   640                           
   641                           ; 2 bytes @ 0x0
   642   00002E                     	ds	1
   643   00002F                     ??_USBConfigureEndpoint:
   644   00002F                     USBHIDCBSetIdleRateHandler@reportID:
   645                           	callstack 0
   646   00002F                     i2USBTransferOnePacket@data:
   647                           	callstack 0
   648                           
   649                           ; 2 bytes @ 0x1
   650   00002F                     	ds	1
   651   000030                     ??_USBCheckHIDRequest:
   652   000030                     LED_Toggle@led:
   653                           	callstack 0
   654   000030                     i2BUTTON_Enable@button:
   655                           	callstack 0
   656   000030                     i2LED_On@led:
   657                           	callstack 0
   658   000030                     i2LED_Off@led:
   659                           	callstack 0
   660   000030                     i2LED_Enable@led:
   661                           	callstack 0
   662   000030                     USBStdGetStatusHandler@p:
   663                           	callstack 0
   664   000030                     memcpy@s1:
   665                           	callstack 0
   666   000030                     i2memset@c:
   667                           	callstack 0
   668                           
   669                           ; 2 bytes @ 0x2
   670   000030                     	ds	1
   671   000031                     ??_APP_LEDUpdateUSBStatus:
   672   000031                     ??i2_SYSTEM_Initialize:
   673   000031                     USBCtrlTrfRxService@i:
   674                           	callstack 0
   675   000031                     USBCtrlTrfInHandler@lastDTS:
   676                           	callstack 0
   677   000031                     i2USBTransferOnePacket@len:
   678                           	callstack 0
   679                           
   680                           ; 1 bytes @ 0x3
   681   000031                     	ds	1
   682   000032                     ??i2_USBTransferOnePacket:
   683   000032                     USBCtrlTrfRxService@byteToRead:
   684                           	callstack 0
   685   000032                     memcpy@n:
   686                           	callstack 0
   687   000032                     i2memset@n:
   688                           	callstack 0
   689                           
   690                           ; 2 bytes @ 0x4
   691   000032                     	ds	1
   692   000033                     i2SYSTEM_Initialize@state:
   693                           	callstack 0
   694                           
   695                           ; 1 bytes @ 0x5
   696   000033                     	ds	1
   697   000034                     ??i2_memset:
   698   000034                     i2USBTransferOnePacket@ep:
   699                           	callstack 0
   700   000034                     memcpy@d:
   701                           	callstack 0
   702                           
   703                           ; 2 bytes @ 0x6
   704   000034                     	ds	1
   705   000035                     USBConfigureEndpoint@EPNum:
   706                           	callstack 0
   707   000035                     i2USBTransferOnePacket@handle:
   708                           	callstack 0
   709                           
   710                           ; 2 bytes @ 0x7
   711   000035                     	ds	1
   712   000036                     USBConfigureEndpoint@handle:
   713                           	callstack 0
   714   000036                     memcpy@s:
   715                           	callstack 0
   716   000036                     i2memset@k:
   717                           	callstack 0
   718                           
   719                           ; 2 bytes @ 0x8
   720   000036                     	ds	2
   721   000038                     USBEnableEndpoint@options:
   722                           	callstack 0
   723   000038                     memcpy@tmp:
   724                           	callstack 0
   725   000038                     i2memset@s:
   726                           	callstack 0
   727                           
   728                           ; 2 bytes @ 0xA
   729   000038                     	ds	1
   730   000039                     USBEnableEndpoint@p:
   731                           	callstack 0
   732                           
   733                           ; 2 bytes @ 0xB
   734   000039                     	ds	1
   735   00003A                     i2USBDeviceInit@i:
   736                           	callstack 0
   737                           
   738                           ; 1 bytes @ 0xC
   739   00003A                     	ds	1
   740   00003B                     USBEnableEndpoint@ep:
   741                           	callstack 0
   742                           
   743                           ; 1 bytes @ 0xD
   744   00003B                     	ds	1
   745   00003C                     USER_USB_CALLBACK_EVENT_HANDLER@event:
   746                           	callstack 0
   747                           
   748                           ; 2 bytes @ 0xE
   749   00003C                     	ds	2
   750   00003E                     USER_USB_CALLBACK_EVENT_HANDLER@pdata:
   751                           	callstack 0
   752                           
   753                           ; 2 bytes @ 0x10
   754   00003E                     	ds	2
   755   000040                     USER_USB_CALLBACK_EVENT_HANDLER@size:
   756                           	callstack 0
   757                           
   758                           ; 2 bytes @ 0x12
   759   000040                     	ds	2
   760   000042                     ??_USER_USB_CALLBACK_EVENT_HANDLER:
   761                           
   762                           ; 1 bytes @ 0x14
   763   000042                     	ds	2
   764   000044                     ??_USBStdFeatureReqHandler:
   765   000044                     USBStdSetCfgHandler@i:
   766                           	callstack 0
   767                           
   768                           ; 1 bytes @ 0x16
   769   000044                     	ds	2
   770   000046                     USBStdFeatureReqHandler@pUEP:
   771                           	callstack 0
   772                           
   773                           ; 2 bytes @ 0x18
   774   000046                     	ds	2
   775   000048                     USBStdFeatureReqHandler@current_ep_data:
   776                           	callstack 0
   777                           
   778                           ; 1 bytes @ 0x1A
   779   000048                     	ds	1
   780   000049                     USBStdFeatureReqHandler@p:
   781                           	callstack 0
   782                           
   783                           ; 2 bytes @ 0x1B
   784   000049                     	ds	2
   785   00004B                     ??_USBCheckStdRequest:
   786                           
   787                           ; 1 bytes @ 0x1D
   788   00004B                     	ds	2
   789   00004D                     ??_USBCtrlEPService:
   790   00004D                     
   791                           ; 1 bytes @ 0x1F
   792   00004D                     	ds	1
   793   00004E                     USBDeviceTasks@i:
   794                           	callstack 0
   795                           
   796                           ; 1 bytes @ 0x20
   797   00004E                     	ds	1
   798   00004F                     ??_SYS_InterruptHigh:
   799                           
   800                           ; 1 bytes @ 0x21
   801   00004F                     	ds	12
   802                           
   803 ;;
   804 ;;Main: autosize = 0, tempsize = 0, incstack = 0, save=0
   805 ;;
   806 ;; *************** function _main *****************
   807 ;; Defined at:
   808 ;;		line 32 in file "../demo_src/main.c"
   809 ;; Parameters:    Size  Location     Type
   810 ;;		None
   811 ;; Auto vars:     Size  Location     Type
   812 ;;		None
   813 ;; Return value:  Size  Location     Type
   814 ;;                  2  673[None  ] int 
   815 ;; Registers used:
   816 ;;		wreg, fsr1l, fsr1h, fsr2l, fsr2h, status,2, status,0, prodl, prodh, cstack
   817 ;; Tracked objects:
   818 ;;		On entry : 0/0
   819 ;;		On exit  : 0/0
   820 ;;		Unchanged: 0/0
   821 ;; Data sizes:     COMRAM   BANK0   BANK1  BANK2h  BANK2l
   822 ;;      Params:         0       0       0       0       0
   823 ;;      Locals:         0       0       0       0       0
   824 ;;      Temps:          0       0       0       0       0
   825 ;;      Totals:         0       0       0       0       0
   826 ;;Total ram usage:        0 bytes
   827 ;; Hardware stack levels required when called: 13
   828 ;; This function calls:
   829 ;;		_API_Timer1_init
   830 ;;		_API_Timer1_start
   831 ;;		_APP_KeyboardTasks
   832 ;;		_LED_Enable
   833 ;;		_SYSTEM_Initialize
   834 ;;		_USBDeviceAttach
   835 ;;		_USBDeviceInit
   836 ;; This function is called by:
   837 ;;		Startup code after reset
   838 ;; This function uses a non-reentrant model
   839 ;;
   840                           
   841                           	psect	text0
   842   00203C                     __ptext0:
   843                           	callstack 0
   844   00203C                     _main:
   845                           	callstack 18
   846                           
   847                           ;../demo_src/main.c: 35:     SYSTEM_Initialize( SYSTEM_STATE_USB_START );
   848                           
   849                           ;incstack = 0
   850   00203C  0E00               	movlw	0
   851   00203E  EC50  F00F         	call	_SYSTEM_Initialize
   852                           
   853                           ; BSR set to: 0
   854                           ;../demo_src/main.c: 38:     USBDeviceInit();
   855   002042  EC8C  F005         	call	_USBDeviceInit	;wreg free
   856                           
   857                           ; BSR set to: 0
   858                           ;../demo_src/main.c: 39:     USBDeviceAttach();
   859   002046  ECDB  F00F         	call	_USBDeviceAttach	;wreg free
   860                           
   861                           ;../demo_src/main.c: 42:     API_Timer1_init();
   862   00204A  EC99  F010         	call	_API_Timer1_init	;wreg free
   863                           
   864                           ;../demo_src/main.c: 43:     API_Timer1_start();
   865   00204E  ECB0  F010         	call	_API_Timer1_start	;wreg free
   866                           
   867                           ;../demo_src/main.c: 45:     LED_Enable(LED_D4);
   868   002052  0E04               	movlw	4
   869   002054  EC18  F00E         	call	_LED_Enable
   870   002058                     l5675:
   871                           
   872                           ;../demo_src/main.c: 49:     {;../demo_src/main.c: 68:         APP_KeyboardTasks();
   873   002058  ECF9  F002         	call	_APP_KeyboardTasks	;wreg free
   874   00205C  D7FD               	goto	l5675
   875   00205E                     __end_of_main:
   876                           	callstack 0
   877                           
   878 ;; *************** function _USBDeviceInit *****************
   879 ;; Defined at:
   880 ;;		line 281 in file "../framework/usb/src/usb_device.c"
   881 ;; Parameters:    Size  Location     Type
   882 ;;		None
   883 ;; Auto vars:     Size  Location     Type
   884 ;;  i               1   12[BANK0 ] unsigned char 
   885 ;; Return value:  Size  Location     Type
   886 ;;                  1    wreg      void 
   887 ;; Registers used:
   888 ;;		wreg, fsr2l, fsr2h, status,2, status,0, prodl, prodh, cstack
   889 ;; Tracked objects:
   890 ;;		On entry : 3F/0
   891 ;;		On exit  : 3F/0
   892 ;;		Unchanged: 0/0
   893 ;; Data sizes:     COMRAM   BANK0   BANK1  BANK2h  BANK2l
   894 ;;      Params:         0       0       0       0       0
   895 ;;      Locals:         0       1       0       0       0
   896 ;;      Temps:          0       0       0       0       0
   897 ;;      Totals:         0       1       0       0       0
   898 ;;Total ram usage:        1 bytes
   899 ;; Hardware stack levels used: 1
   900 ;; Hardware stack levels required when called: 11
   901 ;; This function calls:
   902 ;;		_memset
   903 ;; This function is called by:
   904 ;;		_main
   905 ;; This function uses a non-reentrant model
   906 ;;
   907                           
   908                           	psect	text1
   909   000B18                     __ptext1:
   910                           	callstack 0
   911   000B18                     _USBDeviceInit:
   912                           	callstack 19
   913                           
   914                           ; BSR set to: 0
   915                           ;../framework/usb/src/usb_device.c: 283:     uint8_t i;;../framework/usb/src/usb_device.
      +                          c: 285:     {PIE2bits.USBIE = 0;};
   916                           
   917                           ;incstack = 0
   918   000B18  94A0               	bcf	160,2,c	;volatile
   919                           
   920                           ; BSR set to: 0
   921                           ;../framework/usb/src/usb_device.c: 292:     {UEIR = 0;};
   922   000B1A  0E00               	movlw	0
   923   000B1C  010F               	movlb	15	; () banked
   924   000B1E  6F5F               	movwf	95,b	;volatile
   925                           
   926                           ;../framework/usb/src/usb_device.c: 295:     {UIR = 0;};
   927   000B20  0E00               	movlw	0
   928   000B22  6E62               	movwf	98,c	;volatile
   929                           
   930                           ;../framework/usb/src/usb_device.c: 298:     UEP0 = 0;
   931   000B24  0E00               	movlw	0
   932   000B26  6F53               	movwf	83,b	;volatile
   933                           
   934                           ; BSR set to: 15
   935                           ;../framework/usb/src/usb_device.c: 300:     memset((void*)&UEP1,0x00,(1));;
   936   000B28  0E54               	movlw	84
   937   000B2A  0100               	movlb	0	; () banked
   938   000B2C  6F86               	movwf	memset@dest& (0+255),b
   939   000B2E  0E0F               	movlw	15
   940   000B30  6F87               	movwf	(memset@dest+1)& (0+255),b
   941   000B32  0E00               	movlw	0
   942   000B34  6F89               	movwf	(memset@c+1)& (0+255),b
   943   000B36  0E00               	movlw	0
   944   000B38  6F88               	movwf	memset@c& (0+255),b
   945   000B3A  0E00               	movlw	0
   946   000B3C  6F8B               	movwf	(memset@n+1)& (0+255),b
   947   000B3E  0E01               	movlw	1
   948   000B40  6F8A               	movwf	memset@n& (0+255),b
   949   000B42  ECC4  F003         	call	_memset	;wreg free
   950                           
   951                           ; BSR set to: 0
   952                           ;../framework/usb/src/usb_device.c: 302:     { UCFG = 0x10 | 0x00 | 0x04 | 0x02; UEIE = 
      +                          0x9F; UIE = 0x39 | 0x40 | 0x02; };
   953   000B46  0E16               	movlw	22
   954   000B48  6E61               	movwf	97,c	;volatile
   955                           
   956                           ; BSR set to: 0
   957   000B4A  0E9F               	movlw	159
   958   000B4C  010F               	movlb	15	; () banked
   959   000B4E  6F5B               	movwf	91,b	;volatile
   960                           
   961                           ; BSR set to: 15
   962   000B50  0E7B               	movlw	123
   963   000B52  6E60               	movwf	96,c	;volatile
   964                           
   965                           ; BSR set to: 15
   966                           ;../framework/usb/src/usb_device.c: 311:     for(i = 0; i < (sizeof(BDT)/sizeof(BDT_ENTR
      +                          Y)); i++)
   967   000B54  0E00               	movlw	0
   968   000B56  0100               	movlb	0	; () banked
   969   000B58  6F92               	movwf	USBDeviceInit@i& (0+255),b
   970   000B5A                     l5509:
   971                           
   972                           ; BSR set to: 0
   973                           ;../framework/usb/src/usb_device.c: 312:     {;../framework/usb/src/usb_device.c: 313:  
      +                                 BDT[i].Val = 0x00;
   974   000B5A  5192               	movf	USBDeviceInit@i& (0+255),w,b
   975   000B5C  0D04               	mullw	4
   976   000B5E  0E00               	movlw	0
   977   000B60  24F3               	addwf	243,w,c
   978   000B62  6ED9               	movwf	fsr2l,c
   979   000B64  0E02               	movlw	2
   980   000B66  20F4               	addwfc	prodh,w,c
   981   000B68  6EDA               	movwf	fsr2h,c
   982   000B6A  6ADE               	clrf	postinc2,c
   983   000B6C  6ADE               	clrf	postinc2,c
   984   000B6E  6ADE               	clrf	postinc2,c
   985   000B70  6ADD               	clrf	postdec2,c
   986                           
   987                           ; BSR set to: 0
   988                           ;../framework/usb/src/usb_device.c: 314:     }
   989   000B72  2B92               	incf	USBDeviceInit@i& (0+255),f,b
   990                           
   991                           ; BSR set to: 0
   992   000B74  0E07               	movlw	7
   993   000B76  6592               	cpfsgt	USBDeviceInit@i& (0+255),b
   994   000B78  D7F0               	goto	l5509
   995                           
   996                           ; BSR set to: 0
   997                           ;../framework/usb/src/usb_device.c: 317:     UCONbits.PPBRST = 1;
   998   000B7A  8C64               	bsf	100,6,c	;volatile
   999                           
  1000                           ; BSR set to: 0
  1001                           ;../framework/usb/src/usb_device.c: 320:     UADDR = 0x00;
  1002   000B7C  0E00               	movlw	0
  1003   000B7E  010F               	movlb	15	; () banked
  1004   000B80  6F5C               	movwf	92,b	;volatile
  1005                           
  1006                           ; BSR set to: 15
  1007                           ;../framework/usb/src/usb_device.c: 323:     UCONbits.PKTDIS = 0;
  1008   000B82  9864               	bcf	100,4,c	;volatile
  1009                           
  1010                           ; BSR set to: 15
  1011                           ;../framework/usb/src/usb_device.c: 326:     UCONbits.PPBRST = 0;
  1012   000B84  9C64               	bcf	100,6,c	;volatile
  1013   000B86                     l5521:
  1014                           
  1015                           ;../framework/usb/src/usb_device.c: 330:     {;../framework/usb/src/usb_device.c: 331:  
      +                                 (UIR &= 0xF7);
  1016   000B86  9662               	bcf	98,3,c	;volatile
  1017                           
  1018                           ;../framework/usb/src/usb_device.c: 333:         inPipes[0].info.Val = 0;
  1019   000B88  0E00               	movlw	0
  1020   000B8A  6E0C               	movwf	(_inPipes+3)^0,c	;volatile
  1021                           
  1022                           ;../framework/usb/src/usb_device.c: 334:         outPipes[0].info.Val = 0;
  1023   000B8C  0E00               	movlw	0
  1024   000B8E  6E04               	movwf	(_outPipes+3)^0,c	;volatile
  1025                           
  1026                           ;../framework/usb/src/usb_device.c: 335:         outPipes[0].wCount.Val = 0;
  1027   000B90  0E00               	movlw	0
  1028   000B92  6E06               	movwf	(_outPipes+5)^0,c	;volatile
  1029   000B94  0E00               	movlw	0
  1030   000B96  6E05               	movwf	(_outPipes+4)^0,c	;volatile
  1031                           
  1032                           ;../framework/usb/src/usb_device.c: 336:     }while(UIRbits.TRNIF == 1);
  1033   000B98  B662               	btfsc	98,3,c	;volatile
  1034   000B9A  D7F5               	goto	l5521
  1035                           
  1036                           ;../framework/usb/src/usb_device.c: 340:     USBStatusStageEnabledFlag1 = 1;
  1037   000B9C  0E01               	movlw	1
  1038   000B9E  0100               	movlb	0	; () banked
  1039   000BA0  6F82               	movwf	_USBStatusStageEnabledFlag1& (0+255),b	;volatile
  1040                           
  1041                           ;../framework/usb/src/usb_device.c: 341:     USBStatusStageEnabledFlag2 = 1;
  1042   000BA2  0E01               	movlw	1
  1043   000BA4  6F81               	movwf	_USBStatusStageEnabledFlag2& (0+255),b	;volatile
  1044                           
  1045                           ;../framework/usb/src/usb_device.c: 343:     USBDeferINDataStagePackets = 0;
  1046   000BA6  0E00               	movlw	0
  1047   000BA8  6F80               	movwf	_USBDeferINDataStagePackets& (0+255),b	;volatile
  1048                           
  1049                           ;../framework/usb/src/usb_device.c: 344:     USBDeferOUTDataStagePackets = 0;
  1050   000BAA  0E00               	movlw	0
  1051   000BAC  6F7F               	movwf	_USBDeferOUTDataStagePackets& (0+255),b	;volatile
  1052                           
  1053                           ;../framework/usb/src/usb_device.c: 345:     USBBusIsSuspended = 0;
  1054   000BAE  0E00               	movlw	0
  1055   000BB0  6E26               	movwf	_USBBusIsSuspended^0,c	;volatile
  1056                           
  1057                           ;../framework/usb/src/usb_device.c: 349:     for(i = 0; i < (uint8_t)(1 +1u); i++)
  1058   000BB2  0E00               	movlw	0
  1059   000BB4  6F92               	movwf	USBDeviceInit@i& (0+255),b
  1060   000BB6                     l5537:
  1061                           
  1062                           ; BSR set to: 0
  1063                           ;../framework/usb/src/usb_device.c: 350:     {;../framework/usb/src/usb_device.c: 351:  
      +                                 pBDTEntryIn[i] = 0u;
  1064   000BB6  5192               	movf	USBDeviceInit@i& (0+255),w,b
  1065   000BB8  0D02               	mullw	2
  1066   000BBA  50F3               	movf	243,w,c
  1067   000BBC  0F0F               	addlw	low _pBDTEntryIn
  1068   000BBE  6ED9               	movwf	fsr2l,c
  1069   000BC0  6ADA               	clrf	fsr2h,c
  1070   000BC2  0E00               	movlw	0
  1071   000BC4  6EDE               	movwf	postinc2,c
  1072   000BC6  0E00               	movlw	0
  1073   000BC8  6EDD               	movwf	postdec2,c
  1074                           
  1075                           ;../framework/usb/src/usb_device.c: 352:         pBDTEntryOut[i] = 0u;
  1076   000BCA  5192               	movf	USBDeviceInit@i& (0+255),w,b
  1077   000BCC  0D02               	mullw	2
  1078   000BCE  50F3               	movf	243,w,c
  1079   000BD0  0F13               	addlw	low _pBDTEntryOut
  1080   000BD2  6ED9               	movwf	fsr2l,c
  1081   000BD4  6ADA               	clrf	fsr2h,c
  1082   000BD6  0E00               	movlw	0
  1083   000BD8  6EDE               	movwf	postinc2,c
  1084   000BDA  0E00               	movlw	0
  1085   000BDC  6EDD               	movwf	postdec2,c
  1086                           
  1087                           ; BSR set to: 0
  1088                           ;../framework/usb/src/usb_device.c: 353:         ep_data_in[i].Val = 0u;
  1089   000BDE  5192               	movf	USBDeviceInit@i& (0+255),w,b
  1090   000BE0  0F1B               	addlw	low _ep_data_in
  1091   000BE2  6ED9               	movwf	fsr2l,c
  1092   000BE4  6ADA               	clrf	fsr2h,c
  1093   000BE6  0E00               	movlw	0
  1094   000BE8  6EDF               	movwf	indf2,c
  1095                           
  1096                           ; BSR set to: 0
  1097                           ;../framework/usb/src/usb_device.c: 354:         ep_data_out[i].Val = 0u;
  1098   000BEA  5192               	movf	USBDeviceInit@i& (0+255),w,b
  1099   000BEC  0F19               	addlw	low _ep_data_out
  1100   000BEE  6ED9               	movwf	fsr2l,c
  1101   000BF0  6ADA               	clrf	fsr2h,c
  1102   000BF2  0E00               	movlw	0
  1103   000BF4  6EDF               	movwf	indf2,c
  1104                           
  1105                           ; BSR set to: 0
  1106                           ;../framework/usb/src/usb_device.c: 355:     }
  1107   000BF6  2B92               	incf	USBDeviceInit@i& (0+255),f,b
  1108                           
  1109                           ; BSR set to: 0
  1110   000BF8  0E01               	movlw	1
  1111   000BFA  6592               	cpfsgt	USBDeviceInit@i& (0+255),b
  1112   000BFC  D7DC               	goto	l5537
  1113                           
  1114                           ; BSR set to: 0
  1115                           ;../framework/usb/src/usb_device.c: 358:     pBDTEntryIn[0] = (volatile BDT_ENTRY*)&BDT[
      +                          2];
  1116   000BFE  0E08               	movlw	8
  1117   000C00  6E0F               	movwf	_pBDTEntryIn^0,c
  1118   000C02  0E02               	movlw	2
  1119   000C04  6E10               	movwf	(_pBDTEntryIn+1)^0,c
  1120                           
  1121                           ; BSR set to: 0
  1122                           ;../framework/usb/src/usb_device.c: 360:     UEP0 = 0x06|0x10;
  1123   000C06  0E16               	movlw	22
  1124   000C08  010F               	movlb	15	; () banked
  1125   000C0A  6F53               	movwf	83,b	;volatile
  1126                           
  1127                           ; BSR set to: 15
  1128                           ;../framework/usb/src/usb_device.c: 362:     BDT[0].ADR = ((uint16_t)(&SetupPkt));
  1129   000C0C  0E02               	movlw	2
  1130   000C0E  0102               	movlb	2	; () banked
  1131   000C10  6F03               	movwf	3,b	;volatile
  1132   000C12  0E20               	movlw	32
  1133   000C14  6F02               	movwf	2,b	;volatile
  1134                           
  1135                           ; BSR set to: 2
  1136                           ;../framework/usb/src/usb_device.c: 363:     BDT[0].CNT = 8;
  1137   000C16  0E08               	movlw	8
  1138   000C18  6F01               	movwf	1,b	;volatile
  1139                           
  1140                           ; BSR set to: 2
  1141                           ;../framework/usb/src/usb_device.c: 364:     BDT[0].STAT.Val = 0x00|0x04;
  1142   000C1A  0E04               	movlw	4
  1143   000C1C  6F00               	movwf	0,b	;volatile
  1144                           
  1145                           ; BSR set to: 2
  1146                           ;../framework/usb/src/usb_device.c: 365:     BDT[0].STAT.Val |= 0x80;
  1147   000C1E  8F00               	bsf	0,7,b	;volatile
  1148                           
  1149                           ; BSR set to: 2
  1150                           ;../framework/usb/src/usb_device.c: 368:     USBActiveConfiguration = 0;
  1151   000C20  0E00               	movlw	0
  1152   000C22  6E2D               	movwf	_USBActiveConfiguration^0,c	;volatile
  1153                           
  1154                           ; BSR set to: 2
  1155                           ;../framework/usb/src/usb_device.c: 370:     USB1msTickCount = 0;
  1156   000C24  0E00               	movlw	0
  1157   000C26  0100               	movlb	0	; () banked
  1158   000C28  6F72               	movwf	_USB1msTickCount& (0+255),b	;volatile
  1159   000C2A  0E00               	movlw	0
  1160   000C2C  6F73               	movwf	(_USB1msTickCount+1)& (0+255),b	;volatile
  1161   000C2E  0E00               	movlw	0
  1162   000C30  6F74               	movwf	(_USB1msTickCount+2)& (0+255),b	;volatile
  1163   000C32  0E00               	movlw	0
  1164   000C34  6F75               	movwf	(_USB1msTickCount+3)& (0+255),b	;volatile
  1165                           
  1166                           ; BSR set to: 0
  1167                           ;../framework/usb/src/usb_device.c: 371:     USBTicksSinceSuspendEnd = 0;
  1168   000C36  0E00               	movlw	0
  1169   000C38  6F7E               	movwf	_USBTicksSinceSuspendEnd& (0+255),b	;volatile
  1170                           
  1171                           ; BSR set to: 0
  1172                           ;../framework/usb/src/usb_device.c: 374:     USBDeviceState = DETACHED_STATE;
  1173   000C3A  0E00               	movlw	0
  1174   000C3C  6E2A               	movwf	_USBDeviceState^0,c	;volatile
  1175                           
  1176                           ; BSR set to: 0
  1177   000C3E  0012               	return		;funcret
  1178   000C40                     __end_of_USBDeviceInit:
  1179                           	callstack 0
  1180                           
  1181 ;; *************** function _USBDeviceAttach *****************
  1182 ;; Defined at:
  1183 ;;		line 1356 in file "../framework/usb/src/usb_device.c"
  1184 ;; Parameters:    Size  Location     Type
  1185 ;;		None
  1186 ;; Auto vars:     Size  Location     Type
  1187 ;;		None
  1188 ;; Return value:  Size  Location     Type
  1189 ;;                  1    wreg      void 
  1190 ;; Registers used:
  1191 ;;		wreg, status,2
  1192 ;; Tracked objects:
  1193 ;;		On entry : 3F/0
  1194 ;;		On exit  : 30/0
  1195 ;;		Unchanged: 0/0
  1196 ;; Data sizes:     COMRAM   BANK0   BANK1  BANK2h  BANK2l
  1197 ;;      Params:         0       0       0       0       0
  1198 ;;      Locals:         0       0       0       0       0
  1199 ;;      Temps:          0       0       0       0       0
  1200 ;;      Totals:         0       0       0       0       0
  1201 ;;Total ram usage:        0 bytes
  1202 ;; Hardware stack levels used: 1
  1203 ;; Hardware stack levels required when called: 10
  1204 ;; This function calls:
  1205 ;;		Nothing
  1206 ;; This function is called by:
  1207 ;;		_main
  1208 ;; This function uses a non-reentrant model
  1209 ;;
  1210                           
  1211                           	psect	text2
  1212   001FB6                     __ptext2:
  1213                           	callstack 0
  1214   001FB6                     _USBDeviceAttach:
  1215                           	callstack 20
  1216                           
  1217                           ; BSR set to: 0
  1218                           ;../framework/usb/src/usb_device.c: 1360:     {;../framework/usb/src/usb_device.c: 1361:
      +                                   if(1 == 1)
  1219                           
  1220                           ; BSR set to: 0
  1221                           ;incstack = 0
  1222   001FB6  502A               	movf	_USBDeviceState^0,w,c
  1223   001FB8  A4D8               	btfss	status,2,c
  1224   001FBA  0012               	return	
  1225                           
  1226                           ; BSR set to: 0
  1227                           ;../framework/usb/src/usb_device.c: 1362:         {;../framework/usb/src/usb_device.c: 1
      +                          364:             UCON = 0;
  1228   001FBC  0E00               	movlw	0
  1229   001FBE  6E64               	movwf	100,c	;volatile
  1230                           
  1231                           ;../framework/usb/src/usb_device.c: 1367:             UIE = 0;
  1232   001FC0  0E00               	movlw	0
  1233   001FC2  6E60               	movwf	96,c	;volatile
  1234                           
  1235                           ;../framework/usb/src/usb_device.c: 1371:             { UCFG = 0x10 | 0x00 | 0x04 | 0x02
      +                          ; UEIE = 0x9F; UIE = 0x39 | 0x40 | 0x02; };
  1236   001FC4  0E16               	movlw	22
  1237   001FC6  6E61               	movwf	97,c	;volatile
  1238   001FC8  0E9F               	movlw	159
  1239   001FCA  010F               	movlb	15	; () banked
  1240   001FCC  6F5B               	movwf	91,b	;volatile
  1241   001FCE  0E7B               	movlw	123
  1242   001FD0  6E60               	movwf	96,c	;volatile
  1243                           
  1244                           ; BSR set to: 15
  1245                           ;../framework/usb/src/usb_device.c: 1373:             {RCONbits.IPEN = 1;IPR2bits.USBIP 
      +                          = 1;PIE2bits.USBIE = 1;INTCONbits.GIEH = 1;};
  1246   001FD2  8ED0               	bsf	208,7,c	;volatile
  1247                           
  1248                           ; BSR set to: 15
  1249   001FD4  84A2               	bsf	162,2,c	;volatile
  1250                           
  1251                           ; BSR set to: 15
  1252   001FD6  84A0               	bsf	160,2,c	;volatile
  1253                           
  1254                           ; BSR set to: 15
  1255   001FD8  8EF2               	bsf	242,7,c	;volatile
  1256                           
  1257                           ;../framework/usb/src/usb_device.c: 1376:             while(!UCONbits.USBEN){UCONbits.US
      +                          BEN = 1;}
  1258   001FDA  D001               	goto	l387
  1259   001FDC                     l388:
  1260   001FDC  8664               	bsf	100,3,c	;volatile
  1261   001FDE                     l387:
  1262   001FDE  A664               	btfss	100,3,c	;volatile
  1263   001FE0  D7FD               	goto	l388
  1264                           
  1265                           ;../framework/usb/src/usb_device.c: 1379:             USBDeviceState = ATTACHED_STATE;
  1266   001FE2  0E01               	movlw	1
  1267   001FE4  6E2A               	movwf	_USBDeviceState^0,c	;volatile
  1268   001FE6  0012               	return		;funcret
  1269   001FE8                     __end_of_USBDeviceAttach:
  1270                           	callstack 0
  1271                           
  1272 ;; *************** function _SYSTEM_Initialize *****************
  1273 ;; Defined at:
  1274 ;;		line 67 in file "system.c"
  1275 ;; Parameters:    Size  Location     Type
  1276 ;;  state           1    wreg     enum E3026
  1277 ;; Auto vars:     Size  Location     Type
  1278 ;;  state           1    5[BANK0 ] enum E3026
  1279 ;; Return value:  Size  Location     Type
  1280 ;;                  1    wreg      void 
  1281 ;; Registers used:
  1282 ;;		wreg, status,2, status,0, cstack
  1283 ;; Tracked objects:
  1284 ;;		On entry : 0/0
  1285 ;;		On exit  : 3F/0
  1286 ;;		Unchanged: 0/0
  1287 ;; Data sizes:     COMRAM   BANK0   BANK1  BANK2h  BANK2l
  1288 ;;      Params:         0       0       0       0       0
  1289 ;;      Locals:         0       1       0       0       0
  1290 ;;      Temps:          0       2       0       0       0
  1291 ;;      Totals:         0       3       0       0       0
  1292 ;;Total ram usage:        3 bytes
  1293 ;; Hardware stack levels used: 1
  1294 ;; Hardware stack levels required when called: 11
  1295 ;; This function calls:
  1296 ;;		_BUTTON_Enable
  1297 ;;		_LED_Enable
  1298 ;; This function is called by:
  1299 ;;		_main
  1300 ;; This function uses a non-reentrant model
  1301 ;;
  1302                           
  1303                           	psect	text3
  1304   001EA0                     __ptext3:
  1305                           	callstack 0
  1306   001EA0                     _SYSTEM_Initialize:
  1307                           	callstack 19
  1308                           
  1309                           ;incstack = 0
  1310                           ;SYSTEM_Initialize@state stored from wreg
  1311   001EA0  0100               	movlb	0	; () banked
  1312   001EA2  6F8B               	movwf	SYSTEM_Initialize@state& (0+255),b
  1313                           
  1314                           ;system.c: 67: void SYSTEM_Initialize( SYSTEM_STATE state );system.c: 68: {;system.c: 69
      +                          :     switch(state)
  1315   001EA4  D00A               	goto	l5485
  1316   001EA6                     l5481:
  1317                           
  1318                           ; BSR set to: 0
  1319                           ;system.c: 72:             LED_Enable(LED_D1);
  1320   001EA6  0E01               	movlw	1
  1321   001EA8  EC18  F00E         	call	_LED_Enable
  1322                           
  1323                           ;system.c: 73:             LED_Enable(LED_D2);
  1324   001EAC  0E02               	movlw	2
  1325   001EAE  EC18  F00E         	call	_LED_Enable
  1326                           
  1327                           ;system.c: 74:             BUTTON_Enable(BUTTON_S1);
  1328   001EB2  0E01               	movlw	1
  1329   001EB4  EC4F  F010         	call	_BUTTON_Enable
  1330                           
  1331                           ;system.c: 75:             break;
  1332   001EB8  0012               	return	
  1333   001EBA                     l5485:
  1334   001EBA  0100               	movlb	0	; () banked
  1335   001EBC  518B               	movf	SYSTEM_Initialize@state& (0+255),w,b
  1336   001EBE  6F89               	movwf	??_SYSTEM_Initialize& (0+255),b
  1337   001EC0  6B8A               	clrf	(??_SYSTEM_Initialize+1)& (0+255),b
  1338                           
  1339                           ; Switch on 2 bytes has been partitioned into a top level switch of size 1, and 1 sub-sw
      +                          itches
  1340                           ; Switch size 1, requested type "simple"
  1341                           ; Number of cases is 1, Range of values is 0 to 0
  1342                           ; switch strategies available:
  1343                           ; Name         Instructions Cycles
  1344                           ; simple_byte            4     3 (average)
  1345                           ;	Chosen strategy is simple_byte
  1346   001EC2  518A               	movf	(??_SYSTEM_Initialize+1)& (0+255),w,b
  1347   001EC4  0A00               	xorlw	0	; case 0
  1348   001EC6  A4D8               	btfss	status,2,c
  1349   001EC8  0012               	return	
  1350                           
  1351                           ; BSR set to: 0
  1352                           ; Switch size 1, requested type "simple"
  1353                           ; Number of cases is 3, Range of values is 0 to 2
  1354                           ; switch strategies available:
  1355                           ; Name         Instructions Cycles
  1356                           ; simple_byte           10     6 (average)
  1357                           ;	Chosen strategy is simple_byte
  1358   001ECA  5189               	movf	??_SYSTEM_Initialize& (0+255),w,b
  1359   001ECC  0A00               	xorlw	0	; case 0
  1360   001ECE  B4D8               	btfsc	status,2,c
  1361   001ED0  D7EA               	goto	l5481
  1362   001ED2  0A01               	xorlw	1	; case 1
  1363   001ED4  B4D8               	btfsc	status,2,c
  1364   001ED6  0012               	return	
  1365   001ED8  0A03               	xorlw	3	; case 2
  1366   001EDA  0012               	return	
  1367   001EDC                     __end_of_SYSTEM_Initialize:
  1368                           	callstack 0
  1369                           
  1370 ;; *************** function _LED_Enable *****************
  1371 ;; Defined at:
  1372 ;;		line 220 in file "../bsp/pic18f14k50/leds.c"
  1373 ;; Parameters:    Size  Location     Type
  1374 ;;  led             1    wreg     enum E2
  1375 ;; Auto vars:     Size  Location     Type
  1376 ;;  led             1    2[BANK0 ] enum E2
  1377 ;; Return value:  Size  Location     Type
  1378 ;;                  1    wreg      void 
  1379 ;; Registers used:
  1380 ;;		wreg, status,2, status,0
  1381 ;; Tracked objects:
  1382 ;;		On entry : 0/0
  1383 ;;		On exit  : 3F/0
  1384 ;;		Unchanged: 0/0
  1385 ;; Data sizes:     COMRAM   BANK0   BANK1  BANK2h  BANK2l
  1386 ;;      Params:         0       0       0       0       0
  1387 ;;      Locals:         0       1       0       0       0
  1388 ;;      Temps:          0       2       0       0       0
  1389 ;;      Totals:         0       3       0       0       0
  1390 ;;Total ram usage:        3 bytes
  1391 ;; Hardware stack levels used: 1
  1392 ;; Hardware stack levels required when called: 10
  1393 ;; This function calls:
  1394 ;;		Nothing
  1395 ;; This function is called by:
  1396 ;;		_main
  1397 ;;		_SYSTEM_Initialize
  1398 ;; This function uses a non-reentrant model
  1399 ;;
  1400                           
  1401                           	psect	text4
  1402   001C30                     __ptext4:
  1403                           	callstack 0
  1404   001C30                     _LED_Enable:
  1405                           	callstack 19
  1406                           
  1407                           ; BSR set to: 0
  1408                           ;incstack = 0
  1409                           ;LED_Enable@led stored from wreg
  1410   001C30  0100               	movlb	0	; () banked
  1411   001C32  6F88               	movwf	LED_Enable@led& (0+255),b
  1412                           
  1413                           ;../bsp/pic18f14k50/leds.c: 220: void LED_Enable(LED led);../bsp/pic18f14k50/leds.c: 221
      +                          : {;../bsp/pic18f14k50/leds.c: 222:     switch(led)
  1414   001C34  D008               	goto	l5401
  1415   001C36                     l64:
  1416                           
  1417                           ; BSR set to: 0
  1418                           ;../bsp/pic18f14k50/leds.c: 225:             TRISCbits.TRISC0 = 0;
  1419   001C36  9094               	bcf	148,0,c	;volatile
  1420                           
  1421                           ;../bsp/pic18f14k50/leds.c: 226:             break;
  1422   001C38  0012               	return	
  1423   001C3A                     l66:
  1424                           
  1425                           ; BSR set to: 0
  1426                           ;../bsp/pic18f14k50/leds.c: 229:             TRISCbits.TRISC1 = 0;
  1427   001C3A  9294               	bcf	148,1,c	;volatile
  1428                           
  1429                           ;../bsp/pic18f14k50/leds.c: 230:             break;
  1430   001C3C  0012               	return	
  1431   001C3E                     l67:
  1432                           
  1433                           ; BSR set to: 0
  1434                           ;../bsp/pic18f14k50/leds.c: 233:             TRISCbits.TRISC2 = 0;
  1435   001C3E  9494               	bcf	148,2,c	;volatile
  1436                           
  1437                           ;../bsp/pic18f14k50/leds.c: 234:             break;
  1438   001C40  0012               	return	
  1439   001C42                     l68:
  1440                           
  1441                           ; BSR set to: 0
  1442                           ;../bsp/pic18f14k50/leds.c: 237:             TRISCbits.TRISC3 = 0;
  1443   001C42  9694               	bcf	148,3,c	;volatile
  1444                           
  1445                           ;../bsp/pic18f14k50/leds.c: 238:             break;
  1446   001C44  0012               	return	
  1447   001C46                     l5401:
  1448   001C46  0100               	movlb	0	; () banked
  1449   001C48  5188               	movf	LED_Enable@led& (0+255),w,b
  1450   001C4A  6F86               	movwf	??_LED_Enable& (0+255),b
  1451   001C4C  6B87               	clrf	(??_LED_Enable+1)& (0+255),b
  1452                           
  1453                           ; Switch on 2 bytes has been partitioned into a top level switch of size 1, and 1 sub-sw
      +                          itches
  1454                           ; Switch size 1, requested type "simple"
  1455                           ; Number of cases is 1, Range of values is 0 to 0
  1456                           ; switch strategies available:
  1457                           ; Name         Instructions Cycles
  1458                           ; simple_byte            4     3 (average)
  1459                           ;	Chosen strategy is simple_byte
  1460   001C4E  5187               	movf	(??_LED_Enable+1)& (0+255),w,b
  1461   001C50  0A00               	xorlw	0	; case 0
  1462   001C52  A4D8               	btfss	status,2,c
  1463   001C54  0012               	return	
  1464                           
  1465                           ; BSR set to: 0
  1466                           ; Switch size 1, requested type "simple"
  1467                           ; Number of cases is 5, Range of values is 0 to 4
  1468                           ; switch strategies available:
  1469                           ; Name         Instructions Cycles
  1470                           ; simple_byte           16     9 (average)
  1471                           ;	Chosen strategy is simple_byte
  1472   001C56  5186               	movf	??_LED_Enable& (0+255),w,b
  1473   001C58  0A00               	xorlw	0	; case 0
  1474   001C5A  B4D8               	btfsc	status,2,c
  1475   001C5C  0012               	return	
  1476   001C5E  0A01               	xorlw	1	; case 1
  1477   001C60  B4D8               	btfsc	status,2,c
  1478   001C62  D7E9               	goto	l64
  1479   001C64  0A03               	xorlw	3	; case 2
  1480   001C66  B4D8               	btfsc	status,2,c
  1481   001C68  D7E8               	goto	l66
  1482   001C6A  0A01               	xorlw	1	; case 3
  1483   001C6C  B4D8               	btfsc	status,2,c
  1484   001C6E  D7E7               	goto	l67
  1485   001C70  0A07               	xorlw	7	; case 4
  1486   001C72  A4D8               	btfss	status,2,c
  1487   001C74  0012               	return	
  1488   001C76  D7E5               	goto	l68
  1489   001C78                     __end_of_LED_Enable:
  1490                           	callstack 0
  1491                           
  1492 ;; *************** function _BUTTON_Enable *****************
  1493 ;; Defined at:
  1494 ;;		line 85 in file "../bsp/pic18f14k50/buttons.c"
  1495 ;; Parameters:    Size  Location     Type
  1496 ;;  button          1    wreg     enum E2809
  1497 ;; Auto vars:     Size  Location     Type
  1498 ;;  button          1    2[BANK0 ] enum E2809
  1499 ;; Return value:  Size  Location     Type
  1500 ;;                  1    wreg      void 
  1501 ;; Registers used:
  1502 ;;		wreg, status,2, status,0
  1503 ;; Tracked objects:
  1504 ;;		On entry : 3F/0
  1505 ;;		On exit  : 3F/0
  1506 ;;		Unchanged: 0/0
  1507 ;; Data sizes:     COMRAM   BANK0   BANK1  BANK2h  BANK2l
  1508 ;;      Params:         0       0       0       0       0
  1509 ;;      Locals:         0       1       0       0       0
  1510 ;;      Temps:          0       2       0       0       0
  1511 ;;      Totals:         0       3       0       0       0
  1512 ;;Total ram usage:        3 bytes
  1513 ;; Hardware stack levels used: 1
  1514 ;; Hardware stack levels required when called: 10
  1515 ;; This function calls:
  1516 ;;		Nothing
  1517 ;; This function is called by:
  1518 ;;		_SYSTEM_Initialize
  1519 ;; This function uses a non-reentrant model
  1520 ;;
  1521                           
  1522                           	psect	text5
  1523   00209E                     __ptext5:
  1524                           	callstack 0
  1525   00209E                     _BUTTON_Enable:
  1526                           	callstack 19
  1527                           
  1528                           ; BSR set to: 0
  1529                           ;incstack = 0
  1530                           ;BUTTON_Enable@button stored from wreg
  1531   00209E  6F88               	movwf	BUTTON_Enable@button& (0+255),b
  1532                           
  1533                           ;../bsp/pic18f14k50/buttons.c: 85: void BUTTON_Enable(BUTTON button);../bsp/pic18f14k50/
      +                          buttons.c: 86: {;../bsp/pic18f14k50/buttons.c: 87:     switch(button)
  1534   0020A0  0100               	movlb	0	; () banked
  1535   0020A2  5188               	movf	BUTTON_Enable@button& (0+255),w,b
  1536   0020A4  6F86               	movwf	??_BUTTON_Enable& (0+255),b
  1537   0020A6  6B87               	clrf	(??_BUTTON_Enable+1)& (0+255),b
  1538                           
  1539                           ; Switch on 2 bytes has been partitioned into a top level switch of size 1, and 1 sub-sw
      +                          itches
  1540                           ; Switch size 1, requested type "simple"
  1541                           ; Number of cases is 1, Range of values is 0 to 0
  1542                           ; switch strategies available:
  1543                           ; Name         Instructions Cycles
  1544                           ; simple_byte            4     3 (average)
  1545                           ;	Chosen strategy is simple_byte
  1546   0020A8  5187               	movf	(??_BUTTON_Enable+1)& (0+255),w,b
  1547   0020AA  0A00               	xorlw	0	; case 0
  1548   0020AC  A4D8               	btfss	status,2,c
  1549   0020AE  0012               	return	
  1550                           
  1551                           ; BSR set to: 0
  1552                           ; Switch size 1, requested type "simple"
  1553                           ; Number of cases is 2, Range of values is 0 to 1
  1554                           ; switch strategies available:
  1555                           ; Name         Instructions Cycles
  1556                           ; simple_byte            7     4 (average)
  1557                           ;	Chosen strategy is simple_byte
  1558   0020B0  5186               	movf	??_BUTTON_Enable& (0+255),w,b
  1559   0020B2  0A00               	xorlw	0	; case 0
  1560   0020B4  B4D8               	btfsc	status,2,c
  1561   0020B6  0012               	return	
  1562   0020B8  0A01               	xorlw	1	; case 1
  1563   0020BA  0012               	return	
  1564   0020BC                     __end_of_BUTTON_Enable:
  1565                           	callstack 0
  1566                           
  1567 ;; *************** function _APP_KeyboardTasks *****************
  1568 ;; Defined at:
  1569 ;;		line 305 in file "../demo_src/app_device_keyboard.c"
  1570 ;; Parameters:    Size  Location     Type
  1571 ;;		None
  1572 ;; Auto vars:     Size  Location     Type
  1573 ;;  TimeDeltaMil    2   15[BANK0 ] int 
  1574 ;;  i               1   17[BANK0 ] unsigned char 
  1575 ;;  needToSendNe    1   14[BANK0 ] _Bool 
  1576 ;; Return value:  Size  Location     Type
  1577 ;;                  1    wreg      void 
  1578 ;; Registers used:
  1579 ;;		wreg, fsr1l, fsr1h, fsr2l, fsr2h, status,2, status,0, prodl, prodh, cstack
  1580 ;; Tracked objects:
  1581 ;;		On entry : 0/0
  1582 ;;		On exit  : 0/0
  1583 ;;		Unchanged: 0/0
  1584 ;; Data sizes:     COMRAM   BANK0   BANK1  BANK2h  BANK2l
  1585 ;;      Params:         0       0       0       0       0
  1586 ;;      Locals:         0       4       0       0       0
  1587 ;;      Temps:          0       2       0       0       0
  1588 ;;      Totals:         0       6       0       0       0
  1589 ;;Total ram usage:        6 bytes
  1590 ;; Hardware stack levels used: 1
  1591 ;; Hardware stack levels required when called: 12
  1592 ;; This function calls:
  1593 ;;		_APP_KeyboardProcessOutputReport
  1594 ;;		_BUTTON_IsPressed
  1595 ;;		_USBTransferOnePacket
  1596 ;;		_memset
  1597 ;; This function is called by:
  1598 ;;		_main
  1599 ;; This function uses a non-reentrant model
  1600 ;;
  1601                           
  1602                           	psect	text6
  1603   0005F2                     __ptext6:
  1604                           	callstack 0
  1605   0005F2                     _APP_KeyboardTasks:
  1606                           	callstack 18
  1607                           
  1608                           ;../demo_src/app_device_keyboard.c: 307:     signed int TimeDeltaMilliseconds;;../demo_s
      +                          rc/app_device_keyboard.c: 308:     unsigned char i;;../demo_src/app_device_keyboard.c: 3
      +                          09:     _Bool needToSendNewReportPacket;;../demo_src/app_device_keyboard.c: 314:     if(
      +                           USBDeviceState < CONFIGURED_STATE )
  1609                           
  1610                           ; BSR set to: 0
  1611                           ;incstack = 0
  1612   0005F2  0E20               	movlw	32
  1613   0005F4  602A               	cpfslt	_USBDeviceState^0,c
  1614   0005F6  D001               	goto	l750
  1615   0005F8  0012               	return	
  1616   0005FA                     l750:
  1617                           
  1618                           ;../demo_src/app_device_keyboard.c: 323:     if( UCONbits.SUSPND== 1 )
  1619   0005FA  A264               	btfss	100,1,c	;volatile
  1620   0005FC  D008               	goto	l5599
  1621                           
  1622                           ;../demo_src/app_device_keyboard.c: 324:     {;../demo_src/app_device_keyboard.c: 327:  
      +                                 if(BUTTON_IsPressed(BUTTON_S1) == 0)
  1623   0005FE  0E01               	movlw	1
  1624   000600  ECA6  F00F         	call	_BUTTON_IsPressed
  1625   000604  0012               	return	
  1626   000606                     l755:
  1627                           
  1628                           ; BSR set to: 0
  1629                           ;../demo_src/app_device_keyboard.c: 339:     {;../demo_src/app_device_keyboard.c: 340:  
      +                                 LocalSOFCount = SOFCounter;
  1630   000606  C021  F078         	movff	_SOFCounter,_LocalSOFCount	;volatile
  1631   00060A  C022  F079         	movff	_SOFCounter+1,_LocalSOFCount+1	;volatile
  1632   00060E                     l5599:
  1633                           
  1634                           ;../demo_src/app_device_keyboard.c: 338:     while(LocalSOFCount != SOFCounter)
  1635   00060E  5021               	movf	_SOFCounter^0,w,c	;volatile
  1636   000610  0100               	movlb	0	; () banked
  1637   000612  1978               	xorwf	_LocalSOFCount& (0+255),w,b
  1638   000614  E1F8               	bnz	l755
  1639   000616  5022               	movf	(_SOFCounter+1)^0,w,c	;volatile
  1640   000618  1979               	xorwf	(_LocalSOFCount+1)& (0+255),w,b
  1641   00061A  A4D8               	btfss	status,2,c
  1642   00061C  D7F4               	goto	l755
  1643                           
  1644                           ; BSR set to: 0
  1645                           ;../demo_src/app_device_keyboard.c: 345:     TimeDeltaMilliseconds = LocalSOFCount - Old
      +                          SOFCount;
  1646   00061E  5176               	movf	_OldSOFCount& (0+255),w,b
  1647   000620  5D78               	subwf	_LocalSOFCount& (0+255),w,b
  1648   000622  6F95               	movwf	APP_KeyboardTasks@TimeDeltaMilliseconds& (0+255),b
  1649   000624  5177               	movf	(_OldSOFCount+1)& (0+255),w,b
  1650   000626  5979               	subwfb	(_LocalSOFCount+1)& (0+255),w,b
  1651   000628  6F96               	movwf	(APP_KeyboardTasks@TimeDeltaMilliseconds+1)& (0+255),b
  1652                           
  1653                           ;../demo_src/app_device_keyboard.c: 347:     if(TimeDeltaMilliseconds < 0)
  1654   00062A  AF96               	btfss	(APP_KeyboardTasks@TimeDeltaMilliseconds+1)& (0+255),7,b
  1655   00062C  D00C               	goto	l757
  1656                           
  1657                           ; BSR set to: 0
  1658                           ;../demo_src/app_device_keyboard.c: 348:     {;../demo_src/app_device_keyboard.c: 349:  
      +                                 TimeDeltaMilliseconds = (32767 - OldSOFCount) + LocalSOFCount;
  1659   00062E  5176               	movf	_OldSOFCount& (0+255),w,b
  1660   000630  5D78               	subwf	_LocalSOFCount& (0+255),w,b
  1661   000632  6F92               	movwf	??_APP_KeyboardTasks& (0+255),b
  1662   000634  5177               	movf	(_OldSOFCount+1)& (0+255),w,b
  1663   000636  5979               	subwfb	(_LocalSOFCount+1)& (0+255),w,b
  1664   000638  6F93               	movwf	(??_APP_KeyboardTasks+1)& (0+255),b
  1665   00063A  0EFF               	movlw	255
  1666   00063C  2592               	addwf	??_APP_KeyboardTasks& (0+255),w,b
  1667   00063E  6F95               	movwf	APP_KeyboardTasks@TimeDeltaMilliseconds& (0+255),b
  1668   000640  0E7F               	movlw	127
  1669   000642  2193               	addwfc	(??_APP_KeyboardTasks+1)& (0+255),w,b
  1670   000644  6F96               	movwf	(APP_KeyboardTasks@TimeDeltaMilliseconds+1)& (0+255),b
  1671   000646                     l757:
  1672                           
  1673                           ; BSR set to: 0
  1674                           ;../demo_src/app_device_keyboard.c: 356:     if(TimeDeltaMilliseconds > 5000)
  1675   000646  BF96               	btfsc	(APP_KeyboardTasks@TimeDeltaMilliseconds+1)& (0+255),7,b
  1676   000648  D00C               	goto	l758
  1677   00064A  0E89               	movlw	137
  1678   00064C  5D95               	subwf	APP_KeyboardTasks@TimeDeltaMilliseconds& (0+255),w,b
  1679   00064E  0E13               	movlw	19
  1680   000650  5996               	subwfb	(APP_KeyboardTasks@TimeDeltaMilliseconds+1)& (0+255),w,b
  1681   000652  A0D8               	btfss	status,0,c
  1682   000654  D006               	goto	l758
  1683                           
  1684                           ; BSR set to: 0
  1685                           ;../demo_src/app_device_keyboard.c: 357:     {;../demo_src/app_device_keyboard.c: 358:  
      +                                 OldSOFCount = LocalSOFCount - 5000;
  1686   000656  0E78               	movlw	120
  1687   000658  2578               	addwf	_LocalSOFCount& (0+255),w,b
  1688   00065A  6F76               	movwf	_OldSOFCount& (0+255),b
  1689   00065C  0EEC               	movlw	236
  1690   00065E  2179               	addwfc	(_LocalSOFCount+1)& (0+255),w,b
  1691   000660  6F77               	movwf	(_OldSOFCount+1)& (0+255),b
  1692   000662                     l758:
  1693                           
  1694                           ; BSR set to: 0
  1695                           ;../demo_src/app_device_keyboard.c: 364:     if(((keyboard.lastINTransmission != 0x0000)
      +                           && ((*(volatile uint8_t*)keyboard.lastINTransmission & 0x80) != 0x00)) == 0)
  1696   000662  5168               	movf	_keyboard& (0+255),w,b
  1697   000664  1169               	iorwf	(_keyboard+1)& (0+255),w,b
  1698   000666  B4D8               	btfsc	status,2,c
  1699   000668  D006               	goto	u3580
  1700                           
  1701                           ; BSR set to: 0
  1702   00066A  C068  FFD9         	movff	_keyboard,fsr2l
  1703   00066E  C069  FFDA         	movff	_keyboard+1,fsr2h
  1704   000672  BEDF               	btfsc	indf2,7,c
  1705   000674  D06D               	goto	l5653
  1706   000676                     u3580:
  1707                           
  1708                           ; BSR set to: 0
  1709                           ;../demo_src/app_device_keyboard.c: 365:     {;../demo_src/app_device_keyboard.c: 367:  
      +                                 memset(&inputReport, 0, sizeof(inputReport));
  1710   000676  0E40               	movlw	64
  1711   000678  6F86               	movwf	memset@dest& (0+255),b
  1712   00067A  0E02               	movlw	2
  1713   00067C  6F87               	movwf	(memset@dest+1)& (0+255),b
  1714   00067E  0E00               	movlw	0
  1715   000680  6F89               	movwf	(memset@c+1)& (0+255),b
  1716   000682  0E00               	movlw	0
  1717   000684  6F88               	movwf	memset@c& (0+255),b
  1718   000686  0E00               	movlw	0
  1719   000688  6F8B               	movwf	(memset@n+1)& (0+255),b
  1720   00068A  0E08               	movlw	8
  1721   00068C  6F8A               	movwf	memset@n& (0+255),b
  1722   00068E  ECC4  F003         	call	_memset	;wreg free
  1723                           
  1724                           ; BSR set to: 0
  1725                           ;../demo_src/app_device_keyboard.c: 369:         if(BUTTON_IsPressed(BUTTON_S1) == 1)
  1726   000692  0E01               	movlw	1
  1727   000694  ECA6  F00F         	call	_BUTTON_IsPressed
  1728   000698  06E8               	decf	wreg,f,c
  1729   00069A  A4D8               	btfss	status,2,c
  1730   00069C  D00F               	goto	l5625
  1731                           
  1732                           ; BSR set to: 0
  1733                           ;../demo_src/app_device_keyboard.c: 370:         {;../demo_src/app_device_keyboard.c: 37
      +                          1:             if(keyboard.waitingForRelease == 0)
  1734   00069E  516D               	movf	(_keyboard+5)& (0+255),w,b
  1735   0006A0  A4D8               	btfss	status,2,c
  1736   0006A2  D00E               	goto	l765
  1737                           
  1738                           ; BSR set to: 0
  1739                           ;../demo_src/app_device_keyboard.c: 372:             {;../demo_src/app_device_keyboard.c
      +                          : 373:                 keyboard.waitingForRelease = 1;
  1740   0006A4  0E01               	movlw	1
  1741   0006A6  6F6D               	movwf	(_keyboard+5)& (0+255),b
  1742                           
  1743                           ; BSR set to: 0
  1744                           ;../demo_src/app_device_keyboard.c: 376:                 inputReport.keys[0] = keyboard.
      +                          key++;
  1745   0006A8  C06C  F242         	movff	_keyboard+4,578
  1746                           
  1747                           ; BSR set to: 0
  1748   0006AC  2B6C               	incf	(_keyboard+4)& (0+255),f,b
  1749                           
  1750                           ; BSR set to: 0
  1751                           ;../demo_src/app_device_keyboard.c: 380:                 if(keyboard.key == 40)
  1752   0006AE  0E28               	movlw	40
  1753   0006B0  196C               	xorwf	(_keyboard+4)& (0+255),w,b
  1754   0006B2  A4D8               	btfss	status,2,c
  1755   0006B4  D005               	goto	l765
  1756                           
  1757                           ; BSR set to: 0
  1758                           ;../demo_src/app_device_keyboard.c: 381:                 {;../demo_src/app_device_keyboa
      +                          rd.c: 382:                     keyboard.key = 4;
  1759   0006B6  0E04               	movlw	4
  1760   0006B8  6F6C               	movwf	(_keyboard+4)& (0+255),b
  1761   0006BA  D002               	goto	l765
  1762   0006BC                     l5625:
  1763                           
  1764                           ; BSR set to: 0
  1765                           ;../demo_src/app_device_keyboard.c: 387:         {;../demo_src/app_device_keyboard.c: 38
      +                          8:             keyboard.waitingForRelease = 0;
  1766   0006BC  0E00               	movlw	0
  1767   0006BE  6F6D               	movwf	(_keyboard+5)& (0+255),b
  1768   0006C0                     l765:
  1769                           
  1770                           ; BSR set to: 0
  1771                           ;../demo_src/app_device_keyboard.c: 393:         needToSendNewReportPacket = 0;
  1772   0006C0  0E00               	movlw	0
  1773   0006C2  6F94               	movwf	APP_KeyboardTasks@needToSendNewReportPacket& (0+255),b
  1774                           
  1775                           ;../demo_src/app_device_keyboard.c: 394:         for(i = 0; i < sizeof(inputReport); i++
      +                          )
  1776   0006C4  0E00               	movlw	0
  1777   0006C6  6F97               	movwf	APP_KeyboardTasks@i& (0+255),b
  1778   0006C8                     l5631:
  1779                           
  1780                           ; BSR set to: 0
  1781                           ;../demo_src/app_device_keyboard.c: 395:         {;../demo_src/app_device_keyboard.c: 39
      +                          6:             if(*((uint8_t*)&oldInputReport + i) != *((uint8_t*)&inputReport + i))
  1782   0006C8  0E40               	movlw	64
  1783   0006CA  2597               	addwf	APP_KeyboardTasks@i& (0+255),w,b
  1784   0006CC  6ED9               	movwf	fsr2l,c
  1785   0006CE  6ADA               	clrf	fsr2h,c
  1786   0006D0  0E02               	movlw	2
  1787   0006D2  22DA               	addwfc	fsr2h,f,c
  1788   0006D4  5197               	movf	APP_KeyboardTasks@i& (0+255),w,b
  1789   0006D6  0F60               	addlw	low _oldInputReport
  1790   0006D8  6EE1               	movwf	fsr1l,c
  1791   0006DA  6AE2               	clrf	fsr1h,c
  1792   0006DC  50DE               	movf	postinc2,w,c
  1793   0006DE  18E6               	xorwf	postinc1,w,c
  1794   0006E0  B4D8               	btfsc	status,2,c
  1795   0006E2  D003               	goto	l5635
  1796                           
  1797                           ; BSR set to: 0
  1798                           ;../demo_src/app_device_keyboard.c: 397:             {;../demo_src/app_device_keyboard.c
      +                          : 398:                 needToSendNewReportPacket = 1;
  1799   0006E4  0E01               	movlw	1
  1800   0006E6  6F94               	movwf	APP_KeyboardTasks@needToSendNewReportPacket& (0+255),b
  1801                           
  1802                           ;../demo_src/app_device_keyboard.c: 399:                 break;
  1803   0006E8  D004               	goto	u3630
  1804   0006EA                     l5635:
  1805                           
  1806                           ; BSR set to: 0
  1807                           ;../demo_src/app_device_keyboard.c: 401:         }
  1808   0006EA  2B97               	incf	APP_KeyboardTasks@i& (0+255),f,b
  1809                           
  1810                           ; BSR set to: 0
  1811   0006EC  0E07               	movlw	7
  1812   0006EE  6597               	cpfsgt	APP_KeyboardTasks@i& (0+255),b
  1813   0006F0  D7EB               	goto	l5631
  1814   0006F2                     u3630:
  1815                           
  1816                           ; BSR set to: 0
  1817                           ;../demo_src/app_device_keyboard.c: 406:         if(keyboardIdleRate != 0)
  1818   0006F2  517A               	movf	_keyboardIdleRate& (0+255),w,b
  1819   0006F4  117B               	iorwf	(_keyboardIdleRate+1)& (0+255),w,b
  1820   0006F6  B4D8               	btfsc	status,2,c
  1821   0006F8  D00C               	goto	l5645
  1822                           
  1823                           ; BSR set to: 0
  1824                           ;../demo_src/app_device_keyboard.c: 407:         {;../demo_src/app_device_keyboard.c: 40
      +                          9:             if(TimeDeltaMilliseconds >= keyboardIdleRate)
  1825   0006FA  517A               	movf	_keyboardIdleRate& (0+255),w,b
  1826   0006FC  5D95               	subwf	APP_KeyboardTasks@TimeDeltaMilliseconds& (0+255),w,b
  1827   0006FE  5196               	movf	(APP_KeyboardTasks@TimeDeltaMilliseconds+1)& (0+255),w,b
  1828   000700  0A80               	xorlw	128
  1829   000702  6F92               	movwf	??_APP_KeyboardTasks& (0+255),b
  1830   000704  517B               	movf	(_keyboardIdleRate+1)& (0+255),w,b
  1831   000706  0A80               	xorlw	128
  1832   000708  5992               	subwfb	??_APP_KeyboardTasks& (0+255),w,b
  1833   00070A  A0D8               	btfss	status,0,c
  1834   00070C  D002               	goto	l5645
  1835                           
  1836                           ; BSR set to: 0
  1837                           ;../demo_src/app_device_keyboard.c: 410:             {;../demo_src/app_device_keyboard.c
      +                          : 411:                 needToSendNewReportPacket = 1;
  1838   00070E  0E01               	movlw	1
  1839   000710  6F94               	movwf	APP_KeyboardTasks@needToSendNewReportPacket& (0+255),b
  1840   000712                     l5645:
  1841                           
  1842                           ; BSR set to: 0
  1843                           ;../demo_src/app_device_keyboard.c: 417:         if(needToSendNewReportPacket == 1)
  1844   000712  0594               	decf	APP_KeyboardTasks@needToSendNewReportPacket& (0+255),w,b
  1845   000714  A4D8               	btfss	status,2,c
  1846   000716  D01C               	goto	l5653
  1847                           
  1848                           ; BSR set to: 0
  1849                           ;../demo_src/app_device_keyboard.c: 418:         {;../demo_src/app_device_keyboard.c: 42
      +                          2:             oldInputReport = inputReport;
  1850   000718  EE22 F040          	lfsr	2,576
  1851   00071C  EE10  F060         	lfsr	1,_oldInputReport
  1852   000720  0E07               	movlw	7
  1853   000722                     u3671:
  1854   000722  CFDB FFE3          	movff	plusw2,plusw1
  1855   000726  06E8               	decf	wreg,f,c
  1856   000728  E2FC               	bc	u3671
  1857                           
  1858                           ; BSR set to: 0
  1859                           ;../demo_src/app_device_keyboard.c: 425:             keyboard.lastINTransmission = USBTr
      +                          ansferOnePacket(1,1,(uint8_t*)&inputReport,sizeof(inputReport));
  1860   00072A  0E01               	movlw	1
  1861   00072C  6F86               	movwf	USBTransferOnePacket@dir& (0+255),b
  1862   00072E  0E40               	movlw	64
  1863   000730  6F87               	movwf	USBTransferOnePacket@data& (0+255),b
  1864   000732  0E02               	movlw	2
  1865   000734  6F88               	movwf	(USBTransferOnePacket@data+1)& (0+255),b
  1866   000736  0E08               	movlw	8
  1867   000738  6F89               	movwf	USBTransferOnePacket@len& (0+255),b
  1868   00073A  0E01               	movlw	1
  1869   00073C  EC4E  F008         	call	_USBTransferOnePacket
  1870   000740  C086  F068         	movff	?_USBTransferOnePacket,_keyboard
  1871   000744  C087  F069         	movff	?_USBTransferOnePacket+1,_keyboard+1
  1872                           
  1873                           ; BSR set to: 0
  1874                           ;../demo_src/app_device_keyboard.c: 426:             OldSOFCount = LocalSOFCount;
  1875   000748  C078  F076         	movff	_LocalSOFCount,_OldSOFCount
  1876   00074C  C079  F077         	movff	_LocalSOFCount+1,_OldSOFCount+1
  1877   000750                     l5653:
  1878                           
  1879                           ; BSR set to: 0
  1880                           ;../demo_src/app_device_keyboard.c: 438:     if(((keyboard.lastOUTTransmission != 0x0000
      +                          ) && ((*(volatile uint8_t*)keyboard.lastOUTTransmission & 0x80) != 0x00)) == 0)
  1881   000750  516A               	movf	(_keyboard+2)& (0+255),w,b
  1882   000752  116B               	iorwf	(_keyboard+3)& (0+255),w,b
  1883   000754  B4D8               	btfsc	status,2,c
  1884   000756  D006               	goto	u3690
  1885                           
  1886                           ; BSR set to: 0
  1887   000758  C06A  FFD9         	movff	_keyboard+2,fsr2l
  1888   00075C  C06B  FFDA         	movff	_keyboard+3,fsr2h
  1889   000760  BEDF               	btfsc	indf2,7,c
  1890   000762  0012               	return	
  1891   000764                     u3690:
  1892                           
  1893                           ; BSR set to: 0
  1894                           ;../demo_src/app_device_keyboard.c: 439:     {;../demo_src/app_device_keyboard.c: 440:  
      +                                 APP_KeyboardProcessOutputReport();
  1895   000764  EC7A  F010         	call	_APP_KeyboardProcessOutputReport	;wreg free
  1896                           
  1897                           ; BSR set to: 0
  1898                           ;../demo_src/app_device_keyboard.c: 442:         keyboard.lastOUTTransmission = USBTrans
      +                          ferOnePacket(1,0,(uint8_t*)&outputReport,sizeof(outputReport));
  1899   000768  0E00               	movlw	0
  1900   00076A  6F86               	movwf	USBTransferOnePacket@dir& (0+255),b
  1901   00076C  0E48               	movlw	72
  1902   00076E  6F87               	movwf	USBTransferOnePacket@data& (0+255),b
  1903   000770  0E02               	movlw	2
  1904   000772  6F88               	movwf	(USBTransferOnePacket@data+1)& (0+255),b
  1905   000774  0E01               	movlw	1
  1906   000776  6F89               	movwf	USBTransferOnePacket@len& (0+255),b
  1907   000778  0E01               	movlw	1
  1908   00077A  EC4E  F008         	call	_USBTransferOnePacket
  1909   00077E  C086  F06A         	movff	?_USBTransferOnePacket,_keyboard+2
  1910   000782  C087  F06B         	movff	?_USBTransferOnePacket+1,_keyboard+3
  1911   000786  0012               	return		;funcret
  1912   000788                     __end_of_APP_KeyboardTasks:
  1913                           	callstack 0
  1914                           
  1915 ;; *************** function _memset *****************
  1916 ;; Defined at:
  1917 ;;		line 4 in file "C:\Program Files\Microchip\xc8\v2.40\pic\sources\c99\common\memset.c"
  1918 ;; Parameters:    Size  Location     Type
  1919 ;;  dest            2    0[BANK0 ] PTR void 
  1920 ;;		 -> inputReport(8), USBAlternateInterface(1), BDT(32), UEP1(1), 
  1921 ;;  c               2    2[BANK0 ] int 
  1922 ;;  n               2    4[BANK0 ] unsigned int 
  1923 ;; Auto vars:     Size  Location     Type
  1924 ;;  s               2   10[BANK0 ] PTR unsigned char 
  1925 ;;		 -> inputReport(8), USBAlternateInterface(1), BDT(32), UEP1(1), 
  1926 ;;  k               2    8[BANK0 ] unsigned int 
  1927 ;; Return value:  Size  Location     Type
  1928 ;;                  2    0[BANK0 ] PTR void 
  1929 ;; Registers used:
  1930 ;;		wreg, fsr2l, fsr2h, status,2, status,0
  1931 ;; Tracked objects:
  1932 ;;		On entry : 3F/0
  1933 ;;		On exit  : 3F/0
  1934 ;;		Unchanged: 0/0
  1935 ;; Data sizes:     COMRAM   BANK0   BANK1  BANK2h  BANK2l
  1936 ;;      Params:         0       6       0       0       0
  1937 ;;      Locals:         0       4       0       0       0
  1938 ;;      Temps:          0       2       0       0       0
  1939 ;;      Totals:         0      12       0       0       0
  1940 ;;Total ram usage:       12 bytes
  1941 ;; Hardware stack levels used: 1
  1942 ;; Hardware stack levels required when called: 10
  1943 ;; This function calls:
  1944 ;;		Nothing
  1945 ;; This function is called by:
  1946 ;;		_USBDeviceInit
  1947 ;;		_APP_KeyboardTasks
  1948 ;; This function uses a non-reentrant model
  1949 ;;
  1950                           
  1951                           	psect	text7
  1952   000788                     __ptext7:
  1953                           	callstack 0
  1954   000788                     _memset:
  1955                           	callstack 19
  1956                           
  1957                           ; BSR set to: 0
  1958                           
  1959                           ;incstack = 0
  1960   000788  C086  F090         	movff	memset@dest,memset@s
  1961   00078C  C087  F091         	movff	memset@dest+1,memset@s+1
  1962   000790  518A               	movf	memset@n& (0+255),w,b
  1963   000792  118B               	iorwf	(memset@n+1)& (0+255),w,b
  1964   000794  B4D8               	btfsc	status,2,c
  1965   000796  0012               	return	
  1966                           
  1967                           ; BSR set to: 0
  1968   000798  C090  FFD9         	movff	memset@s,fsr2l
  1969   00079C  C091  FFDA         	movff	memset@s+1,fsr2h
  1970   0007A0  C088  FFDF         	movff	memset@c,indf2
  1971                           
  1972                           ; BSR set to: 0
  1973   0007A4  518A               	movf	memset@n& (0+255),w,b
  1974   0007A6  2590               	addwf	memset@s& (0+255),w,b
  1975   0007A8  6F8C               	movwf	??_memset& (0+255),b
  1976   0007AA  518B               	movf	(memset@n+1)& (0+255),w,b
  1977   0007AC  2191               	addwfc	(memset@s+1)& (0+255),w,b
  1978   0007AE  6F8D               	movwf	(??_memset+1)& (0+255),b
  1979   0007B0  0EFF               	movlw	255
  1980   0007B2  258C               	addwf	??_memset& (0+255),w,b
  1981   0007B4  6ED9               	movwf	fsr2l,c
  1982   0007B6  0EFF               	movlw	255
  1983   0007B8  218D               	addwfc	(??_memset+1)& (0+255),w,b
  1984   0007BA  6EDA               	movwf	fsr2h,c
  1985   0007BC  C088  FFDF         	movff	memset@c,indf2
  1986   0007C0  518B               	movf	(memset@n+1)& (0+255),w,b
  1987   0007C2  E104               	bnz	l5419
  1988   0007C4  0E03               	movlw	3
  1989   0007C6  5D8A               	subwf	memset@n& (0+255),w,b
  1990   0007C8  A0D8               	btfss	status,0,c
  1991   0007CA  0012               	return	
  1992   0007CC                     l5419:
  1993                           
  1994                           ; BSR set to: 0
  1995   0007CC  EE20 F001          	lfsr	2,1
  1996   0007D0  5190               	movf	memset@s& (0+255),w,b
  1997   0007D2  26D9               	addwf	fsr2l,f,c
  1998   0007D4  5191               	movf	(memset@s+1)& (0+255),w,b
  1999   0007D6  22DA               	addwfc	fsr2h,f,c
  2000   0007D8  C088  FFDF         	movff	memset@c,indf2
  2001   0007DC  EE20 F002          	lfsr	2,2
  2002   0007E0  5190               	movf	memset@s& (0+255),w,b
  2003   0007E2  26D9               	addwf	fsr2l,f,c
  2004   0007E4  5191               	movf	(memset@s+1)& (0+255),w,b
  2005   0007E6  22DA               	addwfc	fsr2h,f,c
  2006   0007E8  C088  FFDF         	movff	memset@c,indf2
  2007   0007EC  518A               	movf	memset@n& (0+255),w,b
  2008   0007EE  2590               	addwf	memset@s& (0+255),w,b
  2009   0007F0  6F8C               	movwf	??_memset& (0+255),b
  2010   0007F2  518B               	movf	(memset@n+1)& (0+255),w,b
  2011   0007F4  2191               	addwfc	(memset@s+1)& (0+255),w,b
  2012   0007F6  6F8D               	movwf	(??_memset+1)& (0+255),b
  2013   0007F8  0EFE               	movlw	254
  2014   0007FA  258C               	addwf	??_memset& (0+255),w,b
  2015   0007FC  6ED9               	movwf	fsr2l,c
  2016   0007FE  0EFF               	movlw	255
  2017   000800  218D               	addwfc	(??_memset+1)& (0+255),w,b
  2018   000802  6EDA               	movwf	fsr2h,c
  2019   000804  C088  FFDF         	movff	memset@c,indf2
  2020   000808  518A               	movf	memset@n& (0+255),w,b
  2021   00080A  2590               	addwf	memset@s& (0+255),w,b
  2022   00080C  6F8C               	movwf	??_memset& (0+255),b
  2023   00080E  518B               	movf	(memset@n+1)& (0+255),w,b
  2024   000810  2191               	addwfc	(memset@s+1)& (0+255),w,b
  2025   000812  6F8D               	movwf	(??_memset+1)& (0+255),b
  2026   000814  0EFD               	movlw	253
  2027   000816  258C               	addwf	??_memset& (0+255),w,b
  2028   000818  6ED9               	movwf	fsr2l,c
  2029   00081A  0EFF               	movlw	255
  2030   00081C  218D               	addwfc	(??_memset+1)& (0+255),w,b
  2031   00081E  6EDA               	movwf	fsr2h,c
  2032   000820  C088  FFDF         	movff	memset@c,indf2
  2033                           
  2034                           ; BSR set to: 0
  2035   000824  518B               	movf	(memset@n+1)& (0+255),w,b
  2036   000826  E104               	bnz	l5425
  2037   000828  0E07               	movlw	7
  2038   00082A  5D8A               	subwf	memset@n& (0+255),w,b
  2039   00082C  A0D8               	btfss	status,0,c
  2040   00082E  0012               	return	
  2041   000830                     l5425:
  2042                           
  2043                           ; BSR set to: 0
  2044   000830  EE20 F003          	lfsr	2,3
  2045   000834  5190               	movf	memset@s& (0+255),w,b
  2046   000836  26D9               	addwf	fsr2l,f,c
  2047   000838  5191               	movf	(memset@s+1)& (0+255),w,b
  2048   00083A  22DA               	addwfc	fsr2h,f,c
  2049   00083C  C088  FFDF         	movff	memset@c,indf2
  2050   000840  518A               	movf	memset@n& (0+255),w,b
  2051   000842  2590               	addwf	memset@s& (0+255),w,b
  2052   000844  6F8C               	movwf	??_memset& (0+255),b
  2053   000846  518B               	movf	(memset@n+1)& (0+255),w,b
  2054   000848  2191               	addwfc	(memset@s+1)& (0+255),w,b
  2055   00084A  6F8D               	movwf	(??_memset+1)& (0+255),b
  2056   00084C  0EFC               	movlw	252
  2057   00084E  258C               	addwf	??_memset& (0+255),w,b
  2058   000850  6ED9               	movwf	fsr2l,c
  2059   000852  0EFF               	movlw	255
  2060   000854  218D               	addwfc	(??_memset+1)& (0+255),w,b
  2061   000856  6EDA               	movwf	fsr2h,c
  2062   000858  C088  FFDF         	movff	memset@c,indf2
  2063                           
  2064                           ; BSR set to: 0
  2065   00085C  518B               	movf	(memset@n+1)& (0+255),w,b
  2066   00085E  E104               	bnz	l5431
  2067   000860  0E09               	movlw	9
  2068   000862  5D8A               	subwf	memset@n& (0+255),w,b
  2069   000864  A0D8               	btfss	status,0,c
  2070   000866  0012               	return	
  2071   000868                     l5431:
  2072                           
  2073                           ; BSR set to: 0
  2074   000868  C090  F08C         	movff	memset@s,??_memset
  2075   00086C  C091  F08D         	movff	memset@s+1,??_memset+1
  2076   000870  1F8C               	comf	??_memset& (0+255),f,b
  2077   000872  1F8D               	comf	(??_memset+1)& (0+255),f,b
  2078   000874  4B8C               	infsnz	??_memset& (0+255),f,b
  2079   000876  2B8D               	incf	(??_memset+1)& (0+255),f,b
  2080   000878  0E03               	movlw	3
  2081   00087A  158C               	andwf	??_memset& (0+255),w,b
  2082   00087C  6F8E               	movwf	memset@k& (0+255),b
  2083   00087E  6B8F               	clrf	(memset@k+1)& (0+255),b
  2084   000880  518E               	movf	memset@k& (0+255),w,b
  2085   000882  2790               	addwf	memset@s& (0+255),f,b
  2086   000884  518F               	movf	(memset@k+1)& (0+255),w,b
  2087   000886  2391               	addwfc	(memset@s+1)& (0+255),f,b
  2088   000888  518E               	movf	memset@k& (0+255),w,b
  2089   00088A  5F8A               	subwf	memset@n& (0+255),f,b
  2090   00088C  518F               	movf	(memset@k+1)& (0+255),w,b
  2091   00088E  5B8B               	subwfb	(memset@n+1)& (0+255),f,b
  2092   000890  0EFC               	movlw	252
  2093   000892  178A               	andwf	memset@n& (0+255),f,b
  2094   000894  0EFF               	movlw	255
  2095   000896  178B               	andwf	(memset@n+1)& (0+255),f,b
  2096   000898  D00B               	goto	l5439
  2097   00089A                     l5433:
  2098                           
  2099                           ; BSR set to: 0
  2100   00089A  C090  FFD9         	movff	memset@s,fsr2l
  2101   00089E  C091  FFDA         	movff	memset@s+1,fsr2h
  2102   0008A2  C088  FFDF         	movff	memset@c,indf2
  2103                           
  2104                           ; BSR set to: 0
  2105   0008A6  078A               	decf	memset@n& (0+255),f,b
  2106   0008A8  A0D8               	btfss	status,0,c
  2107   0008AA  078B               	decf	(memset@n+1)& (0+255),f,b
  2108                           
  2109                           ; BSR set to: 0
  2110   0008AC  4B90               	infsnz	memset@s& (0+255),f,b
  2111   0008AE  2B91               	incf	(memset@s+1)& (0+255),f,b
  2112   0008B0                     l5439:
  2113                           
  2114                           ; BSR set to: 0
  2115   0008B0  518A               	movf	memset@n& (0+255),w,b
  2116   0008B2  118B               	iorwf	(memset@n+1)& (0+255),w,b
  2117   0008B4  B4D8               	btfsc	status,2,c
  2118   0008B6  0012               	return	
  2119   0008B8  D7F0               	goto	l5433
  2120   0008BA                     __end_of_memset:
  2121                           	callstack 0
  2122                           
  2123 ;; *************** function _USBTransferOnePacket *****************
  2124 ;; Defined at:
  2125 ;;		line 999 in file "../framework/usb/src/usb_device.c"
  2126 ;; Parameters:    Size  Location     Type
  2127 ;;  ep              1    wreg     unsigned char 
  2128 ;;  dir             1    0[BANK0 ] unsigned char 
  2129 ;;  data            2    1[BANK0 ] PTR unsigned char 
  2130 ;;		 -> inputReport(8), outputReport(1), 
  2131 ;;  len             1    3[BANK0 ] unsigned char 
  2132 ;; Auto vars:     Size  Location     Type
  2133 ;;  ep              1    6[BANK0 ] unsigned char 
  2134 ;;  handle          2    7[BANK0 ] PTR volatile struct __BD
  2135 ;;		 -> RAM(767), NULL(0), BDT(32), 
  2136 ;; Return value:  Size  Location     Type
  2137 ;;                  2    0[BANK0 ] PTR void 
  2138 ;; Registers used:
  2139 ;;		wreg, fsr2l, fsr2h, status,2, status,0, prodl, prodh
  2140 ;; Tracked objects:
  2141 ;;		On entry : 3F/0
  2142 ;;		On exit  : 3F/0
  2143 ;;		Unchanged: 0/0
  2144 ;; Data sizes:     COMRAM   BANK0   BANK1  BANK2h  BANK2l
  2145 ;;      Params:         0       4       0       0       0
  2146 ;;      Locals:         0       3       0       0       0
  2147 ;;      Temps:          0       2       0       0       0
  2148 ;;      Totals:         0       9       0       0       0
  2149 ;;Total ram usage:        9 bytes
  2150 ;; Hardware stack levels used: 1
  2151 ;; Hardware stack levels required when called: 10
  2152 ;; This function calls:
  2153 ;;		Nothing
  2154 ;; This function is called by:
  2155 ;;		_APP_KeyboardTasks
  2156 ;; This function uses a non-reentrant model
  2157 ;;
  2158                           
  2159                           	psect	text8
  2160   00109C                     __ptext8:
  2161                           	callstack 0
  2162   00109C                     _USBTransferOnePacket:
  2163                           	callstack 19
  2164                           
  2165                           ; BSR set to: 0
  2166                           ;incstack = 0
  2167                           ;USBTransferOnePacket@ep stored from wreg
  2168   00109C  6F8C               	movwf	USBTransferOnePacket@ep& (0+255),b
  2169                           
  2170                           ;../framework/usb/src/usb_device.c: 999: void* USBTransferOnePacket(uint8_t ep,uint8_t d
      +                          ir,uint8_t* data,uint8_t len);../framework/usb/src/usb_device.c: 1000: {;../framework/us
      +                          b/src/usb_device.c: 1001:     volatile BDT_ENTRY* handle;;../framework/usb/src/usb_devic
      +                          e.c: 1004:     if(dir != 0)
  2171   00109E  0100               	movlb	0	; () banked
  2172   0010A0  5186               	movf	USBTransferOnePacket@dir& (0+255),w,b
  2173   0010A2  B4D8               	btfsc	status,2,c
  2174   0010A4  D005               	goto	l5445
  2175                           
  2176                           ; BSR set to: 0
  2177                           ;../framework/usb/src/usb_device.c: 1005:     {;../framework/usb/src/usb_device.c: 1007:
      +                                   handle = pBDTEntryIn[ep];
  2178   0010A6  518C               	movf	USBTransferOnePacket@ep& (0+255),w,b
  2179   0010A8  0D02               	mullw	2
  2180   0010AA  50F3               	movf	243,w,c
  2181   0010AC  0F0F               	addlw	low _pBDTEntryIn
  2182   0010AE  D004               	goto	L1
  2183   0010B0                     l5445:
  2184                           
  2185                           ; BSR set to: 0
  2186                           ;../framework/usb/src/usb_device.c: 1010:     {;../framework/usb/src/usb_device.c: 1012:
      +                                   handle = pBDTEntryOut[ep];
  2187   0010B0  518C               	movf	USBTransferOnePacket@ep& (0+255),w,b
  2188   0010B2  0D02               	mullw	2
  2189   0010B4  50F3               	movf	243,w,c
  2190   0010B6  0F13               	addlw	low _pBDTEntryOut
  2191   0010B8                     L1:
  2192   0010B8  6ED9               	movwf	fsr2l,c
  2193   0010BA  6ADA               	clrf	fsr2h,c
  2194   0010BC  CFDE F08D          	movff	postinc2,USBTransferOnePacket@handle
  2195   0010C0  CFDD F08E          	movff	postdec2,USBTransferOnePacket@handle+1
  2196                           
  2197                           ; BSR set to: 0
  2198                           ;../framework/usb/src/usb_device.c: 1017:     if(handle == 0)
  2199   0010C4  518D               	movf	USBTransferOnePacket@handle& (0+255),w,b
  2200   0010C6  118E               	iorwf	(USBTransferOnePacket@handle+1)& (0+255),w,b
  2201   0010C8  A4D8               	btfss	status,2,c
  2202   0010CA  D005               	goto	l5453
  2203                           
  2204                           ; BSR set to: 0
  2205                           ;../framework/usb/src/usb_device.c: 1018:     {;../framework/usb/src/usb_device.c: 1019:
      +                                   return 0;
  2206   0010CC  0E00               	movlw	0
  2207   0010CE  6F86               	movwf	?_USBTransferOnePacket& (0+255),b
  2208   0010D0  0E00               	movlw	0
  2209   0010D2  6F87               	movwf	(?_USBTransferOnePacket+1)& (0+255),b
  2210   0010D4  0012               	return	
  2211   0010D6                     l5453:
  2212                           
  2213                           ; BSR set to: 0
  2214                           ;../framework/usb/src/usb_device.c: 1033:     handle->ADR = ((uint16_t)(data));
  2215   0010D6  EE20 F002          	lfsr	2,2
  2216   0010DA  518D               	movf	USBTransferOnePacket@handle& (0+255),w,b
  2217   0010DC  26D9               	addwf	fsr2l,f,c
  2218   0010DE  518E               	movf	(USBTransferOnePacket@handle+1)& (0+255),w,b
  2219   0010E0  22DA               	addwfc	fsr2h,f,c
  2220   0010E2  C087  FFDE         	movff	USBTransferOnePacket@data,postinc2
  2221   0010E6  C088  FFDD         	movff	USBTransferOnePacket@data+1,postdec2
  2222                           
  2223                           ;../framework/usb/src/usb_device.c: 1034:     handle->CNT = len;
  2224   0010EA  EE20 F001          	lfsr	2,1
  2225   0010EE  518D               	movf	USBTransferOnePacket@handle& (0+255),w,b
  2226   0010F0  26D9               	addwf	fsr2l,f,c
  2227   0010F2  518E               	movf	(USBTransferOnePacket@handle+1)& (0+255),w,b
  2228   0010F4  22DA               	addwfc	fsr2h,f,c
  2229   0010F6  C089  FFDF         	movff	USBTransferOnePacket@len,indf2
  2230                           
  2231                           ; BSR set to: 0
  2232                           ;../framework/usb/src/usb_device.c: 1035:     handle->STAT.Val &= 0x40;
  2233   0010FA  C08D  FFD9         	movff	USBTransferOnePacket@handle,fsr2l
  2234   0010FE  C08E  FFDA         	movff	USBTransferOnePacket@handle+1,fsr2h
  2235   001102  0E40               	movlw	64
  2236   001104  16DF               	andwf	indf2,f,c
  2237                           
  2238                           ; BSR set to: 0
  2239                           ;../framework/usb/src/usb_device.c: 1036:     handle->STAT.Val |= (0x08 & 0x08);
  2240   001106  C08D  FFD9         	movff	USBTransferOnePacket@handle,fsr2l
  2241   00110A  C08E  FFDA         	movff	USBTransferOnePacket@handle+1,fsr2h
  2242   00110E  0E00               	movlw	0
  2243   001110  86DB               	bsf	plusw2,3,c
  2244                           
  2245                           ; BSR set to: 0
  2246                           ;../framework/usb/src/usb_device.c: 1037:     handle->STAT.Val |= 0x80;
  2247   001112  C08D  FFD9         	movff	USBTransferOnePacket@handle,fsr2l
  2248   001116  C08E  FFDA         	movff	USBTransferOnePacket@handle+1,fsr2h
  2249   00111A  0E00               	movlw	0
  2250   00111C  8EDB               	bsf	plusw2,7,c
  2251                           
  2252                           ; BSR set to: 0
  2253                           ;../framework/usb/src/usb_device.c: 1040:     if(dir != 0)
  2254   00111E  5186               	movf	USBTransferOnePacket@dir& (0+255),w,b
  2255   001120  B4D8               	btfsc	status,2,c
  2256   001122  D013               	goto	l5465
  2257                           
  2258                           ; BSR set to: 0
  2259                           ;../framework/usb/src/usb_device.c: 1041:     {;../framework/usb/src/usb_device.c: 1043:
      +                                   pBDTEntryIn[ep] = (BDT_ENTRY*)(((uint16_t)pBDTEntryIn[ep]) ^ 0x0004);
  2260   001124  518C               	movf	USBTransferOnePacket@ep& (0+255),w,b
  2261   001126  0D02               	mullw	2
  2262   001128  50F3               	movf	243,w,c
  2263   00112A  0F0F               	addlw	low _pBDTEntryIn
  2264   00112C  6ED9               	movwf	fsr2l,c
  2265   00112E  6ADA               	clrf	fsr2h,c
  2266   001130  CFDE F08A          	movff	postinc2,??_USBTransferOnePacket
  2267   001134  CFDD F08B          	movff	postdec2,??_USBTransferOnePacket+1
  2268   001138  0E04               	movlw	4
  2269   00113A  1B8A               	xorwf	??_USBTransferOnePacket& (0+255),f,b
  2270   00113C  0E00               	movlw	0
  2271   00113E  1B8B               	xorwf	(??_USBTransferOnePacket+1)& (0+255),f,b
  2272   001140  518C               	movf	USBTransferOnePacket@ep& (0+255),w,b
  2273   001142  0D02               	mullw	2
  2274   001144  50F3               	movf	243,w,c
  2275   001146  0F0F               	addlw	low _pBDTEntryIn
  2276   001148  D012               	goto	L2
  2277   00114A                     l5465:
  2278                           
  2279                           ; BSR set to: 0
  2280                           ;../framework/usb/src/usb_device.c: 1046:     {;../framework/usb/src/usb_device.c: 1048:
      +                                   pBDTEntryOut[ep] = (BDT_ENTRY*)(((uint16_t)pBDTEntryOut[ep]) ^ 0x0004);
  2281   00114A  518C               	movf	USBTransferOnePacket@ep& (0+255),w,b
  2282   00114C  0D02               	mullw	2
  2283   00114E  50F3               	movf	243,w,c
  2284   001150  0F13               	addlw	low _pBDTEntryOut
  2285   001152  6ED9               	movwf	fsr2l,c
  2286   001154  6ADA               	clrf	fsr2h,c
  2287   001156  CFDE F08A          	movff	postinc2,??_USBTransferOnePacket
  2288   00115A  CFDD F08B          	movff	postdec2,??_USBTransferOnePacket+1
  2289   00115E  0E04               	movlw	4
  2290   001160  1B8A               	xorwf	??_USBTransferOnePacket& (0+255),f,b
  2291   001162  0E00               	movlw	0
  2292   001164  1B8B               	xorwf	(??_USBTransferOnePacket+1)& (0+255),f,b
  2293   001166  518C               	movf	USBTransferOnePacket@ep& (0+255),w,b
  2294   001168  0D02               	mullw	2
  2295   00116A  50F3               	movf	243,w,c
  2296   00116C  0F13               	addlw	low _pBDTEntryOut
  2297   00116E                     L2:
  2298   00116E  6ED9               	movwf	fsr2l,c
  2299   001170  6ADA               	clrf	fsr2h,c
  2300   001172  C08A  FFDE         	movff	??_USBTransferOnePacket,postinc2
  2301   001176  C08B  FFDD         	movff	??_USBTransferOnePacket+1,postdec2
  2302                           
  2303                           ; BSR set to: 0
  2304                           ;../framework/usb/src/usb_device.c: 1050:     return (void*)handle;
  2305   00117A  C08D  F086         	movff	USBTransferOnePacket@handle,?_USBTransferOnePacket
  2306   00117E  C08E  F087         	movff	USBTransferOnePacket@handle+1,?_USBTransferOnePacket+1
  2307                           
  2308                           ; BSR set to: 0
  2309   001182  0012               	return		;funcret
  2310   001184                     __end_of_USBTransferOnePacket:
  2311                           	callstack 0
  2312                           
  2313 ;; *************** function _BUTTON_IsPressed *****************
  2314 ;; Defined at:
  2315 ;;		line 55 in file "../bsp/pic18f14k50/buttons.c"
  2316 ;; Parameters:    Size  Location     Type
  2317 ;;  button          1    wreg     enum E2809
  2318 ;; Auto vars:     Size  Location     Type
  2319 ;;  button          1    2[BANK0 ] enum E2809
  2320 ;; Return value:  Size  Location     Type
  2321 ;;                  1    wreg      _Bool 
  2322 ;; Registers used:
  2323 ;;		wreg, status,2, status,0
  2324 ;; Tracked objects:
  2325 ;;		On entry : 0/0
  2326 ;;		On exit  : 3F/0
  2327 ;;		Unchanged: 0/0
  2328 ;; Data sizes:     COMRAM   BANK0   BANK1  BANK2h  BANK2l
  2329 ;;      Params:         0       0       0       0       0
  2330 ;;      Locals:         0       1       0       0       0
  2331 ;;      Temps:          0       2       0       0       0
  2332 ;;      Totals:         0       3       0       0       0
  2333 ;;Total ram usage:        3 bytes
  2334 ;; Hardware stack levels used: 1
  2335 ;; Hardware stack levels required when called: 10
  2336 ;; This function calls:
  2337 ;;		Nothing
  2338 ;; This function is called by:
  2339 ;;		_APP_KeyboardTasks
  2340 ;; This function uses a non-reentrant model
  2341 ;;
  2342                           
  2343                           	psect	text9
  2344   001F4C                     __ptext9:
  2345                           	callstack 0
  2346   001F4C                     _BUTTON_IsPressed:
  2347                           	callstack 19
  2348                           
  2349                           ; BSR set to: 0
  2350                           ;incstack = 0
  2351                           ;BUTTON_IsPressed@button stored from wreg
  2352   001F4C  0100               	movlb	0	; () banked
  2353   001F4E  6F88               	movwf	BUTTON_IsPressed@button& (0+255),b
  2354                           
  2355                           ;../bsp/pic18f14k50/buttons.c: 55: _Bool BUTTON_IsPressed(BUTTON button);../bsp/pic18f14
      +                          k50/buttons.c: 56: {;../bsp/pic18f14k50/buttons.c: 57:     switch(button)
  2356   001F50  D008               	goto	l5375
  2357   001F52                     l6:
  2358                           
  2359                           ; BSR set to: 0
  2360                           ;../bsp/pic18f14k50/buttons.c: 60:             return ( (PORTAbits.RA3 == 0) ? 1 : 0);
  2361   001F52  B680               	btfsc	128,3,c	;volatile
  2362   001F54  D002               	goto	u3360
  2363   001F56  0E01               	movlw	1
  2364   001F58  0012               	return	
  2365   001F5A                     u3360:
  2366   001F5A  0E00               	movlw	0
  2367   001F5C  0012               	return	
  2368   001F5E                     l5369:
  2369                           
  2370                           ; BSR set to: 0
  2371                           ;../bsp/pic18f14k50/buttons.c: 63:             return 0;
  2372   001F5E  0E00               	movlw	0
  2373   001F60  0012               	return	
  2374   001F62                     l5375:
  2375   001F62  0100               	movlb	0	; () banked
  2376   001F64  5188               	movf	BUTTON_IsPressed@button& (0+255),w,b
  2377   001F66  6F86               	movwf	??_BUTTON_IsPressed& (0+255),b
  2378   001F68  6B87               	clrf	(??_BUTTON_IsPressed+1)& (0+255),b
  2379                           
  2380                           ; Switch on 2 bytes has been partitioned into a top level switch of size 1, and 1 sub-sw
      +                          itches
  2381                           ; Switch size 1, requested type "simple"
  2382                           ; Number of cases is 1, Range of values is 0 to 0
  2383                           ; switch strategies available:
  2384                           ; Name         Instructions Cycles
  2385                           ; simple_byte            4     3 (average)
  2386                           ;	Chosen strategy is simple_byte
  2387   001F6A  5187               	movf	(??_BUTTON_IsPressed+1)& (0+255),w,b
  2388   001F6C  0A00               	xorlw	0	; case 0
  2389   001F6E  A4D8               	btfss	status,2,c
  2390   001F70  D7F6               	goto	l5369
  2391                           
  2392                           ; BSR set to: 0
  2393                           ; Switch size 1, requested type "simple"
  2394                           ; Number of cases is 2, Range of values is 0 to 1
  2395                           ; switch strategies available:
  2396                           ; Name         Instructions Cycles
  2397                           ; simple_byte            7     4 (average)
  2398                           ;	Chosen strategy is simple_byte
  2399   001F72  5186               	movf	??_BUTTON_IsPressed& (0+255),w,b
  2400   001F74  0A00               	xorlw	0	; case 0
  2401   001F76  B4D8               	btfsc	status,2,c
  2402   001F78  D7F2               	goto	l5369
  2403   001F7A  0A01               	xorlw	1	; case 1
  2404   001F7C  B4D8               	btfsc	status,2,c
  2405   001F7E  D7E9               	goto	l6
  2406   001F80  D7EE               	goto	l5369
  2407   001F82                     __end_of_BUTTON_IsPressed:
  2408                           	callstack 0
  2409                           
  2410 ;; *************** function _APP_KeyboardProcessOutputReport *****************
  2411 ;; Defined at:
  2412 ;;		line 448 in file "../demo_src/app_device_keyboard.c"
  2413 ;; Parameters:    Size  Location     Type
  2414 ;;		None
  2415 ;; Auto vars:     Size  Location     Type
  2416 ;;		None
  2417 ;; Return value:  Size  Location     Type
  2418 ;;                  1    wreg      void 
  2419 ;; Registers used:
  2420 ;;		wreg, status,2, status,0, cstack
  2421 ;; Tracked objects:
  2422 ;;		On entry : 3F/0
  2423 ;;		On exit  : 3F/0
  2424 ;;		Unchanged: 0/0
  2425 ;; Data sizes:     COMRAM   BANK0   BANK1  BANK2h  BANK2l
  2426 ;;      Params:         0       0       0       0       0
  2427 ;;      Locals:         0       0       0       0       0
  2428 ;;      Temps:          0       0       0       0       0
  2429 ;;      Totals:         0       0       0       0       0
  2430 ;;Total ram usage:        0 bytes
  2431 ;; Hardware stack levels used: 1
  2432 ;; Hardware stack levels required when called: 11
  2433 ;; This function calls:
  2434 ;;		_LED_Off
  2435 ;;		_LED_On
  2436 ;; This function is called by:
  2437 ;;		_APP_KeyboardTasks
  2438 ;; This function uses a non-reentrant model
  2439 ;;
  2440                           
  2441                           	psect	text10
  2442   0020F4                     __ptext10:
  2443                           	callstack 0
  2444   0020F4                     _APP_KeyboardProcessOutputReport:
  2445                           	callstack 18
  2446                           
  2447                           ; BSR set to: 0
  2448                           ;../demo_src/app_device_keyboard.c: 450:     if(outputReport.leds.capsLock)
  2449                           
  2450                           ; BSR set to: 0
  2451                           ;incstack = 0
  2452   0020F4  0102               	movlb	2	; () banked
  2453   0020F6  A348               	btfss	72,1,b	;volatile
  2454   0020F8  D004               	goto	l5475
  2455                           
  2456                           ; BSR set to: 2
  2457                           ;../demo_src/app_device_keyboard.c: 451:     {;../demo_src/app_device_keyboard.c: 452:  
      +                                 LED_On(LED_D2);
  2458   0020FA  0E02               	movlw	2
  2459   0020FC  EC3C  F00E         	call	_LED_On
  2460                           
  2461                           ;../demo_src/app_device_keyboard.c: 453:     }
  2462   002100  0012               	return	
  2463   002102                     l5475:
  2464                           
  2465                           ; BSR set to: 2
  2466                           ;../demo_src/app_device_keyboard.c: 455:     {;../demo_src/app_device_keyboard.c: 456:  
      +                                 LED_Off(LED_D2);
  2467   002102  0E02               	movlw	2
  2468   002104  EC60  F00E         	call	_LED_Off
  2469                           
  2470                           ; BSR set to: 0
  2471   002108  0012               	return		;funcret
  2472   00210A                     __end_of_APP_KeyboardProcessOutputReport:
  2473                           	callstack 0
  2474                           
  2475 ;; *************** function _LED_On *****************
  2476 ;; Defined at:
  2477 ;;		line 59 in file "../bsp/pic18f14k50/leds.c"
  2478 ;; Parameters:    Size  Location     Type
  2479 ;;  led             1    wreg     enum E2
  2480 ;; Auto vars:     Size  Location     Type
  2481 ;;  led             1    2[BANK0 ] enum E2
  2482 ;; Return value:  Size  Location     Type
  2483 ;;                  1    wreg      void 
  2484 ;; Registers used:
  2485 ;;		wreg, status,2, status,0
  2486 ;; Tracked objects:
  2487 ;;		On entry : 3F/2
  2488 ;;		On exit  : 3F/0
  2489 ;;		Unchanged: 0/0
  2490 ;; Data sizes:     COMRAM   BANK0   BANK1  BANK2h  BANK2l
  2491 ;;      Params:         0       0       0       0       0
  2492 ;;      Locals:         0       1       0       0       0
  2493 ;;      Temps:          0       2       0       0       0
  2494 ;;      Totals:         0       3       0       0       0
  2495 ;;Total ram usage:        3 bytes
  2496 ;; Hardware stack levels used: 1
  2497 ;; Hardware stack levels required when called: 10
  2498 ;; This function calls:
  2499 ;;		Nothing
  2500 ;; This function is called by:
  2501 ;;		_APP_KeyboardProcessOutputReport
  2502 ;; This function uses a non-reentrant model
  2503 ;;
  2504                           
  2505                           	psect	text11
  2506   001C78                     __ptext11:
  2507                           	callstack 0
  2508   001C78                     _LED_On:
  2509                           	callstack 18
  2510                           
  2511                           ; BSR set to: 0
  2512                           ;incstack = 0
  2513                           ;LED_On@led stored from wreg
  2514   001C78  0100               	movlb	0	; () banked
  2515   001C7A  6F88               	movwf	LED_On@led& (0+255),b
  2516                           
  2517                           ;../bsp/pic18f14k50/leds.c: 59: void LED_On(LED led);../bsp/pic18f14k50/leds.c: 60: {;..
      +                          /bsp/pic18f14k50/leds.c: 61:     switch(led)
  2518   001C7C  D008               	goto	l5347
  2519   001C7E                     l24:
  2520                           
  2521                           ; BSR set to: 0
  2522                           ;../bsp/pic18f14k50/leds.c: 64:             LATCbits.LATC0 = 1;
  2523   001C7E  808B               	bsf	139,0,c	;volatile
  2524                           
  2525                           ;../bsp/pic18f14k50/leds.c: 65:             break;
  2526   001C80  0012               	return	
  2527   001C82                     l26:
  2528                           
  2529                           ; BSR set to: 0
  2530                           ;../bsp/pic18f14k50/leds.c: 68:             LATCbits.LATC1 = 1;
  2531   001C82  828B               	bsf	139,1,c	;volatile
  2532                           
  2533                           ;../bsp/pic18f14k50/leds.c: 69:             break;
  2534   001C84  0012               	return	
  2535   001C86                     l27:
  2536                           
  2537                           ; BSR set to: 0
  2538                           ;../bsp/pic18f14k50/leds.c: 72:             LATCbits.LATC2 = 1;
  2539   001C86  848B               	bsf	139,2,c	;volatile
  2540                           
  2541                           ;../bsp/pic18f14k50/leds.c: 73:             break;
  2542   001C88  0012               	return	
  2543   001C8A                     l28:
  2544                           
  2545                           ; BSR set to: 0
  2546                           ;../bsp/pic18f14k50/leds.c: 76:             LATCbits.LATC3 = 1;
  2547   001C8A  868B               	bsf	139,3,c	;volatile
  2548                           
  2549                           ;../bsp/pic18f14k50/leds.c: 77:             break;
  2550   001C8C  0012               	return	
  2551   001C8E                     l5347:
  2552   001C8E  0100               	movlb	0	; () banked
  2553   001C90  5188               	movf	LED_On@led& (0+255),w,b
  2554   001C92  6F86               	movwf	??_LED_On& (0+255),b
  2555   001C94  6B87               	clrf	(??_LED_On+1)& (0+255),b
  2556                           
  2557                           ; Switch on 2 bytes has been partitioned into a top level switch of size 1, and 1 sub-sw
      +                          itches
  2558                           ; Switch size 1, requested type "simple"
  2559                           ; Number of cases is 1, Range of values is 0 to 0
  2560                           ; switch strategies available:
  2561                           ; Name         Instructions Cycles
  2562                           ; simple_byte            4     3 (average)
  2563                           ;	Chosen strategy is simple_byte
  2564   001C96  5187               	movf	(??_LED_On+1)& (0+255),w,b
  2565   001C98  0A00               	xorlw	0	; case 0
  2566   001C9A  A4D8               	btfss	status,2,c
  2567   001C9C  0012               	return	
  2568                           
  2569                           ; BSR set to: 0
  2570                           ; Switch size 1, requested type "simple"
  2571                           ; Number of cases is 5, Range of values is 0 to 4
  2572                           ; switch strategies available:
  2573                           ; Name         Instructions Cycles
  2574                           ; simple_byte           16     9 (average)
  2575                           ;	Chosen strategy is simple_byte
  2576   001C9E  5186               	movf	??_LED_On& (0+255),w,b
  2577   001CA0  0A00               	xorlw	0	; case 0
  2578   001CA2  B4D8               	btfsc	status,2,c
  2579   001CA4  0012               	return	
  2580   001CA6  0A01               	xorlw	1	; case 1
  2581   001CA8  B4D8               	btfsc	status,2,c
  2582   001CAA  D7E9               	goto	l24
  2583   001CAC  0A03               	xorlw	3	; case 2
  2584   001CAE  B4D8               	btfsc	status,2,c
  2585   001CB0  D7E8               	goto	l26
  2586   001CB2  0A01               	xorlw	1	; case 3
  2587   001CB4  B4D8               	btfsc	status,2,c
  2588   001CB6  D7E7               	goto	l27
  2589   001CB8  0A07               	xorlw	7	; case 4
  2590   001CBA  A4D8               	btfss	status,2,c
  2591   001CBC  0012               	return	
  2592   001CBE  D7E5               	goto	l28
  2593   001CC0                     __end_of_LED_On:
  2594                           	callstack 0
  2595                           
  2596 ;; *************** function _LED_Off *****************
  2597 ;; Defined at:
  2598 ;;		line 100 in file "../bsp/pic18f14k50/leds.c"
  2599 ;; Parameters:    Size  Location     Type
  2600 ;;  led             1    wreg     enum E2
  2601 ;; Auto vars:     Size  Location     Type
  2602 ;;  led             1    2[BANK0 ] enum E2
  2603 ;; Return value:  Size  Location     Type
  2604 ;;                  1    wreg      void 
  2605 ;; Registers used:
  2606 ;;		wreg, status,2, status,0
  2607 ;; Tracked objects:
  2608 ;;		On entry : 3F/2
  2609 ;;		On exit  : 3F/0
  2610 ;;		Unchanged: 0/0
  2611 ;; Data sizes:     COMRAM   BANK0   BANK1  BANK2h  BANK2l
  2612 ;;      Params:         0       0       0       0       0
  2613 ;;      Locals:         0       1       0       0       0
  2614 ;;      Temps:          0       2       0       0       0
  2615 ;;      Totals:         0       3       0       0       0
  2616 ;;Total ram usage:        3 bytes
  2617 ;; Hardware stack levels used: 1
  2618 ;; Hardware stack levels required when called: 10
  2619 ;; This function calls:
  2620 ;;		Nothing
  2621 ;; This function is called by:
  2622 ;;		_APP_KeyboardProcessOutputReport
  2623 ;; This function uses a non-reentrant model
  2624 ;;
  2625                           
  2626                           	psect	text12
  2627   001CC0                     __ptext12:
  2628                           	callstack 0
  2629   001CC0                     _LED_Off:
  2630                           	callstack 18
  2631                           
  2632                           ; BSR set to: 0
  2633                           ;incstack = 0
  2634                           ;LED_Off@led stored from wreg
  2635   001CC0  0100               	movlb	0	; () banked
  2636   001CC2  6F88               	movwf	LED_Off@led& (0+255),b
  2637                           
  2638                           ;../bsp/pic18f14k50/leds.c: 100: void LED_Off(LED led);../bsp/pic18f14k50/leds.c: 101: {
      +                          ;../bsp/pic18f14k50/leds.c: 102:     switch(led)
  2639   001CC4  D008               	goto	l5359
  2640   001CC6                     l34:
  2641                           
  2642                           ; BSR set to: 0
  2643                           ;../bsp/pic18f14k50/leds.c: 105:             LATCbits.LATC0 = 0;
  2644   001CC6  908B               	bcf	139,0,c	;volatile
  2645                           
  2646                           ;../bsp/pic18f14k50/leds.c: 106:             break;
  2647   001CC8  0012               	return	
  2648   001CCA                     l36:
  2649                           
  2650                           ; BSR set to: 0
  2651                           ;../bsp/pic18f14k50/leds.c: 109:             LATCbits.LATC1 = 0;
  2652   001CCA  928B               	bcf	139,1,c	;volatile
  2653                           
  2654                           ;../bsp/pic18f14k50/leds.c: 110:             break;
  2655   001CCC  0012               	return	
  2656   001CCE                     l37:
  2657                           
  2658                           ; BSR set to: 0
  2659                           ;../bsp/pic18f14k50/leds.c: 113:             LATCbits.LATC2 = 0;
  2660   001CCE  948B               	bcf	139,2,c	;volatile
  2661                           
  2662                           ;../bsp/pic18f14k50/leds.c: 114:             break;
  2663   001CD0  0012               	return	
  2664   001CD2                     l38:
  2665                           
  2666                           ; BSR set to: 0
  2667                           ;../bsp/pic18f14k50/leds.c: 117:             LATCbits.LATC3 = 0;
  2668   001CD2  968B               	bcf	139,3,c	;volatile
  2669                           
  2670                           ;../bsp/pic18f14k50/leds.c: 118:             break;
  2671   001CD4  0012               	return	
  2672   001CD6                     l5359:
  2673   001CD6  0100               	movlb	0	; () banked
  2674   001CD8  5188               	movf	LED_Off@led& (0+255),w,b
  2675   001CDA  6F86               	movwf	??_LED_Off& (0+255),b
  2676   001CDC  6B87               	clrf	(??_LED_Off+1)& (0+255),b
  2677                           
  2678                           ; Switch on 2 bytes has been partitioned into a top level switch of size 1, and 1 sub-sw
      +                          itches
  2679                           ; Switch size 1, requested type "simple"
  2680                           ; Number of cases is 1, Range of values is 0 to 0
  2681                           ; switch strategies available:
  2682                           ; Name         Instructions Cycles
  2683                           ; simple_byte            4     3 (average)
  2684                           ;	Chosen strategy is simple_byte
  2685   001CDE  5187               	movf	(??_LED_Off+1)& (0+255),w,b
  2686   001CE0  0A00               	xorlw	0	; case 0
  2687   001CE2  A4D8               	btfss	status,2,c
  2688   001CE4  0012               	return	
  2689                           
  2690                           ; BSR set to: 0
  2691                           ; Switch size 1, requested type "simple"
  2692                           ; Number of cases is 5, Range of values is 0 to 4
  2693                           ; switch strategies available:
  2694                           ; Name         Instructions Cycles
  2695                           ; simple_byte           16     9 (average)
  2696                           ;	Chosen strategy is simple_byte
  2697   001CE6  5186               	movf	??_LED_Off& (0+255),w,b
  2698   001CE8  0A00               	xorlw	0	; case 0
  2699   001CEA  B4D8               	btfsc	status,2,c
  2700   001CEC  0012               	return	
  2701   001CEE  0A01               	xorlw	1	; case 1
  2702   001CF0  B4D8               	btfsc	status,2,c
  2703   001CF2  D7E9               	goto	l34
  2704   001CF4  0A03               	xorlw	3	; case 2
  2705   001CF6  B4D8               	btfsc	status,2,c
  2706   001CF8  D7E8               	goto	l36
  2707   001CFA  0A01               	xorlw	1	; case 3
  2708   001CFC  B4D8               	btfsc	status,2,c
  2709   001CFE  D7E7               	goto	l37
  2710   001D00  0A07               	xorlw	7	; case 4
  2711   001D02  A4D8               	btfss	status,2,c
  2712   001D04  0012               	return	
  2713   001D06  D7E5               	goto	l38
  2714   001D08                     __end_of_LED_Off:
  2715                           	callstack 0
  2716                           
  2717 ;; *************** function _API_Timer1_start *****************
  2718 ;; Defined at:
  2719 ;;		line 57 in file "../demo_src/api_timer.c"
  2720 ;; Parameters:    Size  Location     Type
  2721 ;;		None
  2722 ;; Auto vars:     Size  Location     Type
  2723 ;;		None
  2724 ;; Return value:  Size  Location     Type
  2725 ;;                  1    wreg      void 
  2726 ;; Registers used:
  2727 ;;		None
  2728 ;; Tracked objects:
  2729 ;;		On entry : 30/0
  2730 ;;		On exit  : 30/0
  2731 ;;		Unchanged: 30/0
  2732 ;; Data sizes:     COMRAM   BANK0   BANK1  BANK2h  BANK2l
  2733 ;;      Params:         0       0       0       0       0
  2734 ;;      Locals:         0       0       0       0       0
  2735 ;;      Temps:          0       0       0       0       0
  2736 ;;      Totals:         0       0       0       0       0
  2737 ;;Total ram usage:        0 bytes
  2738 ;; Hardware stack levels used: 1
  2739 ;; Hardware stack levels required when called: 10
  2740 ;; This function calls:
  2741 ;;		Nothing
  2742 ;; This function is called by:
  2743 ;;		_main
  2744 ;; This function uses a non-reentrant model
  2745 ;;
  2746                           
  2747                           	psect	text13
  2748   002160                     __ptext13:
  2749                           	callstack 0
  2750   002160                     _API_Timer1_start:
  2751                           	callstack 20
  2752                           
  2753                           ;../demo_src/api_timer.c: 59:     T1CONbits.TMR1ON = 1;
  2754                           
  2755                           ; BSR set to: 0
  2756                           ;incstack = 0
  2757   002160  80CD               	bsf	205,0,c	;volatile
  2758   002162  0012               	return		;funcret
  2759   002164                     __end_of_API_Timer1_start:
  2760                           	callstack 0
  2761                           
  2762 ;; *************** function _API_Timer1_init *****************
  2763 ;; Defined at:
  2764 ;;		line 40 in file "../demo_src/api_timer.c"
  2765 ;; Parameters:    Size  Location     Type
  2766 ;;		None
  2767 ;; Auto vars:     Size  Location     Type
  2768 ;;		None
  2769 ;; Return value:  Size  Location     Type
  2770 ;;                  1    wreg      void 
  2771 ;; Registers used:
  2772 ;;		wreg, status,2, cstack
  2773 ;; Tracked objects:
  2774 ;;		On entry : 30/0
  2775 ;;		On exit  : 30/0
  2776 ;;		Unchanged: 30/0
  2777 ;; Data sizes:     COMRAM   BANK0   BANK1  BANK2h  BANK2l
  2778 ;;      Params:         0       0       0       0       0
  2779 ;;      Locals:         0       0       0       0       0
  2780 ;;      Temps:          0       0       0       0       0
  2781 ;;      Totals:         0       0       0       0       0
  2782 ;;Total ram usage:        0 bytes
  2783 ;; Hardware stack levels used: 1
  2784 ;; Hardware stack levels required when called: 11
  2785 ;; This function calls:
  2786 ;;		_Timer1_reset
  2787 ;; This function is called by:
  2788 ;;		_main
  2789 ;; This function uses a non-reentrant model
  2790 ;;
  2791                           
  2792                           	psect	text14
  2793   002132                     __ptext14:
  2794                           	callstack 0
  2795   002132                     _API_Timer1_init:
  2796                           	callstack 19
  2797                           
  2798                           ;../demo_src/api_timer.c: 43:     T1CON = 0b00110001;
  2799                           
  2800                           ;incstack = 0
  2801   002132  0E31               	movlw	49
  2802   002134  6ECD               	movwf	205,c	;volatile
  2803                           
  2804                           ;../demo_src/api_timer.c: 44:     Timer1_reset();
  2805   002136  ECA1  F010         	call	_Timer1_reset	;wreg free
  2806                           
  2807                           ;../demo_src/api_timer.c: 47:     PIE1bits.TMR1IE = 1;
  2808   00213A  809D               	bsf	157,0,c	;volatile
  2809                           
  2810                           ;../demo_src/api_timer.c: 48:     INTCONbits.PEIE = 1;
  2811   00213C  8CF2               	bsf	242,6,c	;volatile
  2812                           
  2813                           ;../demo_src/api_timer.c: 49:     INTCONbits.GIE = 1;
  2814   00213E  8EF2               	bsf	242,7,c	;volatile
  2815   002140  0012               	return		;funcret
  2816   002142                     __end_of_API_Timer1_init:
  2817                           	callstack 0
  2818                           
  2819 ;; *************** function _Timer1_reset *****************
  2820 ;; Defined at:
  2821 ;;		line 98 in file "../demo_src/api_timer.c"
  2822 ;; Parameters:    Size  Location     Type
  2823 ;;		None
  2824 ;; Auto vars:     Size  Location     Type
  2825 ;;		None
  2826 ;; Return value:  Size  Location     Type
  2827 ;;                  1    wreg      void 
  2828 ;; Registers used:
  2829 ;;		wreg, status,2
  2830 ;; Tracked objects:
  2831 ;;		On entry : 30/0
  2832 ;;		On exit  : 30/0
  2833 ;;		Unchanged: 30/0
  2834 ;; Data sizes:     COMRAM   BANK0   BANK1  BANK2h  BANK2l
  2835 ;;      Params:         0       0       0       0       0
  2836 ;;      Locals:         0       0       0       0       0
  2837 ;;      Temps:          0       0       0       0       0
  2838 ;;      Totals:         0       0       0       0       0
  2839 ;;Total ram usage:        0 bytes
  2840 ;; Hardware stack levels used: 1
  2841 ;; Hardware stack levels required when called: 10
  2842 ;; This function calls:
  2843 ;;		Nothing
  2844 ;; This function is called by:
  2845 ;;		_API_Timer1_init
  2846 ;; This function uses a non-reentrant model
  2847 ;;
  2848                           
  2849                           	psect	text15
  2850   002142                     __ptext15:
  2851                           	callstack 0
  2852   002142                     _Timer1_reset:
  2853                           	callstack 19
  2854                           
  2855                           ;../demo_src/api_timer.c: 100:     TMR1L = 0x24;
  2856                           
  2857                           ;incstack = 0
  2858   002142  0E24               	movlw	36
  2859   002144  6ECE               	movwf	206,c	;volatile
  2860                           
  2861                           ;../demo_src/api_timer.c: 101:     TMR1H = 0xfa;
  2862   002146  0EFA               	movlw	250
  2863   002148  6ECF               	movwf	207,c	;volatile
  2864   00214A  0012               	return		;funcret
  2865   00214C                     __end_of_Timer1_reset:
  2866                           	callstack 0
  2867                           
  2868 ;; *************** function _SYS_InterruptHigh *****************
  2869 ;; Defined at:
  2870 ;;		line 91 in file "system.c"
  2871 ;; Parameters:    Size  Location     Type
  2872 ;;		None
  2873 ;; Auto vars:     Size  Location     Type
  2874 ;;		None
  2875 ;; Return value:  Size  Location     Type
  2876 ;;                  1    wreg      void 
  2877 ;; Registers used:
  2878 ;;		wreg, fsr1l, fsr1h, fsr2l, fsr2h, status,2, status,0, pcl, pclath, pclatu, tosl, tblptrl, tblptrh, tblptru, prodl, p
      +rodh, cstack
  2879 ;; Tracked objects:
  2880 ;;		On entry : 0/0
  2881 ;;		On exit  : 0/0
  2882 ;;		Unchanged: 0/0
  2883 ;; Data sizes:     COMRAM   BANK0   BANK1  BANK2h  BANK2l
  2884 ;;      Params:         0       0       0       0       0
  2885 ;;      Locals:         0       0       0       0       0
  2886 ;;      Temps:         12       0       0       0       0
  2887 ;;      Totals:        12       0       0       0       0
  2888 ;;Total ram usage:       12 bytes
  2889 ;; Hardware stack levels used: 1
  2890 ;; Hardware stack levels required when called: 9
  2891 ;; This function calls:
  2892 ;;		_API_Timer1_interrupt
  2893 ;;		_USBDeviceTasks
  2894 ;; This function is called by:
  2895 ;;		Interrupt level 2
  2896 ;; This function uses a non-reentrant model
  2897 ;;
  2898                           
  2899                           	psect	intcode
  2900   000008                     __pintcode:
  2901                           	callstack 0
  2902   000008                     _SYS_InterruptHigh:
  2903                           	callstack 18
  2904                           
  2905                           ;incstack = 0
  2906   000008  825B               	bsf	btemp,1,c	;set compiler interrupt flag (level 2)
  2907   00000A  CFFA F04F          	movff	pclath,??_SYS_InterruptHigh
  2908   00000E  CFFB F050          	movff	pclatu,??_SYS_InterruptHigh+1
  2909   000012  CFE1 F051          	movff	fsr1l,??_SYS_InterruptHigh+2
  2910   000016  CFE2 F052          	movff	fsr1h,??_SYS_InterruptHigh+3
  2911   00001A  CFD9 F053          	movff	fsr2l,??_SYS_InterruptHigh+4
  2912   00001E  CFDA F054          	movff	fsr2h,??_SYS_InterruptHigh+5
  2913   000022  CFF3 F055          	movff	prodl,??_SYS_InterruptHigh+6
  2914   000026  CFF4 F056          	movff	prodh,??_SYS_InterruptHigh+7
  2915   00002A  CFF6 F057          	movff	tblptrl,??_SYS_InterruptHigh+8
  2916   00002E  CFF7 F058          	movff	tblptrh,??_SYS_InterruptHigh+9
  2917   000032  CFF8 F059          	movff	tblptru,??_SYS_InterruptHigh+10
  2918   000036  CFF5 F05A          	movff	tablat,??_SYS_InterruptHigh+11
  2919                           
  2920                           ;system.c: 93:     if(PIR1bits.TMR1IF == 1)
  2921   00003A  B09E               	btfsc	158,0,c	;volatile
  2922                           
  2923                           ;system.c: 94:     {;system.c: 95:         API_Timer1_interrupt();
  2924   00003C  EC3F  F010         	call	_API_Timer1_interrupt	;wreg free
  2925                           
  2926                           ;system.c: 98:     USBDeviceTasks();
  2927   000040  EC42  F007         	call	_USBDeviceTasks	;wreg free
  2928   000044  C05A  FFF5         	movff	??_SYS_InterruptHigh+11,tablat
  2929   000048  C059  FFF8         	movff	??_SYS_InterruptHigh+10,tblptru
  2930   00004C  C058  FFF7         	movff	??_SYS_InterruptHigh+9,tblptrh
  2931   000050  C057  FFF6         	movff	??_SYS_InterruptHigh+8,tblptrl
  2932   000054  C056  FFF4         	movff	??_SYS_InterruptHigh+7,prodh
  2933   000058  C055  FFF3         	movff	??_SYS_InterruptHigh+6,prodl
  2934   00005C  C054  FFDA         	movff	??_SYS_InterruptHigh+5,fsr2h
  2935   000060  C053  FFD9         	movff	??_SYS_InterruptHigh+4,fsr2l
  2936   000064  C052  FFE2         	movff	??_SYS_InterruptHigh+3,fsr1h
  2937   000068  C051  FFE1         	movff	??_SYS_InterruptHigh+2,fsr1l
  2938   00006C  C050  FFFB         	movff	??_SYS_InterruptHigh+1,pclatu
  2939   000070  C04F  FFFA         	movff	??_SYS_InterruptHigh,pclath
  2940   000074  925B               	bcf	btemp,1,c	;clear compiler interrupt flag (level 2)
  2941   000076  0011               	retfie		f
  2942   000078                     __end_of_SYS_InterruptHigh:
  2943                           	callstack 0
  2944                           
  2945 ;; *************** function _USBDeviceTasks *****************
  2946 ;; Defined at:
  2947 ;;		line 481 in file "../framework/usb/src/usb_device.c"
  2948 ;; Parameters:    Size  Location     Type
  2949 ;;		None
  2950 ;; Auto vars:     Size  Location     Type
  2951 ;;  i               1   32[COMRAM] unsigned char 
  2952 ;; Return value:  Size  Location     Type
  2953 ;;                  1    wreg      void 
  2954 ;; Registers used:
  2955 ;;		wreg, fsr1l, fsr1h, fsr2l, fsr2h, status,2, status,0, pcl, pclath, pclatu, tosl, tblptrl, tblptrh, tblptru, prodl, p
      +rodh, cstack
  2956 ;; Tracked objects:
  2957 ;;		On entry : 0/0
  2958 ;;		On exit  : 0/0
  2959 ;;		Unchanged: 0/0
  2960 ;; Data sizes:     COMRAM   BANK0   BANK1  BANK2h  BANK2l
  2961 ;;      Params:         0       0       0       0       0
  2962 ;;      Locals:         1       0       0       0       0
  2963 ;;      Temps:          0       0       0       0       0
  2964 ;;      Totals:         1       0       0       0       0
  2965 ;;Total ram usage:        1 bytes
  2966 ;; Hardware stack levels used: 1
  2967 ;; Hardware stack levels required when called: 8
  2968 ;; This function calls:
  2969 ;;		_USBCtrlEPAllowStatusStage
  2970 ;;		_USBCtrlEPService
  2971 ;;		_USBIncrement1msInternalTimers
  2972 ;;		_USBStallHandler
  2973 ;;		_USBSuspend
  2974 ;;		_USBWakeFromSuspend
  2975 ;;		_USER_USB_CALLBACK_EVENT_HANDLER
  2976 ;;		i2_USBDeviceInit
  2977 ;; This function is called by:
  2978 ;;		_SYS_InterruptHigh
  2979 ;; This function uses a non-reentrant model
  2980 ;;
  2981                           
  2982                           	psect	text17
  2983   000E84                     __ptext17:
  2984                           	callstack 0
  2985   000E84                     _USBDeviceTasks:
  2986                           	callstack 18
  2987                           
  2988                           ;../framework/usb/src/usb_device.c: 483:     uint8_t i;;../framework/usb/src/usb_device.
      +                          c: 594:     if(USBDeviceState == ATTACHED_STATE)
  2989                           
  2990                           ;incstack = 0
  2991   000E84  042A               	decf	_USBDeviceState^0,w,c
  2992   000E86  B4D8               	btfsc	status,2,c
  2993                           
  2994                           ;../framework/usb/src/usb_device.c: 595:     {;../framework/usb/src/usb_device.c: 605:  
      +                                 if(!UCONbits.SE0)
  2995   000E88  BA64               	btfsc	100,5,c	;volatile
  2996   000E8A  D006               	goto	i2l4661
  2997                           
  2998                           ;../framework/usb/src/usb_device.c: 606:         {;../framework/usb/src/usb_device.c: 61
      +                          2:                 {UIR = 0;};
  2999   000E8C  0E00               	movlw	0
  3000   000E8E  6E62               	movwf	98,c	;volatile
  3001                           
  3002                           ;../framework/usb/src/usb_device.c: 618:             UIEbits.URSTIE = 1;
  3003   000E90  8060               	bsf	96,0,c	;volatile
  3004                           
  3005                           ;../framework/usb/src/usb_device.c: 619:             UIEbits.IDLEIE = 1;
  3006   000E92  8860               	bsf	96,4,c	;volatile
  3007                           
  3008                           ;../framework/usb/src/usb_device.c: 620:             USBDeviceState = POWERED_STATE;
  3009   000E94  0E02               	movlw	2
  3010   000E96  6E2A               	movwf	_USBDeviceState^0,c	;volatile
  3011   000E98                     i2l4661:
  3012                           
  3013                           ;../framework/usb/src/usb_device.c: 638:     if(UIRbits.ACTVIF && UIEbits.ACTVIE)
  3014   000E98  B462               	btfsc	98,2,c	;volatile
  3015   000E9A  A460               	btfss	96,2,c	;volatile
  3016   000E9C  D003               	goto	i2l4669
  3017                           
  3018                           ;../framework/usb/src/usb_device.c: 639:     {;../framework/usb/src/usb_device.c: 640:  
      +                                 (UIR &= 0xFB);
  3019   000E9E  9462               	bcf	98,2,c	;volatile
  3020                           
  3021                           ;../framework/usb/src/usb_device.c: 644:             USBWakeFromSuspend();
  3022   000EA0  ECC1  F00F         	call	_USBWakeFromSuspend	;wreg free
  3023   000EA4                     i2l4669:
  3024                           
  3025                           ;../framework/usb/src/usb_device.c: 651:     if(UCONbits.SUSPND==1)
  3026   000EA4  A264               	btfss	100,1,c	;volatile
  3027   000EA6  D002               	goto	i2l338
  3028                           
  3029                           ;../framework/usb/src/usb_device.c: 652:     {;../framework/usb/src/usb_device.c: 653:  
      +                                 {PIR2bits.USBIF = 0;};
  3030   000EA8  94A1               	bcf	161,2,c	;volatile
  3031                           
  3032                           ;../framework/usb/src/usb_device.c: 654:         return;
  3033   000EAA  0012               	return	
  3034   000EAC                     i2l338:
  3035                           
  3036                           ;../framework/usb/src/usb_device.c: 667:     if(UIRbits.URSTIF && UIEbits.URSTIE)
  3037   000EAC  B062               	btfsc	98,0,c	;volatile
  3038   000EAE  A060               	btfss	96,0,c	;volatile
  3039   000EB0  D006               	goto	i2l4683
  3040                           
  3041                           ;../framework/usb/src/usb_device.c: 668:     {;../framework/usb/src/usb_device.c: 669:  
      +                                 USBDeviceInit();
  3042   000EB2  EC20  F006         	call	i2_USBDeviceInit	;wreg free
  3043                           
  3044                           ; BSR set to: 0
  3045                           ;../framework/usb/src/usb_device.c: 673:         {PIE2bits.USBIE = 1;};
  3046   000EB6  84A0               	bsf	160,2,c	;volatile
  3047                           
  3048                           ; BSR set to: 0
  3049                           ;../framework/usb/src/usb_device.c: 675:         USBDeviceState = DEFAULT_STATE;
  3050   000EB8  0E04               	movlw	4
  3051   000EBA  6E2A               	movwf	_USBDeviceState^0,c	;volatile
  3052                           
  3053                           ; BSR set to: 0
  3054                           ;../framework/usb/src/usb_device.c: 685:         (UIR &= 0xFE);
  3055   000EBC  9062               	bcf	98,0,c	;volatile
  3056   000EBE                     i2l4683:
  3057                           
  3058                           ;../framework/usb/src/usb_device.c: 691:     if(UIRbits.IDLEIF && UIEbits.IDLEIE)
  3059   000EBE  B862               	btfsc	98,4,c	;volatile
  3060   000EC0  A860               	btfss	96,4,c	;volatile
  3061   000EC2  D002               	goto	i2l4689
  3062                           
  3063                           ;../framework/usb/src/usb_device.c: 692:     {;../framework/usb/src/usb_device.c: 698:  
      +                                     USBSuspend();
  3064   000EC4  ECF4  F00F         	call	_USBSuspend	;wreg free
  3065   000EC8                     i2l4689:
  3066                           
  3067                           ;../framework/usb/src/usb_device.c: 712:     if(UIRbits.SOFIF)
  3068   000EC8  AC62               	btfss	98,6,c	;volatile
  3069   000ECA  D01A               	goto	i2l4707
  3070                           
  3071                           ;../framework/usb/src/usb_device.c: 713:     {;../framework/usb/src/usb_device.c: 715:  
      +                                 if(UIEbits.SOFIE)
  3072   000ECC  AC60               	btfss	96,6,c	;volatile
  3073   000ECE  D00E               	goto	i2l4695
  3074                           
  3075                           ;../framework/usb/src/usb_device.c: 716:         {;../framework/usb/src/usb_device.c: 71
      +                          7:             USER_USB_CALLBACK_EVENT_HANDLER((USB_EVENT)EVENT_SOF,0,1);
  3076   000ED0  0E00               	movlw	0
  3077   000ED2  6E3D               	movwf	(USER_USB_CALLBACK_EVENT_HANDLER@event+1)^0,c
  3078   000ED4  0E73               	movlw	115
  3079   000ED6  6E3C               	movwf	USER_USB_CALLBACK_EVENT_HANDLER@event^0,c
  3080   000ED8  0E00               	movlw	0
  3081   000EDA  6E3E               	movwf	USER_USB_CALLBACK_EVENT_HANDLER@pdata^0,c
  3082   000EDC  0E00               	movlw	0
  3083   000EDE  6E3F               	movwf	(USER_USB_CALLBACK_EVENT_HANDLER@pdata+1)^0,c
  3084   000EE0  0E00               	movlw	0
  3085   000EE2  6E41               	movwf	(USER_USB_CALLBACK_EVENT_HANDLER@size+1)^0,c
  3086   000EE4  0E01               	movlw	1
  3087   000EE6  6E40               	movwf	USER_USB_CALLBACK_EVENT_HANDLER@size^0,c
  3088   000EE8  EC00  F00C         	call	_USER_USB_CALLBACK_EVENT_HANDLER	;wreg free
  3089   000EEC                     i2l4695:
  3090                           
  3091                           ;../framework/usb/src/usb_device.c: 719:         (UIR &= 0xBF);
  3092   000EEC  9C62               	bcf	98,6,c	;volatile
  3093                           
  3094                           ;../framework/usb/src/usb_device.c: 722:             USBIncrement1msInternalTimers();
  3095   000EEE  EC2F  F010         	call	_USBIncrement1msInternalTimers	;wreg free
  3096                           
  3097                           ; BSR set to: 0
  3098                           ;../framework/usb/src/usb_device.c: 739:             if(USBStatusStageTimeoutCounter != 
      +                          0u)
  3099   000EF2  5024               	movf	_USBStatusStageTimeoutCounter^0,w,c
  3100   000EF4  A4D8               	btfss	status,2,c
  3101                           
  3102                           ; BSR set to: 0
  3103                           ;../framework/usb/src/usb_device.c: 740:             {;../framework/usb/src/usb_device.c
      +                          : 741:                 USBStatusStageTimeoutCounter--;
  3104   000EF6  0624               	decf	_USBStatusStageTimeoutCounter^0,f,c	;volatile
  3105                           
  3106                           ; BSR set to: 0
  3107                           ;../framework/usb/src/usb_device.c: 748:             if(USBStatusStageTimeoutCounter == 
      +                          0)
  3108   000EF8  5024               	movf	_USBStatusStageTimeoutCounter^0,w,c	;volatile
  3109   000EFA  B4D8               	btfsc	status,2,c
  3110                           
  3111                           ; BSR set to: 0
  3112                           ;../framework/usb/src/usb_device.c: 749:             {;../framework/usb/src/usb_device.c
      +                          : 750:                 USBCtrlEPAllowStatusStage();
  3113   000EFC  EC4C  F00B         	call	_USBCtrlEPAllowStatusStage	;wreg free
  3114   000F00                     i2l4707:
  3115                           
  3116                           ;../framework/usb/src/usb_device.c: 755:     if(UIRbits.STALLIF && UIEbits.STALLIE)
  3117   000F00  BA62               	btfsc	98,5,c	;volatile
  3118   000F02  AA60               	btfss	96,5,c	;volatile
  3119   000F04  D002               	goto	i2l4713
  3120                           
  3121                           ;../framework/usb/src/usb_device.c: 756:     {;../framework/usb/src/usb_device.c: 757:  
      +                                 USBStallHandler();
  3122   000F06  EC84  F00E         	call	_USBStallHandler	;wreg free
  3123   000F0A                     i2l4713:
  3124                           
  3125                           ;../framework/usb/src/usb_device.c: 760:     if(UIRbits.UERRIF && UIEbits.UERRIE)
  3126   000F0A  B262               	btfsc	98,1,c	;volatile
  3127   000F0C  A260               	btfss	96,1,c	;volatile
  3128   000F0E  D010               	goto	i2l4721
  3129                           
  3130                           ;../framework/usb/src/usb_device.c: 761:     {;../framework/usb/src/usb_device.c: 762:  
      +                                 USER_USB_CALLBACK_EVENT_HANDLER((USB_EVENT)EVENT_BUS_ERROR,0,1);
  3131   000F10  0E7F               	movlw	127
  3132   000F12  6E3D               	movwf	(USER_USB_CALLBACK_EVENT_HANDLER@event+1)^0,c
  3133   000F14  683C               	setf	USER_USB_CALLBACK_EVENT_HANDLER@event^0,c
  3134   000F16  0E00               	movlw	0
  3135   000F18  6E3E               	movwf	USER_USB_CALLBACK_EVENT_HANDLER@pdata^0,c
  3136   000F1A  0E00               	movlw	0
  3137   000F1C  6E3F               	movwf	(USER_USB_CALLBACK_EVENT_HANDLER@pdata+1)^0,c
  3138   000F1E  0E00               	movlw	0
  3139   000F20  6E41               	movwf	(USER_USB_CALLBACK_EVENT_HANDLER@size+1)^0,c
  3140   000F22  0E01               	movlw	1
  3141   000F24  6E40               	movwf	USER_USB_CALLBACK_EVENT_HANDLER@size^0,c
  3142   000F26  EC00  F00C         	call	_USER_USB_CALLBACK_EVENT_HANDLER	;wreg free
  3143                           
  3144                           ;../framework/usb/src/usb_device.c: 763:         {UEIR = 0;};
  3145   000F2A  0E00               	movlw	0
  3146   000F2C  010F               	movlb	15	; () banked
  3147   000F2E  6F5F               	movwf	95,b	;volatile
  3148   000F30                     i2l4721:
  3149                           
  3150                           ;../framework/usb/src/usb_device.c: 778:     if(USBDeviceState < DEFAULT_STATE)
  3151   000F30  0E04               	movlw	4
  3152   000F32  602A               	cpfslt	_USBDeviceState^0,c
  3153   000F34  D002               	goto	i2l348
  3154                           
  3155                           ;../framework/usb/src/usb_device.c: 779:     {;../framework/usb/src/usb_device.c: 780:  
      +                                 {PIR2bits.USBIF = 0;};
  3156   000F36  94A1               	bcf	161,2,c	;volatile
  3157                           
  3158                           ;../framework/usb/src/usb_device.c: 781:         return;
  3159   000F38  0012               	return	
  3160   000F3A                     i2l348:
  3161                           
  3162                           ;../framework/usb/src/usb_device.c: 787:     if(UIEbits.TRNIE)
  3163   000F3A  A660               	btfss	96,3,c	;volatile
  3164   000F3C  D02D               	goto	i2u315_40
  3165                           
  3166                           ;../framework/usb/src/usb_device.c: 788:     {;../framework/usb/src/usb_device.c: 789:  
      +                                 for(i = 0; i < 4u; i++)
  3167   000F3E  0E00               	movlw	0
  3168   000F40  6E4E               	movwf	USBDeviceTasks@i^0,c
  3169   000F42                     i2l350:
  3170                           
  3171                           ;../framework/usb/src/usb_device.c: 790:         {;../framework/usb/src/usb_device.c: 79
      +                          1:             if(UIRbits.TRNIF)
  3172   000F42  A662               	btfss	98,3,c	;volatile
  3173   000F44  D029               	goto	i2u315_40
  3174                           
  3175                           ;../framework/usb/src/usb_device.c: 792:             {;../framework/usb/src/usb_device.c
      +                          : 794:                 USTATcopy.Val = USTAT;
  3176   000F46  CF63 F02B          	movff	3939,_USTATcopy	;volatile
  3177                           
  3178                           ;../framework/usb/src/usb_device.c: 795:                 endpoint_number = USTATcopy.end
      +                          point_number;
  3179   000F4A  302B               	rrcf	_USTATcopy^0,w,c	;volatile
  3180   000F4C  32E8               	rrcf	wreg,f,c
  3181   000F4E  32E8               	rrcf	wreg,f,c
  3182   000F50  0B0F               	andlw	15
  3183   000F52  6E25               	movwf	_endpoint_number^0,c	;volatile
  3184                           
  3185                           ;../framework/usb/src/usb_device.c: 797:                 (UIR &= 0xF7);
  3186   000F54  9662               	bcf	98,3,c	;volatile
  3187                           
  3188                           ;../framework/usb/src/usb_device.c: 802:                 if(USTATcopy.direction == 0)
  3189   000F56  B42B               	btfsc	_USTATcopy^0,2,c	;volatile
  3190   000F58  D003               	goto	i2l4741
  3191                           
  3192                           ;../framework/usb/src/usb_device.c: 803:                 {;../framework/usb/src/usb_devi
      +                          ce.c: 804:                     ep_data_out[endpoint_number].bits.ping_pong_state ^= 1;
  3193   000F5A  5025               	movf	_endpoint_number^0,w,c
  3194   000F5C  0F19               	addlw	low _ep_data_out
  3195   000F5E  D002               	goto	L3
  3196   000F60                     i2l4741:
  3197                           
  3198                           ;../framework/usb/src/usb_device.c: 807:                 {;../framework/usb/src/usb_devi
      +                          ce.c: 808:                     ep_data_in[endpoint_number].bits.ping_pong_state ^= 1;
  3199   000F60  5025               	movf	_endpoint_number^0,w,c
  3200   000F62  0F1B               	addlw	low _ep_data_in
  3201   000F64                     L3:
  3202   000F64  6ED9               	movwf	fsr2l,c
  3203   000F66  6ADA               	clrf	fsr2h,c
  3204   000F68  70DF               	btg	indf2,0,c
  3205                           
  3206                           ;../framework/usb/src/usb_device.c: 814:                 if(endpoint_number == 0)
  3207   000F6A  5025               	movf	_endpoint_number^0,w,c	;volatile
  3208   000F6C  A4D8               	btfss	status,2,c
  3209   000F6E  D003               	goto	i2l4747
  3210                           
  3211                           ;../framework/usb/src/usb_device.c: 815:                 {;../framework/usb/src/usb_devi
      +                          ce.c: 816:                     USBCtrlEPService();
  3212   000F70  EC4C  F00C         	call	_USBCtrlEPService	;wreg free
  3213                           
  3214                           ;../framework/usb/src/usb_device.c: 817:                 }
  3215   000F74  D00D               	goto	i2l4749
  3216   000F76                     i2l4747:
  3217                           
  3218                           ;../framework/usb/src/usb_device.c: 819:                 {;../framework/usb/src/usb_devi
      +                          ce.c: 820:                     USER_USB_CALLBACK_EVENT_HANDLER((USB_EVENT)EVENT_TRANSFER
      +                          ,(uint8_t*)&USTATcopy.Val,0);
  3219   000F76  0E00               	movlw	0
  3220   000F78  6E3D               	movwf	(USER_USB_CALLBACK_EVENT_HANDLER@event+1)^0,c
  3221   000F7A  0E72               	movlw	114
  3222   000F7C  6E3C               	movwf	USER_USB_CALLBACK_EVENT_HANDLER@event^0,c
  3223   000F7E  0E2B               	movlw	low _USTATcopy
  3224   000F80  6E3E               	movwf	USER_USB_CALLBACK_EVENT_HANDLER@pdata^0,c
  3225   000F82  6A3F               	clrf	(USER_USB_CALLBACK_EVENT_HANDLER@pdata+1)^0,c
  3226   000F84  0E00               	movlw	0
  3227   000F86  6E41               	movwf	(USER_USB_CALLBACK_EVENT_HANDLER@size+1)^0,c
  3228   000F88  0E00               	movlw	0
  3229   000F8A  6E40               	movwf	USER_USB_CALLBACK_EVENT_HANDLER@size^0,c
  3230   000F8C  EC00  F00C         	call	_USER_USB_CALLBACK_EVENT_HANDLER	;wreg free
  3231   000F90                     i2l4749:
  3232                           
  3233                           ;../framework/usb/src/usb_device.c: 827:         }
  3234   000F90  2A4E               	incf	USBDeviceTasks@i^0,f,c
  3235   000F92  0E03               	movlw	3
  3236   000F94  644E               	cpfsgt	USBDeviceTasks@i^0,c
  3237   000F96  D7D5               	goto	i2l350
  3238   000F98                     i2u315_40:
  3239                           
  3240                           ;../framework/usb/src/usb_device.c: 830:     {PIR2bits.USBIF = 0;};
  3241                           
  3242                           ;../framework/usb/src/usb_device.c: 828:     }
  3243   000F98  94A1               	bcf	161,2,c	;volatile
  3244   000F9A  0012               	return		;funcret
  3245   000F9C                     __end_of_USBDeviceTasks:
  3246                           	callstack 0
  3247                           
  3248 ;; *************** function i2_USBDeviceInit *****************
  3249 ;; Defined at:
  3250 ;;		line 281 in file "../framework/usb/src/usb_device.c"
  3251 ;; Parameters:    Size  Location     Type
  3252 ;;		None
  3253 ;; Auto vars:     Size  Location     Type
  3254 ;;  i               1   12[COMRAM] unsigned char 
  3255 ;; Return value:  Size  Location     Type
  3256 ;;                  1    wreg      void 
  3257 ;; Registers used:
  3258 ;;		wreg, fsr2l, fsr2h, status,2, status,0, prodl, prodh, cstack
  3259 ;; Tracked objects:
  3260 ;;		On entry : 0/0
  3261 ;;		On exit  : 3F/0
  3262 ;;		Unchanged: 0/0
  3263 ;; Data sizes:     COMRAM   BANK0   BANK1  BANK2h  BANK2l
  3264 ;;      Params:         0       0       0       0       0
  3265 ;;      Locals:         1       0       0       0       0
  3266 ;;      Temps:          0       0       0       0       0
  3267 ;;      Totals:         1       0       0       0       0
  3268 ;;Total ram usage:        1 bytes
  3269 ;; Hardware stack levels used: 1
  3270 ;; Hardware stack levels required when called: 1
  3271 ;; This function calls:
  3272 ;;		i2_memset
  3273 ;; This function is called by:
  3274 ;;		_USBDeviceTasks
  3275 ;; This function uses a non-reentrant model
  3276 ;;
  3277                           
  3278                           	psect	text18
  3279   000C40                     __ptext18:
  3280                           	callstack 0
  3281   000C40                     i2_USBDeviceInit:
  3282                           	callstack 24
  3283                           
  3284                           ;../framework/usb/src/usb_device.c: 283:     uint8_t i;;../framework/usb/src/usb_device.
      +                          c: 285:     {PIE2bits.USBIE = 0;};
  3285                           
  3286                           ;incstack = 0
  3287   000C40  94A0               	bcf	160,2,c	;volatile
  3288                           
  3289                           ;../framework/usb/src/usb_device.c: 292:     {UEIR = 0;};
  3290   000C42  0E00               	movlw	0
  3291   000C44  010F               	movlb	15	; () banked
  3292   000C46  6F5F               	movwf	95,b	;volatile
  3293                           
  3294                           ;../framework/usb/src/usb_device.c: 295:     {UIR = 0;};
  3295   000C48  0E00               	movlw	0
  3296   000C4A  6E62               	movwf	98,c	;volatile
  3297                           
  3298                           ;../framework/usb/src/usb_device.c: 298:     UEP0 = 0;
  3299   000C4C  0E00               	movlw	0
  3300   000C4E  6F53               	movwf	83,b	;volatile
  3301                           
  3302                           ; BSR set to: 15
  3303                           ;../framework/usb/src/usb_device.c: 300:     memset((void*)&UEP1,0x00,(1));;
  3304   000C50  0E54               	movlw	84
  3305   000C52  6E2E               	movwf	i2memset@dest^0,c
  3306   000C54  0E0F               	movlw	15
  3307   000C56  6E2F               	movwf	(i2memset@dest+1)^0,c
  3308   000C58  0E00               	movlw	0
  3309   000C5A  6E31               	movwf	(i2memset@c+1)^0,c
  3310   000C5C  0E00               	movlw	0
  3311   000C5E  6E30               	movwf	i2memset@c^0,c
  3312   000C60  0E00               	movlw	0
  3313   000C62  6E33               	movwf	(i2memset@n+1)^0,c
  3314   000C64  0E01               	movlw	1
  3315   000C66  6E32               	movwf	i2memset@n^0,c
  3316   000C68  EC5D  F004         	call	i2_memset	;wreg free
  3317                           
  3318                           ;../framework/usb/src/usb_device.c: 302:     { UCFG = 0x10 | 0x00 | 0x04 | 0x02; UEIE = 
      +                          0x9F; UIE = 0x39 | 0x40 | 0x02; };
  3319   000C6C  0E16               	movlw	22
  3320   000C6E  6E61               	movwf	97,c	;volatile
  3321   000C70  0E9F               	movlw	159
  3322   000C72  010F               	movlb	15	; () banked
  3323   000C74  6F5B               	movwf	91,b	;volatile
  3324                           
  3325                           ; BSR set to: 15
  3326   000C76  0E7B               	movlw	123
  3327   000C78  6E60               	movwf	96,c	;volatile
  3328                           
  3329                           ; BSR set to: 15
  3330                           ;../framework/usb/src/usb_device.c: 311:     for(i = 0; i < (sizeof(BDT)/sizeof(BDT_ENTR
      +                          Y)); i++)
  3331   000C7A  0E00               	movlw	0
  3332   000C7C  6E3A               	movwf	i2USBDeviceInit@i^0,c
  3333   000C7E                     i2l4503:
  3334                           
  3335                           ;../framework/usb/src/usb_device.c: 312:     {;../framework/usb/src/usb_device.c: 313:  
      +                                 BDT[i].Val = 0x00;
  3336   000C7E  503A               	movf	i2USBDeviceInit@i^0,w,c
  3337   000C80  0D04               	mullw	4
  3338   000C82  0E00               	movlw	0
  3339   000C84  24F3               	addwf	243,w,c
  3340   000C86  6ED9               	movwf	fsr2l,c
  3341   000C88  0E02               	movlw	2
  3342   000C8A  20F4               	addwfc	prodh,w,c
  3343   000C8C  6EDA               	movwf	fsr2h,c
  3344   000C8E  6ADE               	clrf	postinc2,c
  3345   000C90  6ADE               	clrf	postinc2,c
  3346   000C92  6ADE               	clrf	postinc2,c
  3347   000C94  6ADD               	clrf	postdec2,c
  3348                           
  3349                           ;../framework/usb/src/usb_device.c: 314:     }
  3350   000C96  2A3A               	incf	i2USBDeviceInit@i^0,f,c
  3351   000C98  0E07               	movlw	7
  3352   000C9A  643A               	cpfsgt	i2USBDeviceInit@i^0,c
  3353   000C9C  D7F0               	goto	i2l4503
  3354                           
  3355                           ;../framework/usb/src/usb_device.c: 317:     UCONbits.PPBRST = 1;
  3356   000C9E  8C64               	bsf	100,6,c	;volatile
  3357                           
  3358                           ;../framework/usb/src/usb_device.c: 320:     UADDR = 0x00;
  3359   000CA0  0E00               	movlw	0
  3360   000CA2  010F               	movlb	15	; () banked
  3361   000CA4  6F5C               	movwf	92,b	;volatile
  3362                           
  3363                           ; BSR set to: 15
  3364                           ;../framework/usb/src/usb_device.c: 323:     UCONbits.PKTDIS = 0;
  3365   000CA6  9864               	bcf	100,4,c	;volatile
  3366                           
  3367                           ; BSR set to: 15
  3368                           ;../framework/usb/src/usb_device.c: 326:     UCONbits.PPBRST = 0;
  3369   000CA8  9C64               	bcf	100,6,c	;volatile
  3370   000CAA                     i2l4515:
  3371                           
  3372                           ;../framework/usb/src/usb_device.c: 330:     {;../framework/usb/src/usb_device.c: 331:  
      +                                 (UIR &= 0xF7);
  3373   000CAA  9662               	bcf	98,3,c	;volatile
  3374                           
  3375                           ;../framework/usb/src/usb_device.c: 333:         inPipes[0].info.Val = 0;
  3376   000CAC  0E00               	movlw	0
  3377   000CAE  6E0C               	movwf	(_inPipes+3)^0,c	;volatile
  3378                           
  3379                           ;../framework/usb/src/usb_device.c: 334:         outPipes[0].info.Val = 0;
  3380   000CB0  0E00               	movlw	0
  3381   000CB2  6E04               	movwf	(_outPipes+3)^0,c	;volatile
  3382                           
  3383                           ;../framework/usb/src/usb_device.c: 335:         outPipes[0].wCount.Val = 0;
  3384   000CB4  0E00               	movlw	0
  3385   000CB6  6E06               	movwf	(_outPipes+5)^0,c	;volatile
  3386   000CB8  0E00               	movlw	0
  3387   000CBA  6E05               	movwf	(_outPipes+4)^0,c	;volatile
  3388                           
  3389                           ;../framework/usb/src/usb_device.c: 336:     }while(UIRbits.TRNIF == 1);
  3390   000CBC  B662               	btfsc	98,3,c	;volatile
  3391   000CBE  D7F5               	goto	i2l4515
  3392                           
  3393                           ;../framework/usb/src/usb_device.c: 340:     USBStatusStageEnabledFlag1 = 1;
  3394   000CC0  0E01               	movlw	1
  3395   000CC2  0100               	movlb	0	; () banked
  3396   000CC4  6F82               	movwf	_USBStatusStageEnabledFlag1& (0+255),b	;volatile
  3397                           
  3398                           ;../framework/usb/src/usb_device.c: 341:     USBStatusStageEnabledFlag2 = 1;
  3399   000CC6  0E01               	movlw	1
  3400   000CC8  6F81               	movwf	_USBStatusStageEnabledFlag2& (0+255),b	;volatile
  3401                           
  3402                           ;../framework/usb/src/usb_device.c: 343:     USBDeferINDataStagePackets = 0;
  3403   000CCA  0E00               	movlw	0
  3404   000CCC  6F80               	movwf	_USBDeferINDataStagePackets& (0+255),b	;volatile
  3405                           
  3406                           ;../framework/usb/src/usb_device.c: 344:     USBDeferOUTDataStagePackets = 0;
  3407   000CCE  0E00               	movlw	0
  3408   000CD0  6F7F               	movwf	_USBDeferOUTDataStagePackets& (0+255),b	;volatile
  3409                           
  3410                           ;../framework/usb/src/usb_device.c: 345:     USBBusIsSuspended = 0;
  3411   000CD2  0E00               	movlw	0
  3412   000CD4  6E26               	movwf	_USBBusIsSuspended^0,c	;volatile
  3413                           
  3414                           ;../framework/usb/src/usb_device.c: 349:     for(i = 0; i < (uint8_t)(1 +1u); i++)
  3415   000CD6  0E00               	movlw	0
  3416   000CD8  6E3A               	movwf	i2USBDeviceInit@i^0,c
  3417   000CDA                     i2l4531:
  3418                           
  3419                           ;../framework/usb/src/usb_device.c: 350:     {;../framework/usb/src/usb_device.c: 351:  
      +                                 pBDTEntryIn[i] = 0u;
  3420   000CDA  503A               	movf	i2USBDeviceInit@i^0,w,c
  3421   000CDC  0D02               	mullw	2
  3422   000CDE  50F3               	movf	243,w,c
  3423   000CE0  0F0F               	addlw	low _pBDTEntryIn
  3424   000CE2  6ED9               	movwf	fsr2l,c
  3425   000CE4  6ADA               	clrf	fsr2h,c
  3426   000CE6  0E00               	movlw	0
  3427   000CE8  6EDE               	movwf	postinc2,c
  3428   000CEA  0E00               	movlw	0
  3429   000CEC  6EDD               	movwf	postdec2,c
  3430                           
  3431                           ;../framework/usb/src/usb_device.c: 352:         pBDTEntryOut[i] = 0u;
  3432   000CEE  503A               	movf	i2USBDeviceInit@i^0,w,c
  3433   000CF0  0D02               	mullw	2
  3434   000CF2  50F3               	movf	243,w,c
  3435   000CF4  0F13               	addlw	low _pBDTEntryOut
  3436   000CF6  6ED9               	movwf	fsr2l,c
  3437   000CF8  6ADA               	clrf	fsr2h,c
  3438   000CFA  0E00               	movlw	0
  3439   000CFC  6EDE               	movwf	postinc2,c
  3440   000CFE  0E00               	movlw	0
  3441   000D00  6EDD               	movwf	postdec2,c
  3442                           
  3443                           ;../framework/usb/src/usb_device.c: 353:         ep_data_in[i].Val = 0u;
  3444   000D02  503A               	movf	i2USBDeviceInit@i^0,w,c
  3445   000D04  0F1B               	addlw	low _ep_data_in
  3446   000D06  6ED9               	movwf	fsr2l,c
  3447   000D08  6ADA               	clrf	fsr2h,c
  3448   000D0A  0E00               	movlw	0
  3449   000D0C  6EDF               	movwf	indf2,c
  3450                           
  3451                           ;../framework/usb/src/usb_device.c: 354:         ep_data_out[i].Val = 0u;
  3452   000D0E  503A               	movf	i2USBDeviceInit@i^0,w,c
  3453   000D10  0F19               	addlw	low _ep_data_out
  3454   000D12  6ED9               	movwf	fsr2l,c
  3455   000D14  6ADA               	clrf	fsr2h,c
  3456   000D16  0E00               	movlw	0
  3457   000D18  6EDF               	movwf	indf2,c
  3458                           
  3459                           ;../framework/usb/src/usb_device.c: 355:     }
  3460   000D1A  2A3A               	incf	i2USBDeviceInit@i^0,f,c
  3461   000D1C  0E01               	movlw	1
  3462   000D1E  643A               	cpfsgt	i2USBDeviceInit@i^0,c
  3463   000D20  D7DC               	goto	i2l4531
  3464                           
  3465                           ;../framework/usb/src/usb_device.c: 358:     pBDTEntryIn[0] = (volatile BDT_ENTRY*)&BDT[
      +                          2];
  3466   000D22  0E08               	movlw	8
  3467   000D24  6E0F               	movwf	_pBDTEntryIn^0,c
  3468   000D26  0E02               	movlw	2
  3469   000D28  6E10               	movwf	(_pBDTEntryIn+1)^0,c
  3470                           
  3471                           ;../framework/usb/src/usb_device.c: 360:     UEP0 = 0x06|0x10;
  3472   000D2A  0E16               	movlw	22
  3473   000D2C  010F               	movlb	15	; () banked
  3474   000D2E  6F53               	movwf	83,b	;volatile
  3475                           
  3476                           ; BSR set to: 15
  3477                           ;../framework/usb/src/usb_device.c: 362:     BDT[0].ADR = ((uint16_t)(&SetupPkt));
  3478   000D30  0E02               	movlw	2
  3479   000D32  0102               	movlb	2	; () banked
  3480   000D34  6F03               	movwf	3,b	;volatile
  3481   000D36  0E20               	movlw	32
  3482   000D38  6F02               	movwf	2,b	;volatile
  3483                           
  3484                           ; BSR set to: 2
  3485                           ;../framework/usb/src/usb_device.c: 363:     BDT[0].CNT = 8;
  3486   000D3A  0E08               	movlw	8
  3487   000D3C  6F01               	movwf	1,b	;volatile
  3488                           
  3489                           ; BSR set to: 2
  3490                           ;../framework/usb/src/usb_device.c: 364:     BDT[0].STAT.Val = 0x00|0x04;
  3491   000D3E  0E04               	movlw	4
  3492   000D40  6F00               	movwf	0,b	;volatile
  3493                           
  3494                           ; BSR set to: 2
  3495                           ;../framework/usb/src/usb_device.c: 365:     BDT[0].STAT.Val |= 0x80;
  3496   000D42  8F00               	bsf	0,7,b	;volatile
  3497                           
  3498                           ; BSR set to: 2
  3499                           ;../framework/usb/src/usb_device.c: 368:     USBActiveConfiguration = 0;
  3500   000D44  0E00               	movlw	0
  3501   000D46  6E2D               	movwf	_USBActiveConfiguration^0,c	;volatile
  3502                           
  3503                           ; BSR set to: 2
  3504                           ;../framework/usb/src/usb_device.c: 370:     USB1msTickCount = 0;
  3505   000D48  0E00               	movlw	0
  3506   000D4A  0100               	movlb	0	; () banked
  3507   000D4C  6F72               	movwf	_USB1msTickCount& (0+255),b	;volatile
  3508   000D4E  0E00               	movlw	0
  3509   000D50  6F73               	movwf	(_USB1msTickCount+1)& (0+255),b	;volatile
  3510   000D52  0E00               	movlw	0
  3511   000D54  6F74               	movwf	(_USB1msTickCount+2)& (0+255),b	;volatile
  3512   000D56  0E00               	movlw	0
  3513   000D58  6F75               	movwf	(_USB1msTickCount+3)& (0+255),b	;volatile
  3514                           
  3515                           ; BSR set to: 0
  3516                           ;../framework/usb/src/usb_device.c: 371:     USBTicksSinceSuspendEnd = 0;
  3517   000D5A  0E00               	movlw	0
  3518   000D5C  6F7E               	movwf	_USBTicksSinceSuspendEnd& (0+255),b	;volatile
  3519                           
  3520                           ; BSR set to: 0
  3521                           ;../framework/usb/src/usb_device.c: 374:     USBDeviceState = DETACHED_STATE;
  3522   000D5E  0E00               	movlw	0
  3523   000D60  6E2A               	movwf	_USBDeviceState^0,c	;volatile
  3524                           
  3525                           ; BSR set to: 0
  3526   000D62  0012               	return		;funcret
  3527   000D64                     __end_ofi2_USBDeviceInit:
  3528                           	callstack 0
  3529                           
  3530 ;; *************** function _USBWakeFromSuspend *****************
  3531 ;; Defined at:
  3532 ;;		line 2310 in file "../framework/usb/src/usb_device.c"
  3533 ;; Parameters:    Size  Location     Type
  3534 ;;		None
  3535 ;; Auto vars:     Size  Location     Type
  3536 ;;		None
  3537 ;; Return value:  Size  Location     Type
  3538 ;;                  1    wreg      void 
  3539 ;; Registers used:
  3540 ;;		wreg, fsr2l, fsr2h, status,2, status,0, prodl, prodh, cstack
  3541 ;; Tracked objects:
  3542 ;;		On entry : 0/0
  3543 ;;		On exit  : 3F/0
  3544 ;;		Unchanged: 0/0
  3545 ;; Data sizes:     COMRAM   BANK0   BANK1  BANK2h  BANK2l
  3546 ;;      Params:         0       0       0       0       0
  3547 ;;      Locals:         0       0       0       0       0
  3548 ;;      Temps:          0       0       0       0       0
  3549 ;;      Totals:         0       0       0       0       0
  3550 ;;Total ram usage:        0 bytes
  3551 ;; Hardware stack levels used: 1
  3552 ;; Hardware stack levels required when called: 4
  3553 ;; This function calls:
  3554 ;;		_USER_USB_CALLBACK_EVENT_HANDLER
  3555 ;; This function is called by:
  3556 ;;		_USBDeviceTasks
  3557 ;; This function uses a non-reentrant model
  3558 ;;
  3559                           
  3560                           	psect	text19
  3561   001F82                     __ptext19:
  3562                           	callstack 0
  3563   001F82                     _USBWakeFromSuspend:
  3564                           	callstack 21
  3565                           
  3566                           ;../framework/usb/src/usb_device.c: 2312:     USBBusIsSuspended = 0;
  3567                           
  3568                           ; BSR set to: 0
  3569                           ;incstack = 0
  3570   001F82  0E00               	movlw	0
  3571   001F84  6E26               	movwf	_USBBusIsSuspended^0,c	;volatile
  3572                           
  3573                           ;../framework/usb/src/usb_device.c: 2318:     USER_USB_CALLBACK_EVENT_HANDLER((USB_EVENT
      +                          )EVENT_RESUME,0,0);
  3574   001F86  0E00               	movlw	0
  3575   001F88  6E3D               	movwf	(USER_USB_CALLBACK_EVENT_HANDLER@event+1)^0,c
  3576   001F8A  0E74               	movlw	116
  3577   001F8C  6E3C               	movwf	USER_USB_CALLBACK_EVENT_HANDLER@event^0,c
  3578   001F8E  0E00               	movlw	0
  3579   001F90  6E3E               	movwf	USER_USB_CALLBACK_EVENT_HANDLER@pdata^0,c
  3580   001F92  0E00               	movlw	0
  3581   001F94  6E3F               	movwf	(USER_USB_CALLBACK_EVENT_HANDLER@pdata+1)^0,c
  3582   001F96  0E00               	movlw	0
  3583   001F98  6E41               	movwf	(USER_USB_CALLBACK_EVENT_HANDLER@size+1)^0,c
  3584   001F9A  0E00               	movlw	0
  3585   001F9C  6E40               	movwf	USER_USB_CALLBACK_EVENT_HANDLER@size^0,c
  3586   001F9E  EC00  F00C         	call	_USER_USB_CALLBACK_EVENT_HANDLER	;wreg free
  3587                           
  3588                           ;../framework/usb/src/usb_device.c: 2325:         UCONbits.SUSPND = 0;
  3589   001FA2  9264               	bcf	100,1,c	;volatile
  3590                           
  3591                           ;../framework/usb/src/usb_device.c: 2330:     UIEbits.ACTVIE = 0;
  3592   001FA4  9460               	bcf	96,2,c	;volatile
  3593                           
  3594                           ;../framework/usb/src/usb_device.c: 2348:     while(UIRbits.ACTVIF)
  3595   001FA6  D001               	goto	i2l4401
  3596   001FA8                     i2l4399:
  3597                           
  3598                           ;../framework/usb/src/usb_device.c: 2350:     {;../framework/usb/src/usb_device.c: 2351:
      +                                   (UIR &= 0xFB);
  3599   001FA8  9462               	bcf	98,2,c	;volatile
  3600   001FAA                     i2l4401:
  3601                           
  3602                           ;../framework/usb/src/usb_device.c: 2348:     while(UIRbits.ACTVIF)
  3603   001FAA  B462               	btfsc	98,2,c	;volatile
  3604   001FAC  D7FD               	goto	i2l4399
  3605                           
  3606                           ;../framework/usb/src/usb_device.c: 2354:     USBTicksSinceSuspendEnd = 0;
  3607   001FAE  0E00               	movlw	0
  3608   001FB0  0100               	movlb	0	; () banked
  3609   001FB2  6F7E               	movwf	_USBTicksSinceSuspendEnd& (0+255),b	;volatile
  3610                           
  3611                           ; BSR set to: 0
  3612   001FB4  0012               	return		;funcret
  3613   001FB6                     __end_of_USBWakeFromSuspend:
  3614                           	callstack 0
  3615                           
  3616 ;; *************** function _USBSuspend *****************
  3617 ;; Defined at:
  3618 ;;		line 2252 in file "../framework/usb/src/usb_device.c"
  3619 ;; Parameters:    Size  Location     Type
  3620 ;;		None
  3621 ;; Auto vars:     Size  Location     Type
  3622 ;;		None
  3623 ;; Return value:  Size  Location     Type
  3624 ;;                  1    wreg      void 
  3625 ;; Registers used:
  3626 ;;		wreg, fsr2l, fsr2h, status,2, status,0, prodl, prodh, cstack
  3627 ;; Tracked objects:
  3628 ;;		On entry : 0/0
  3629 ;;		On exit  : 0/0
  3630 ;;		Unchanged: 0/0
  3631 ;; Data sizes:     COMRAM   BANK0   BANK1  BANK2h  BANK2l
  3632 ;;      Params:         0       0       0       0       0
  3633 ;;      Locals:         0       0       0       0       0
  3634 ;;      Temps:          0       0       0       0       0
  3635 ;;      Totals:         0       0       0       0       0
  3636 ;;Total ram usage:        0 bytes
  3637 ;; Hardware stack levels used: 1
  3638 ;; Hardware stack levels required when called: 4
  3639 ;; This function calls:
  3640 ;;		_USER_USB_CALLBACK_EVENT_HANDLER
  3641 ;; This function is called by:
  3642 ;;		_USBDeviceTasks
  3643 ;; This function uses a non-reentrant model
  3644 ;;
  3645                           
  3646                           	psect	text20
  3647   001FE8                     __ptext20:
  3648                           	callstack 0
  3649   001FE8                     _USBSuspend:
  3650                           	callstack 21
  3651                           
  3652                           ;../framework/usb/src/usb_device.c: 2277:     UIEbits.ACTVIE = 1;
  3653                           
  3654                           ; BSR set to: 0
  3655                           ;incstack = 0
  3656   001FE8  8460               	bsf	96,2,c	;volatile
  3657                           
  3658                           ;../framework/usb/src/usb_device.c: 2278:     (UIR &= 0xEF);
  3659   001FEA  9862               	bcf	98,4,c	;volatile
  3660                           
  3661                           ;../framework/usb/src/usb_device.c: 2281:         UCONbits.SUSPND = 1;
  3662   001FEC  8264               	bsf	100,1,c	;volatile
  3663                           
  3664                           ;../framework/usb/src/usb_device.c: 2284:     USBBusIsSuspended = 1;
  3665   001FEE  0E01               	movlw	1
  3666   001FF0  6E26               	movwf	_USBBusIsSuspended^0,c	;volatile
  3667                           
  3668                           ;../framework/usb/src/usb_device.c: 2285:     USBTicksSinceSuspendEnd = 0;
  3669   001FF2  0E00               	movlw	0
  3670   001FF4  0100               	movlb	0	; () banked
  3671   001FF6  6F7E               	movwf	_USBTicksSinceSuspendEnd& (0+255),b	;volatile
  3672                           
  3673                           ; BSR set to: 0
  3674                           ;../framework/usb/src/usb_device.c: 2292:     USER_USB_CALLBACK_EVENT_HANDLER((USB_EVENT
      +                          )EVENT_SUSPEND,0,0);
  3675   001FF8  0E00               	movlw	0
  3676   001FFA  6E3D               	movwf	(USER_USB_CALLBACK_EVENT_HANDLER@event+1)^0,c
  3677   001FFC  0E75               	movlw	117
  3678   001FFE  6E3C               	movwf	USER_USB_CALLBACK_EVENT_HANDLER@event^0,c
  3679   002000  0E00               	movlw	0
  3680   002002  6E3E               	movwf	USER_USB_CALLBACK_EVENT_HANDLER@pdata^0,c
  3681   002004  0E00               	movlw	0
  3682   002006  6E3F               	movwf	(USER_USB_CALLBACK_EVENT_HANDLER@pdata+1)^0,c
  3683   002008  0E00               	movlw	0
  3684   00200A  6E41               	movwf	(USER_USB_CALLBACK_EVENT_HANDLER@size+1)^0,c
  3685   00200C  0E00               	movlw	0
  3686   00200E  6E40               	movwf	USER_USB_CALLBACK_EVENT_HANDLER@size^0,c
  3687   002010  EC00  F00C         	call	_USER_USB_CALLBACK_EVENT_HANDLER	;wreg free
  3688   002014  0012               	return		;funcret
  3689   002016                     __end_of_USBSuspend:
  3690                           	callstack 0
  3691                           
  3692 ;; *************** function _USBStallHandler *****************
  3693 ;; Defined at:
  3694 ;;		line 2209 in file "../framework/usb/src/usb_device.c"
  3695 ;; Parameters:    Size  Location     Type
  3696 ;;		None
  3697 ;; Auto vars:     Size  Location     Type
  3698 ;;		None
  3699 ;; Return value:  Size  Location     Type
  3700 ;;                  1    wreg      void 
  3701 ;; Registers used:
  3702 ;;		wreg, fsr2l, fsr2h, status,2, status,0
  3703 ;; Tracked objects:
  3704 ;;		On entry : 0/0
  3705 ;;		On exit  : 3F/F
  3706 ;;		Unchanged: 0/0
  3707 ;; Data sizes:     COMRAM   BANK0   BANK1  BANK2h  BANK2l
  3708 ;;      Params:         0       0       0       0       0
  3709 ;;      Locals:         0       0       0       0       0
  3710 ;;      Temps:          1       0       0       0       0
  3711 ;;      Totals:         1       0       0       0       0
  3712 ;;Total ram usage:        1 bytes
  3713 ;; Hardware stack levels used: 1
  3714 ;; This function calls:
  3715 ;;		Nothing
  3716 ;; This function is called by:
  3717 ;;		_USBDeviceTasks
  3718 ;; This function uses a non-reentrant model
  3719 ;;
  3720                           
  3721                           	psect	text21
  3722   001D08                     __ptext21:
  3723                           	callstack 0
  3724   001D08                     _USBStallHandler:
  3725                           	callstack 25
  3726                           
  3727                           ;../framework/usb/src/usb_device.c: 2221:     if(UEP0bits.EPSTALL == 1)
  3728                           
  3729                           ;incstack = 0
  3730   001D08  010F               	movlb	15	; () banked
  3731   001D0A  A153               	btfss	83,0,b	;volatile
  3732   001D0C  D01D               	goto	i2l489
  3733                           
  3734                           ; BSR set to: 15
  3735                           ;../framework/usb/src/usb_device.c: 2222:     {;../framework/usb/src/usb_device.c: 2224:
      +                                   if((pBDTEntryEP0OutCurrent->STAT.Val == 0x80) && (pBDTEntryIn[0]->STAT.Val == (
      +                          0x80|0x04)))
  3736   001D0E  C01F  FFD9         	movff	_pBDTEntryEP0OutCurrent,fsr2l
  3737   001D12  C020  FFDA         	movff	_pBDTEntryEP0OutCurrent+1,fsr2h
  3738   001D16  0E80               	movlw	128
  3739   001D18  18DE               	xorwf	postinc2,w,c
  3740   001D1A  A4D8               	btfss	status,2,c
  3741   001D1C  D014               	goto	i2l2521
  3742                           
  3743                           ; BSR set to: 15
  3744   001D1E  C00F  FFD9         	movff	_pBDTEntryIn,fsr2l
  3745   001D22  C010  FFDA         	movff	_pBDTEntryIn+1,fsr2h
  3746   001D26  0E84               	movlw	132
  3747   001D28  18DE               	xorwf	postinc2,w,c
  3748   001D2A  A4D8               	btfss	status,2,c
  3749   001D2C  D00C               	goto	i2l2521
  3750                           
  3751                           ; BSR set to: 15
  3752                           ;../framework/usb/src/usb_device.c: 2225:         {;../framework/usb/src/usb_device.c: 2
      +                          227:             pBDTEntryEP0OutCurrent->STAT.Val = 0x00|(0x08 & 0x08)|0x04;
  3753   001D2E  C01F  FFD9         	movff	_pBDTEntryEP0OutCurrent,fsr2l
  3754   001D32  C020  FFDA         	movff	_pBDTEntryEP0OutCurrent+1,fsr2h
  3755   001D36  0E0C               	movlw	12
  3756   001D38  6EDF               	movwf	indf2,c
  3757                           
  3758                           ; BSR set to: 15
  3759                           ;../framework/usb/src/usb_device.c: 2228:             pBDTEntryEP0OutCurrent->STAT.Val |
      +                          = 0x80;
  3760   001D3A  C01F  FFD9         	movff	_pBDTEntryEP0OutCurrent,fsr2l
  3761   001D3E  C020  FFDA         	movff	_pBDTEntryEP0OutCurrent+1,fsr2h
  3762   001D42  0E00               	movlw	0
  3763   001D44  8EDB               	bsf	plusw2,7,c
  3764   001D46                     i2l2521:
  3765                           
  3766                           ; BSR set to: 15
  3767                           ;../framework/usb/src/usb_device.c: 2230:         UEP0bits.EPSTALL = 0;
  3768   001D46  9153               	bcf	83,0,b	;volatile
  3769   001D48                     i2l489:
  3770                           
  3771                           ; BSR set to: 15
  3772                           ;../framework/usb/src/usb_device.c: 2233:     (UIR &= 0xDF);
  3773   001D48  9A62               	bcf	98,5,c	;volatile
  3774                           
  3775                           ; BSR set to: 15
  3776   001D4A  0012               	return		;funcret
  3777   001D4C                     __end_of_USBStallHandler:
  3778                           	callstack 0
  3779                           
  3780 ;; *************** function _USBIncrement1msInternalTimers *****************
  3781 ;; Defined at:
  3782 ;;		line 2998 in file "../framework/usb/src/usb_device.c"
  3783 ;; Parameters:    Size  Location     Type
  3784 ;;		None
  3785 ;; Auto vars:     Size  Location     Type
  3786 ;;		None
  3787 ;; Return value:  Size  Location     Type
  3788 ;;                  1    wreg      void 
  3789 ;; Registers used:
  3790 ;;		wreg, status,2, status,0
  3791 ;; Tracked objects:
  3792 ;;		On entry : 0/0
  3793 ;;		On exit  : 3F/0
  3794 ;;		Unchanged: 0/0
  3795 ;; Data sizes:     COMRAM   BANK0   BANK1  BANK2h  BANK2l
  3796 ;;      Params:         0       0       0       0       0
  3797 ;;      Locals:         0       0       0       0       0
  3798 ;;      Temps:          0       0       0       0       0
  3799 ;;      Totals:         0       0       0       0       0
  3800 ;;Total ram usage:        0 bytes
  3801 ;; Hardware stack levels used: 1
  3802 ;; This function calls:
  3803 ;;		Nothing
  3804 ;; This function is called by:
  3805 ;;		_USBDeviceTasks
  3806 ;; This function uses a non-reentrant model
  3807 ;;
  3808                           
  3809                           	psect	text22
  3810   00205E                     __ptext22:
  3811                           	callstack 0
  3812   00205E                     _USBIncrement1msInternalTimers:
  3813                           	callstack 25
  3814                           
  3815                           ;../framework/usb/src/usb_device.c: 3006:     USB1msTickCount++;
  3816                           
  3817                           ; BSR set to: 15
  3818                           ;incstack = 0
  3819   00205E  0E01               	movlw	1
  3820   002060  0100               	movlb	0	; () banked
  3821   002062  2772               	addwf	_USB1msTickCount& (0+255),f,b	;volatile
  3822   002064  0E00               	movlw	0
  3823   002066  2373               	addwfc	(_USB1msTickCount+1)& (0+255),f,b	;volatile
  3824   002068  2374               	addwfc	(_USB1msTickCount+2)& (0+255),f,b	;volatile
  3825   00206A  2375               	addwfc	(_USB1msTickCount+3)& (0+255),f,b	;volatile
  3826                           
  3827                           ; BSR set to: 0
  3828                           ;../framework/usb/src/usb_device.c: 3007:     if(USBBusIsSuspended == 0)
  3829   00206C  5026               	movf	_USBBusIsSuspended^0,w,c	;volatile
  3830   00206E  A4D8               	btfss	status,2,c
  3831   002070  0012               	return	
  3832                           
  3833                           ; BSR set to: 0
  3834                           ;../framework/usb/src/usb_device.c: 3008:     {;../framework/usb/src/usb_device.c: 3009:
      +                                   USBTicksSinceSuspendEnd++;
  3835   002072  2B7E               	incf	_USBTicksSinceSuspendEnd& (0+255),f,b	;volatile
  3836                           
  3837                           ; BSR set to: 0
  3838                           ;../framework/usb/src/usb_device.c: 3011:         if(USBTicksSinceSuspendEnd == 0)
  3839   002074  517E               	movf	_USBTicksSinceSuspendEnd& (0+255),w,b	;volatile
  3840   002076  A4D8               	btfss	status,2,c
  3841   002078  0012               	return	
  3842                           
  3843                           ; BSR set to: 0
  3844                           ;../framework/usb/src/usb_device.c: 3012:         {;../framework/usb/src/usb_device.c: 3
      +                          013:             USBTicksSinceSuspendEnd = 255;
  3845   00207A  697E               	setf	_USBTicksSinceSuspendEnd& (0+255),b	;volatile
  3846                           
  3847                           ; BSR set to: 0
  3848   00207C  0012               	return		;funcret
  3849   00207E                     __end_of_USBIncrement1msInternalTimers:
  3850                           	callstack 0
  3851                           
  3852 ;; *************** function _USBCtrlEPService *****************
  3853 ;; Defined at:
  3854 ;;		line 2379 in file "../framework/usb/src/usb_device.c"
  3855 ;; Parameters:    Size  Location     Type
  3856 ;;		None
  3857 ;; Auto vars:     Size  Location     Type
  3858 ;;		None
  3859 ;; Return value:  Size  Location     Type
  3860 ;;                  1    wreg      void 
  3861 ;; Registers used:
  3862 ;;		wreg, fsr1l, fsr1h, fsr2l, fsr2h, status,2, status,0, pcl, pclath, pclatu, tosl, tblptrl, tblptrh, tblptru, prodl, p
      +rodh, cstack
  3863 ;; Tracked objects:
  3864 ;;		On entry : 0/0
  3865 ;;		On exit  : 0/0
  3866 ;;		Unchanged: 0/0
  3867 ;; Data sizes:     COMRAM   BANK0   BANK1  BANK2h  BANK2l
  3868 ;;      Params:         0       0       0       0       0
  3869 ;;      Locals:         0       0       0       0       0
  3870 ;;      Temps:          1       0       0       0       0
  3871 ;;      Totals:         1       0       0       0       0
  3872 ;;Total ram usage:        1 bytes
  3873 ;; Hardware stack levels used: 1
  3874 ;; Hardware stack levels required when called: 7
  3875 ;; This function calls:
  3876 ;;		_USBCtrlTrfInHandler
  3877 ;;		_USBCtrlTrfOutHandler
  3878 ;;		_USBCtrlTrfSetupHandler
  3879 ;;		_memcpy
  3880 ;; This function is called by:
  3881 ;;		_USBDeviceTasks
  3882 ;; This function uses a non-reentrant model
  3883 ;;
  3884                           
  3885                           	psect	text23
  3886   001898                     __ptext23:
  3887                           	callstack 0
  3888   001898                     _USBCtrlEPService:
  3889                           	callstack 18
  3890                           
  3891                           ;../framework/usb/src/usb_device.c: 2385:         USBStatusStageTimeoutCounter = (uint8_
      +                          t)45;
  3892                           
  3893                           ; BSR set to: 0
  3894                           ;incstack = 0
  3895   001898  0E2D               	movlw	45
  3896   00189A  6E24               	movwf	_USBStatusStageTimeoutCounter^0,c	;volatile
  3897                           
  3898                           ;../framework/usb/src/usb_device.c: 2389:     if((USTATcopy.Val & ~0x02) == 0x00)
  3899   00189C  C02B  F04D         	movff	_USTATcopy,??_USBCtrlEPService	;volatile
  3900   0018A0  0EFD               	movlw	253
  3901   0018A2  164D               	andwf	??_USBCtrlEPService^0,f,c
  3902   0018A4  A4D8               	btfss	status,2,c
  3903   0018A6  D03B               	goto	i2l4445
  3904                           
  3905                           ;../framework/usb/src/usb_device.c: 2390:     {;../framework/usb/src/usb_device.c: 2393:
      +                                       pBDTEntryEP0OutCurrent = (volatile BDT_ENTRY*)&BDT[(USTATcopy.Val & 0x7E)>>
      +                          1];
  3906   0018A8  C02B  F04D         	movff	_USTATcopy,??_USBCtrlEPService	;volatile
  3907   0018AC  90D8               	bcf	status,0,c
  3908   0018AE  324D               	rrcf	??_USBCtrlEPService^0,f,c
  3909   0018B0  0E3F               	movlw	63
  3910   0018B2  164D               	andwf	??_USBCtrlEPService^0,f,c
  3911   0018B4  504D               	movf	??_USBCtrlEPService^0,w,c
  3912   0018B6  0D04               	mullw	4
  3913   0018B8  0E00               	movlw	0
  3914   0018BA  24F3               	addwf	243,w,c
  3915   0018BC  6E1F               	movwf	_pBDTEntryEP0OutCurrent^0,c
  3916   0018BE  0E02               	movlw	2
  3917   0018C0  20F4               	addwfc	prodh,w,c
  3918   0018C2  6E20               	movwf	(_pBDTEntryEP0OutCurrent+1)^0,c
  3919                           
  3920                           ;../framework/usb/src/usb_device.c: 2401:         pBDTEntryEP0OutNext = pBDTEntryEP0OutC
      +                          urrent;
  3921   0018C4  C01F  F01D         	movff	_pBDTEntryEP0OutCurrent,_pBDTEntryEP0OutNext
  3922   0018C8  C020  F01E         	movff	_pBDTEntryEP0OutCurrent+1,_pBDTEntryEP0OutNext+1
  3923                           
  3924                           ;../framework/usb/src/usb_device.c: 2403:         pBDTEntryEP0OutNext = (volatile BDT_EN
      +                          TRY*)(((uint16_t)pBDTEntryEP0OutNext) ^ 0x0004);
  3925   0018CC  0E04               	movlw	4
  3926   0018CE  181D               	xorwf	_pBDTEntryEP0OutNext^0,w,c
  3927   0018D0  6E1D               	movwf	_pBDTEntryEP0OutNext^0,c
  3928   0018D2  501E               	movf	(_pBDTEntryEP0OutNext+1)^0,w,c
  3929   0018D4  6E1E               	movwf	(_pBDTEntryEP0OutNext+1)^0,c
  3930                           
  3931                           ;../framework/usb/src/usb_device.c: 2406:         if(pBDTEntryEP0OutCurrent->STAT.PID ==
      +                           0xD)
  3932   0018D6  C01F  FFD9         	movff	_pBDTEntryEP0OutCurrent,fsr2l
  3933   0018DA  C020  FFDA         	movff	_pBDTEntryEP0OutCurrent+1,fsr2h
  3934   0018DE  30DF               	rrcf	223,w,c
  3935   0018E0  32E8               	rrcf	wreg,f,c
  3936   0018E2  0B0F               	andlw	15
  3937   0018E4  0A0D               	xorlw	13
  3938   0018E6  A4D8               	btfss	status,2,c
  3939   0018E8  D017               	goto	i2l4443
  3940                           
  3941                           ;../framework/usb/src/usb_device.c: 2407:         {;../framework/usb/src/usb_device.c: 2
      +                          412:             memcpy((uint8_t*)&SetupPkt, (uint8_t*)((void *)(pBDTEntryEP0OutCurrent-
      +                          >ADR)), 8);
  3942   0018EA  0E20               	movlw	32
  3943   0018EC  6E2E               	movwf	memcpy@d1^0,c
  3944   0018EE  0E02               	movlw	2
  3945   0018F0  6E2F               	movwf	(memcpy@d1+1)^0,c
  3946   0018F2  EE20 F002          	lfsr	2,2
  3947   0018F6  501F               	movf	_pBDTEntryEP0OutCurrent^0,w,c
  3948   0018F8  26D9               	addwf	fsr2l,f,c
  3949   0018FA  5020               	movf	(_pBDTEntryEP0OutCurrent+1)^0,w,c
  3950   0018FC  22DA               	addwfc	fsr2h,f,c
  3951   0018FE  CFDE F030          	movff	postinc2,memcpy@s1
  3952   001902  CFDD F031          	movff	postdec2,memcpy@s1+1
  3953   001906  0E00               	movlw	0
  3954   001908  6E33               	movwf	(memcpy@n+1)^0,c
  3955   00190A  0E08               	movlw	8
  3956   00190C  6E32               	movwf	memcpy@n^0,c
  3957   00190E  ECA6  F00E         	call	_memcpy	;wreg free
  3958                           
  3959                           ;../framework/usb/src/usb_device.c: 2415:             USBCtrlTrfSetupHandler();
  3960   001912  EC2B  F00D         	call	_USBCtrlTrfSetupHandler	;wreg free
  3961                           
  3962                           ;../framework/usb/src/usb_device.c: 2416:         }
  3963   001916  0012               	return	
  3964   001918                     i2l4443:
  3965                           
  3966                           ;../framework/usb/src/usb_device.c: 2418:         {;../framework/usb/src/usb_device.c: 2
      +                          420:             USBCtrlTrfOutHandler();
  3967   001918  ECBB  F00D         	call	_USBCtrlTrfOutHandler	;wreg free
  3968   00191C  0012               	return	
  3969   00191E                     i2l4445:
  3970   00191E  502B               	movf	_USTATcopy^0,w,c	;volatile
  3971   001920  0BFD               	andlw	253
  3972   001922  0A04               	xorlw	4
  3973   001924  A4D8               	btfss	status,2,c
  3974   001926  0012               	return	
  3975                           
  3976                           ;../framework/usb/src/usb_device.c: 2424:     {;../framework/usb/src/usb_device.c: 2427:
      +                                   USBCtrlTrfInHandler();
  3977   001928  ECA8  F009         	call	_USBCtrlTrfInHandler	;wreg free
  3978   00192C  0012               	return		;funcret
  3979   00192E                     __end_of_USBCtrlEPService:
  3980                           	callstack 0
  3981                           
  3982 ;; *************** function _memcpy *****************
  3983 ;; Defined at:
  3984 ;;		line 4 in file "C:\Program Files\Microchip\xc8\v2.40\pic\sources\c99\common\memcpy.c"
  3985 ;; Parameters:    Size  Location     Type
  3986 ;;  d1              2    0[COMRAM] PTR void 
  3987 ;;		 -> SetupPkt(8), 
  3988 ;;  s1              2    2[COMRAM] PTR const void 
  3989 ;;		 -> CtrlTrfData(8), RAM(767), SetupPkt(8), 
  3990 ;;  n               2    4[COMRAM] unsigned int 
  3991 ;; Auto vars:     Size  Location     Type
  3992 ;;  s               2    8[COMRAM] PTR const unsigned char 
  3993 ;;		 -> CtrlTrfData(8), RAM(767), SetupPkt(8), 
  3994 ;;  d               2    6[COMRAM] PTR unsigned char 
  3995 ;;		 -> SetupPkt(8), 
  3996 ;;  tmp             1   10[COMRAM] unsigned char 
  3997 ;; Return value:  Size  Location     Type
  3998 ;;                  2    0[COMRAM] PTR void 
  3999 ;; Registers used:
  4000 ;;		wreg, fsr2l, fsr2h, status,2, status,0
  4001 ;; Tracked objects:
  4002 ;;		On entry : 0/0
  4003 ;;		On exit  : 0/0
  4004 ;;		Unchanged: 0/0
  4005 ;; Data sizes:     COMRAM   BANK0   BANK1  BANK2h  BANK2l
  4006 ;;      Params:         6       0       0       0       0
  4007 ;;      Locals:         5       0       0       0       0
  4008 ;;      Temps:          0       0       0       0       0
  4009 ;;      Totals:        11       0       0       0       0
  4010 ;;Total ram usage:       11 bytes
  4011 ;; Hardware stack levels used: 1
  4012 ;; This function calls:
  4013 ;;		Nothing
  4014 ;; This function is called by:
  4015 ;;		_USBCtrlEPService
  4016 ;; This function uses a non-reentrant model
  4017 ;;
  4018                           
  4019                           	psect	text24
  4020   001D4C                     __ptext24:
  4021                           	callstack 0
  4022   001D4C                     _memcpy:
  4023                           	callstack 24
  4024                           
  4025                           ;incstack = 0
  4026   001D4C  C030  F036         	movff	memcpy@s1,memcpy@s
  4027   001D50  C031  F037         	movff	memcpy@s1+1,memcpy@s+1
  4028   001D54  C02E  F034         	movff	memcpy@d1,memcpy@d
  4029   001D58  C02F  F035         	movff	memcpy@d1+1,memcpy@d+1
  4030   001D5C  D010               	goto	i2l4245
  4031   001D5E                     i2l4237:
  4032   001D5E  C036  FFD9         	movff	memcpy@s,fsr2l
  4033   001D62  C037  FFDA         	movff	memcpy@s+1,fsr2h
  4034   001D66  50DF               	movf	indf2,w,c
  4035   001D68  6E38               	movwf	memcpy@tmp^0,c
  4036   001D6A  4A36               	infsnz	memcpy@s^0,f,c
  4037   001D6C  2A37               	incf	(memcpy@s+1)^0,f,c
  4038   001D6E  C034  FFD9         	movff	memcpy@d,fsr2l
  4039   001D72  C035  FFDA         	movff	memcpy@d+1,fsr2h
  4040   001D76  C038  FFDF         	movff	memcpy@tmp,indf2
  4041   001D7A  4A34               	infsnz	memcpy@d^0,f,c
  4042   001D7C  2A35               	incf	(memcpy@d+1)^0,f,c
  4043   001D7E                     i2l4245:
  4044   001D7E  0632               	decf	memcpy@n^0,f,c
  4045   001D80  A0D8               	btfss	status,0,c
  4046   001D82  0633               	decf	(memcpy@n+1)^0,f,c
  4047   001D84  2832               	incf	memcpy@n^0,w,c
  4048   001D86  E1EB               	bnz	i2l4237
  4049   001D88  2833               	incf	(memcpy@n+1)^0,w,c
  4050   001D8A  B4D8               	btfsc	status,2,c
  4051   001D8C  0012               	return	
  4052   001D8E  D7E7               	goto	i2l4237
  4053   001D90                     __end_of_memcpy:
  4054                           	callstack 0
  4055                           
  4056 ;; *************** function _USBCtrlTrfSetupHandler *****************
  4057 ;; Defined at:
  4058 ;;		line 2472 in file "../framework/usb/src/usb_device.c"
  4059 ;; Parameters:    Size  Location     Type
  4060 ;;		None
  4061 ;; Auto vars:     Size  Location     Type
  4062 ;;		None
  4063 ;; Return value:  Size  Location     Type
  4064 ;;                  1    wreg      void 
  4065 ;; Registers used:
  4066 ;;		wreg, fsr1l, fsr1h, fsr2l, fsr2h, status,2, status,0, tblptrl, tblptrh, tblptru, prodl, prodh, cstack
  4067 ;; Tracked objects:
  4068 ;;		On entry : 0/0
  4069 ;;		On exit  : 0/0
  4070 ;;		Unchanged: 0/0
  4071 ;; Data sizes:     COMRAM   BANK0   BANK1  BANK2h  BANK2l
  4072 ;;      Params:         0       0       0       0       0
  4073 ;;      Locals:         0       0       0       0       0
  4074 ;;      Temps:          0       0       0       0       0
  4075 ;;      Totals:         0       0       0       0       0
  4076 ;;Total ram usage:        0 bytes
  4077 ;; Hardware stack levels used: 1
  4078 ;; Hardware stack levels required when called: 6
  4079 ;; This function calls:
  4080 ;;		_USBCheckStdRequest
  4081 ;;		_USBCtrlEPServiceComplete
  4082 ;;		_USER_USB_CALLBACK_EVENT_HANDLER
  4083 ;; This function is called by:
  4084 ;;		_USBCtrlEPService
  4085 ;; This function uses a non-reentrant model
  4086 ;;
  4087                           
  4088                           	psect	text25
  4089   001A56                     __ptext25:
  4090                           	callstack 0
  4091   001A56                     _USBCtrlTrfSetupHandler:
  4092                           	callstack 18
  4093                           
  4094                           ;../framework/usb/src/usb_device.c: 2477:     shortPacketStatus = 0;
  4095                           
  4096                           ;incstack = 0
  4097   001A56  0E00               	movlw	0
  4098   001A58  6E29               	movwf	_shortPacketStatus^0,c	;volatile
  4099                           
  4100                           ;../framework/usb/src/usb_device.c: 2478:     USBDeferStatusStagePacket = 0;
  4101   001A5A  0E00               	movlw	0
  4102   001A5C  6E23               	movwf	_USBDeferStatusStagePacket^0,c	;volatile
  4103                           
  4104                           ;../framework/usb/src/usb_device.c: 2479:     USBDeferINDataStagePackets = 0;
  4105   001A5E  0E00               	movlw	0
  4106   001A60  0100               	movlb	0	; () banked
  4107   001A62  6F80               	movwf	_USBDeferINDataStagePackets& (0+255),b	;volatile
  4108                           
  4109                           ;../framework/usb/src/usb_device.c: 2480:     USBDeferOUTDataStagePackets = 0;
  4110   001A64  0E00               	movlw	0
  4111   001A66  6F7F               	movwf	_USBDeferOUTDataStagePackets& (0+255),b	;volatile
  4112                           
  4113                           ;../framework/usb/src/usb_device.c: 2481:     BothEP0OutUOWNsSet = 0;
  4114   001A68  0E00               	movlw	0
  4115   001A6A  6F83               	movwf	_BothEP0OutUOWNsSet& (0+255),b	;volatile
  4116                           
  4117                           ;../framework/usb/src/usb_device.c: 2482:     controlTransferState = 0;
  4118   001A6C  0E00               	movlw	0
  4119   001A6E  6E28               	movwf	_controlTransferState^0,c	;volatile
  4120                           
  4121                           ; BSR set to: 0
  4122                           ;../framework/usb/src/usb_device.c: 2491:     pBDTEntryIn[0]->STAT.Val &= ~(0x80);
  4123   001A70  C00F  FFD9         	movff	_pBDTEntryIn,fsr2l
  4124   001A74  C010  FFDA         	movff	_pBDTEntryIn+1,fsr2h
  4125   001A78  0E7F               	movlw	127
  4126   001A7A  16DF               	andwf	indf2,f,c
  4127                           
  4128                           ; BSR set to: 0
  4129                           ;../framework/usb/src/usb_device.c: 2493:     pBDTEntryIn[0] = (volatile BDT_ENTRY*)(((u
      +                          int16_t)pBDTEntryIn[0]) ^ 0x0004);
  4130   001A7C  0E04               	movlw	4
  4131   001A7E  180F               	xorwf	_pBDTEntryIn^0,w,c
  4132   001A80  6E0F               	movwf	_pBDTEntryIn^0,c
  4133   001A82  5010               	movf	(_pBDTEntryIn+1)^0,w,c
  4134   001A84  6E10               	movwf	(_pBDTEntryIn+1)^0,c
  4135                           
  4136                           ; BSR set to: 0
  4137                           ;../framework/usb/src/usb_device.c: 2494:     pBDTEntryIn[0]->STAT.Val &= ~(0x80);
  4138   001A86  C00F  FFD9         	movff	_pBDTEntryIn,fsr2l
  4139   001A8A  C010  FFDA         	movff	_pBDTEntryIn+1,fsr2h
  4140   001A8E  0E7F               	movlw	127
  4141   001A90  16DF               	andwf	indf2,f,c
  4142                           
  4143                           ; BSR set to: 0
  4144                           ;../framework/usb/src/usb_device.c: 2495:     pBDTEntryIn[0] = (volatile BDT_ENTRY*)(((u
      +                          int16_t)pBDTEntryIn[0]) ^ 0x0004);
  4145   001A92  0E04               	movlw	4
  4146   001A94  180F               	xorwf	_pBDTEntryIn^0,w,c
  4147   001A96  6E0F               	movwf	_pBDTEntryIn^0,c
  4148   001A98  5010               	movf	(_pBDTEntryIn+1)^0,w,c
  4149   001A9A  6E10               	movwf	(_pBDTEntryIn+1)^0,c
  4150                           
  4151                           ; BSR set to: 0
  4152                           ;../framework/usb/src/usb_device.c: 2496:     pBDTEntryEP0OutNext->STAT.Val &= ~(0x80);
  4153   001A9C  C01D  FFD9         	movff	_pBDTEntryEP0OutNext,fsr2l
  4154   001AA0  C01E  FFDA         	movff	_pBDTEntryEP0OutNext+1,fsr2h
  4155   001AA4  0E7F               	movlw	127
  4156   001AA6  16DF               	andwf	indf2,f,c
  4157                           
  4158                           ; BSR set to: 0
  4159                           ;../framework/usb/src/usb_device.c: 2498:     inPipes[0].info.Val = 0;
  4160   001AA8  0E00               	movlw	0
  4161   001AAA  6E0C               	movwf	(_inPipes+3)^0,c	;volatile
  4162                           
  4163                           ; BSR set to: 0
  4164                           ;../framework/usb/src/usb_device.c: 2499:     inPipes[0].wCount.Val = 0;
  4165   001AAC  0E00               	movlw	0
  4166   001AAE  6E0E               	movwf	(_inPipes+5)^0,c	;volatile
  4167   001AB0  0E00               	movlw	0
  4168   001AB2  6E0D               	movwf	(_inPipes+4)^0,c	;volatile
  4169                           
  4170                           ; BSR set to: 0
  4171                           ;../framework/usb/src/usb_device.c: 2500:     outPipes[0].info.Val = 0;
  4172   001AB4  0E00               	movlw	0
  4173   001AB6  6E04               	movwf	(_outPipes+3)^0,c	;volatile
  4174                           
  4175                           ; BSR set to: 0
  4176                           ;../framework/usb/src/usb_device.c: 2501:     outPipes[0].wCount.Val = 0;
  4177   001AB8  0E00               	movlw	0
  4178   001ABA  6E06               	movwf	(_outPipes+5)^0,c	;volatile
  4179   001ABC  0E00               	movlw	0
  4180   001ABE  6E05               	movwf	(_outPipes+4)^0,c	;volatile
  4181                           
  4182                           ; BSR set to: 0
  4183                           ;../framework/usb/src/usb_device.c: 2507:     USBCheckStdRequest();
  4184   001AC0  EC1A  F00A         	call	_USBCheckStdRequest	;wreg free
  4185                           
  4186                           ;../framework/usb/src/usb_device.c: 2508:     USER_USB_CALLBACK_EVENT_HANDLER((USB_EVENT
      +                          )EVENT_EP0_REQUEST,0,0);
  4187   001AC4  0E00               	movlw	0
  4188   001AC6  6E3D               	movwf	(USER_USB_CALLBACK_EVENT_HANDLER@event+1)^0,c
  4189   001AC8  0E03               	movlw	3
  4190   001ACA  6E3C               	movwf	USER_USB_CALLBACK_EVENT_HANDLER@event^0,c
  4191   001ACC  0E00               	movlw	0
  4192   001ACE  6E3E               	movwf	USER_USB_CALLBACK_EVENT_HANDLER@pdata^0,c
  4193   001AD0  0E00               	movlw	0
  4194   001AD2  6E3F               	movwf	(USER_USB_CALLBACK_EVENT_HANDLER@pdata+1)^0,c
  4195   001AD4  0E00               	movlw	0
  4196   001AD6  6E41               	movwf	(USER_USB_CALLBACK_EVENT_HANDLER@size+1)^0,c
  4197   001AD8  0E00               	movlw	0
  4198   001ADA  6E40               	movwf	USER_USB_CALLBACK_EVENT_HANDLER@size^0,c
  4199   001ADC  EC00  F00C         	call	_USER_USB_CALLBACK_EVENT_HANDLER	;wreg free
  4200                           
  4201                           ;../framework/usb/src/usb_device.c: 2521:     USBCtrlEPServiceComplete();
  4202   001AE0  ECC2  F008         	call	_USBCtrlEPServiceComplete	;wreg free
  4203   001AE4  0012               	return		;funcret
  4204   001AE6                     __end_of_USBCtrlTrfSetupHandler:
  4205                           	callstack 0
  4206                           
  4207 ;; *************** function _USBCtrlEPServiceComplete *****************
  4208 ;; Defined at:
  4209 ;;		line 1620 in file "../framework/usb/src/usb_device.c"
  4210 ;; Parameters:    Size  Location     Type
  4211 ;;		None
  4212 ;; Auto vars:     Size  Location     Type
  4213 ;;		None
  4214 ;; Return value:  Size  Location     Type
  4215 ;;                  1    wreg      void 
  4216 ;; Registers used:
  4217 ;;		wreg, fsr1l, fsr1h, fsr2l, fsr2h, status,2, status,0, tblptrl, tblptrh, tblptru, cstack
  4218 ;; Tracked objects:
  4219 ;;		On entry : 0/0
  4220 ;;		On exit  : 0/0
  4221 ;;		Unchanged: 0/0
  4222 ;; Data sizes:     COMRAM   BANK0   BANK1  BANK2h  BANK2l
  4223 ;;      Params:         0       0       0       0       0
  4224 ;;      Locals:         0       0       0       0       0
  4225 ;;      Temps:          0       0       0       0       0
  4226 ;;      Totals:         0       0       0       0       0
  4227 ;;Total ram usage:        0 bytes
  4228 ;; Hardware stack levels used: 1
  4229 ;; Hardware stack levels required when called: 2
  4230 ;; This function calls:
  4231 ;;		_USBCtrlEPAllowDataStage
  4232 ;;		_USBCtrlEPAllowStatusStage
  4233 ;; This function is called by:
  4234 ;;		_USBCtrlTrfSetupHandler
  4235 ;; This function uses a non-reentrant model
  4236 ;;
  4237                           
  4238                           	psect	text26
  4239   001184                     __ptext26:
  4240                           	callstack 0
  4241   001184                     _USBCtrlEPServiceComplete:
  4242                           	callstack 21
  4243                           
  4244                           ;../framework/usb/src/usb_device.c: 1626:     UCONbits.PKTDIS = 0;
  4245                           
  4246                           ;incstack = 0
  4247   001184  9864               	bcf	100,4,c	;volatile
  4248                           
  4249                           ;../framework/usb/src/usb_device.c: 1632:     if(inPipes[0].info.bits.busy == 0)
  4250   001186  BE0C               	btfsc	(_inPipes+3)^0,7,c	;volatile
  4251   001188  D039               	goto	i2l412
  4252                           
  4253                           ;../framework/usb/src/usb_device.c: 1633:     {;../framework/usb/src/usb_device.c: 1634:
      +                                   if(outPipes[0].info.bits.busy == 1)
  4254   00118A  AE04               	btfss	(_outPipes+3)^0,7,c	;volatile
  4255   00118C  D00C               	goto	i2l4077
  4256                           
  4257                           ;../framework/usb/src/usb_device.c: 1635:         {;../framework/usb/src/usb_device.c: 1
      +                          636:             controlTransferState = 2;
  4258   00118E  0E02               	movlw	2
  4259   001190  6E28               	movwf	_controlTransferState^0,c	;volatile
  4260                           
  4261                           ;../framework/usb/src/usb_device.c: 1647:             if(USBDeferOUTDataStagePackets == 
      +                          0)
  4262   001192  0100               	movlb	0	; () banked
  4263   001194  517F               	movf	_USBDeferOUTDataStagePackets& (0+255),w,b	;volatile
  4264   001196  B4D8               	btfsc	status,2,c
  4265                           
  4266                           ; BSR set to: 0
  4267                           ;../framework/usb/src/usb_device.c: 1648:             {;../framework/usb/src/usb_device.
      +                          c: 1649:                 USBCtrlEPAllowDataStage();
  4268   001198  EC97  F00C         	call	_USBCtrlEPAllowDataStage	;wreg free
  4269                           
  4270                           ; BSR set to: 0
  4271                           ;../framework/usb/src/usb_device.c: 1654:             USBStatusStageEnabledFlag2 = 0;
  4272   00119C  0E00               	movlw	0
  4273   00119E  6F81               	movwf	_USBStatusStageEnabledFlag2& (0+255),b	;volatile
  4274                           
  4275                           ; BSR set to: 0
  4276                           ;../framework/usb/src/usb_device.c: 1655:             USBStatusStageEnabledFlag1 = 0;
  4277   0011A0  0E00               	movlw	0
  4278   0011A2  6F82               	movwf	_USBStatusStageEnabledFlag1& (0+255),b	;volatile
  4279                           
  4280                           ;../framework/usb/src/usb_device.c: 1656:         }
  4281   0011A4  0012               	return	
  4282   0011A6                     i2l4077:
  4283                           
  4284                           ;../framework/usb/src/usb_device.c: 1658:         {;../framework/usb/src/usb_device.c: 1
      +                          663:             pBDTEntryEP0OutNext->CNT = 8;
  4285   0011A6  EE20 F001          	lfsr	2,1
  4286   0011AA  501D               	movf	_pBDTEntryEP0OutNext^0,w,c
  4287   0011AC  26D9               	addwf	fsr2l,f,c
  4288   0011AE  501E               	movf	(_pBDTEntryEP0OutNext+1)^0,w,c
  4289   0011B0  22DA               	addwfc	fsr2h,f,c
  4290   0011B2  0E08               	movlw	8
  4291   0011B4  6EDF               	movwf	indf2,c
  4292                           
  4293                           ;../framework/usb/src/usb_device.c: 1664:             pBDTEntryEP0OutNext->ADR = ((uint1
      +                          6_t)(&SetupPkt));
  4294   0011B6  EE20 F002          	lfsr	2,2
  4295   0011BA  501D               	movf	_pBDTEntryEP0OutNext^0,w,c
  4296   0011BC  26D9               	addwf	fsr2l,f,c
  4297   0011BE  501E               	movf	(_pBDTEntryEP0OutNext+1)^0,w,c
  4298   0011C0  22DA               	addwfc	fsr2h,f,c
  4299   0011C2  0E20               	movlw	32
  4300   0011C4  6EDE               	movwf	postinc2,c
  4301   0011C6  0E02               	movlw	2
  4302   0011C8  6EDD               	movwf	postdec2,c
  4303                           
  4304                           ;../framework/usb/src/usb_device.c: 1665:             pBDTEntryEP0OutNext->STAT.Val = 0x
      +                          00|(0x08 & 0x08)|0x04;
  4305   0011CA  C01D  FFD9         	movff	_pBDTEntryEP0OutNext,fsr2l
  4306   0011CE  C01E  FFDA         	movff	_pBDTEntryEP0OutNext+1,fsr2h
  4307   0011D2  0E0C               	movlw	12
  4308   0011D4  6EDF               	movwf	indf2,c
  4309                           
  4310                           ;../framework/usb/src/usb_device.c: 1666:             pBDTEntryEP0OutNext->STAT.Val |= 0
      +                          x80;
  4311   0011D6  C01D  FFD9         	movff	_pBDTEntryEP0OutNext,fsr2l
  4312   0011DA  C01E  FFDA         	movff	_pBDTEntryEP0OutNext+1,fsr2h
  4313   0011DE  0E00               	movlw	0
  4314   0011E0  8EDB               	bsf	plusw2,7,c
  4315                           
  4316                           ;../framework/usb/src/usb_device.c: 1667:             pBDTEntryIn[0]->STAT.Val = 0x04;
  4317   0011E2  C00F  FFD9         	movff	_pBDTEntryIn,fsr2l
  4318   0011E6  C010  FFDA         	movff	_pBDTEntryIn+1,fsr2h
  4319   0011EA  0E04               	movlw	4
  4320   0011EC  6EDF               	movwf	indf2,c
  4321                           
  4322                           ;../framework/usb/src/usb_device.c: 1668:             pBDTEntryIn[0]->STAT.Val |= 0x80;
  4323   0011EE  C00F  FFD9         	movff	_pBDTEntryIn,fsr2l
  4324   0011F2  C010  FFDA         	movff	_pBDTEntryIn+1,fsr2h
  4325   0011F6  0E00               	movlw	0
  4326   0011F8  8EDB               	bsf	plusw2,7,c
  4327   0011FA  0012               	return	
  4328   0011FC                     i2l412:
  4329                           
  4330                           ;../framework/usb/src/usb_device.c: 1672:     {;../framework/usb/src/usb_device.c: 1673:
      +                             if(SetupPkt.DataDir == (0x80>>7))
  4331   0011FC  0102               	movlb	2	; () banked
  4332   0011FE  AF20               	btfss	32,7,b	;volatile
  4333   001200  D011               	goto	i2l4097
  4334                           
  4335                           ; BSR set to: 2
  4336                           ;../framework/usb/src/usb_device.c: 1674:   {;../framework/usb/src/usb_device.c: 1675:  
      +                            controlTransferState = 1;
  4337   001202  0E01               	movlw	1
  4338   001204  6E28               	movwf	_controlTransferState^0,c	;volatile
  4339                           
  4340                           ;../framework/usb/src/usb_device.c: 1689:    if(USBDeferINDataStagePackets == 0)
  4341   001206  0100               	movlb	0	; () banked
  4342   001208  5180               	movf	_USBDeferINDataStagePackets& (0+255),w,b	;volatile
  4343   00120A  B4D8               	btfsc	status,2,c
  4344                           
  4345                           ; BSR set to: 0
  4346                           ;../framework/usb/src/usb_device.c: 1690:             {;../framework/usb/src/usb_device.
      +                          c: 1691:                 USBCtrlEPAllowDataStage();
  4347   00120C  EC97  F00C         	call	_USBCtrlEPAllowDataStage	;wreg free
  4348                           
  4349                           ; BSR set to: 0
  4350                           ;../framework/usb/src/usb_device.c: 1714:             USBStatusStageEnabledFlag2 = 0;
  4351   001210  0E00               	movlw	0
  4352   001212  6F81               	movwf	_USBStatusStageEnabledFlag2& (0+255),b	;volatile
  4353                           
  4354                           ; BSR set to: 0
  4355                           ;../framework/usb/src/usb_device.c: 1715:             USBStatusStageEnabledFlag1 = 0;
  4356   001214  0E00               	movlw	0
  4357   001216  6F82               	movwf	_USBStatusStageEnabledFlag1& (0+255),b	;volatile
  4358                           
  4359                           ; BSR set to: 0
  4360                           ;../framework/usb/src/usb_device.c: 1716:             if(USBDeferStatusStagePacket == 0)
  4361   001218  5023               	movf	_USBDeferStatusStagePacket^0,w,c	;volatile
  4362   00121A  A4D8               	btfss	status,2,c
  4363   00121C  0012               	return	
  4364                           
  4365                           ; BSR set to: 0
  4366                           ;../framework/usb/src/usb_device.c: 1717:             {;../framework/usb/src/usb_device.
      +                          c: 1718:                 USBCtrlEPAllowStatusStage();
  4367   00121E  EC4C  F00B         	call	_USBCtrlEPAllowStatusStage	;wreg free
  4368   001222  0012               	return	
  4369   001224                     i2l4097:
  4370                           
  4371                           ; BSR set to: 2
  4372                           ;../framework/usb/src/usb_device.c: 1722:   {;../framework/usb/src/usb_device.c: 1733:  
      +                            controlTransferState = 2;
  4373   001224  0E02               	movlw	2
  4374   001226  6E28               	movwf	_controlTransferState^0,c	;volatile
  4375                           
  4376                           ; BSR set to: 2
  4377                           ;../framework/usb/src/usb_device.c: 1736:    pBDTEntryEP0OutNext->CNT = 8;
  4378   001228  EE20 F001          	lfsr	2,1
  4379   00122C  501D               	movf	_pBDTEntryEP0OutNext^0,w,c
  4380   00122E  26D9               	addwf	fsr2l,f,c
  4381   001230  501E               	movf	(_pBDTEntryEP0OutNext+1)^0,w,c
  4382   001232  22DA               	addwfc	fsr2h,f,c
  4383   001234  0E08               	movlw	8
  4384   001236  6EDF               	movwf	indf2,c
  4385                           
  4386                           ; BSR set to: 2
  4387                           ;../framework/usb/src/usb_device.c: 1737:    pBDTEntryEP0OutNext->ADR = ((uint16_t)(&Set
      +                          upPkt));
  4388   001238  EE20 F002          	lfsr	2,2
  4389   00123C  501D               	movf	_pBDTEntryEP0OutNext^0,w,c
  4390   00123E  26D9               	addwf	fsr2l,f,c
  4391   001240  501E               	movf	(_pBDTEntryEP0OutNext+1)^0,w,c
  4392   001242  22DA               	addwfc	fsr2h,f,c
  4393   001244  0E20               	movlw	32
  4394   001246  6EDE               	movwf	postinc2,c
  4395   001248  0E02               	movlw	2
  4396   00124A  6EDD               	movwf	postdec2,c
  4397                           
  4398                           ; BSR set to: 2
  4399                           ;../framework/usb/src/usb_device.c: 1738:    pBDTEntryEP0OutNext->STAT.Val = 0x04;
  4400   00124C  C01D  FFD9         	movff	_pBDTEntryEP0OutNext,fsr2l
  4401   001250  C01E  FFDA         	movff	_pBDTEntryEP0OutNext+1,fsr2h
  4402   001254  0E04               	movlw	4
  4403   001256  6EDF               	movwf	indf2,c
  4404                           
  4405                           ; BSR set to: 2
  4406                           ;../framework/usb/src/usb_device.c: 1739:             pBDTEntryEP0OutNext->STAT.Val |= 0
      +                          x80;
  4407   001258  C01D  FFD9         	movff	_pBDTEntryEP0OutNext,fsr2l
  4408   00125C  C01E  FFDA         	movff	_pBDTEntryEP0OutNext+1,fsr2h
  4409   001260  0E00               	movlw	0
  4410   001262  8EDB               	bsf	plusw2,7,c
  4411                           
  4412                           ; BSR set to: 2
  4413                           ;../framework/usb/src/usb_device.c: 1742:             USBStatusStageEnabledFlag2 = 0;
  4414   001264  0E00               	movlw	0
  4415   001266  0100               	movlb	0	; () banked
  4416   001268  D7D4               	goto	L17
  4417   00126A                     __end_of_USBCtrlEPServiceComplete:
  4418                           	callstack 0
  4419                           
  4420 ;; *************** function _USBCtrlEPAllowDataStage *****************
  4421 ;; Defined at:
  4422 ;;		line 1492 in file "../framework/usb/src/usb_device.c"
  4423 ;; Parameters:    Size  Location     Type
  4424 ;;		None
  4425 ;; Auto vars:     Size  Location     Type
  4426 ;;		None
  4427 ;; Return value:  Size  Location     Type
  4428 ;;                  1    wreg      void 
  4429 ;; Registers used:
  4430 ;;		wreg, fsr1l, fsr1h, fsr2l, fsr2h, status,2, status,0, tblptrl, tblptrh, tblptru, cstack
  4431 ;; Tracked objects:
  4432 ;;		On entry : 3F/0
  4433 ;;		On exit  : 3F/0
  4434 ;;		Unchanged: 0/0
  4435 ;; Data sizes:     COMRAM   BANK0   BANK1  BANK2h  BANK2l
  4436 ;;      Params:         0       0       0       0       0
  4437 ;;      Locals:         0       0       0       0       0
  4438 ;;      Temps:          0       0       0       0       0
  4439 ;;      Totals:         0       0       0       0       0
  4440 ;;Total ram usage:        0 bytes
  4441 ;; Hardware stack levels used: 1
  4442 ;; Hardware stack levels required when called: 1
  4443 ;; This function calls:
  4444 ;;		_USBCtrlTrfTxService
  4445 ;; This function is called by:
  4446 ;;		_USBCtrlEPServiceComplete
  4447 ;; This function uses a non-reentrant model
  4448 ;;
  4449                           
  4450                           	psect	text27
  4451   00192E                     __ptext27:
  4452                           	callstack 0
  4453   00192E                     _USBCtrlEPAllowDataStage:
  4454                           	callstack 21
  4455                           
  4456                           ; BSR set to: 0
  4457                           ;../framework/usb/src/usb_device.c: 1494:     USBDeferINDataStagePackets = 0;
  4458                           
  4459                           ;incstack = 0
  4460   00192E  0E00               	movlw	0
  4461   001930  6F80               	movwf	_USBDeferINDataStagePackets& (0+255),b	;volatile
  4462                           
  4463                           ;../framework/usb/src/usb_device.c: 1495:     USBDeferOUTDataStagePackets = 0;
  4464   001932  0E00               	movlw	0
  4465   001934  6F7F               	movwf	_USBDeferOUTDataStagePackets& (0+255),b	;volatile
  4466                           
  4467                           ; BSR set to: 0
  4468                           ;../framework/usb/src/usb_device.c: 1497:     if(controlTransferState == 2)
  4469   001936  0E02               	movlw	2
  4470   001938  1828               	xorwf	_controlTransferState^0,w,c	;volatile
  4471   00193A  A4D8               	btfss	status,2,c
  4472   00193C  D01F               	goto	i2l3851
  4473                           
  4474                           ; BSR set to: 0
  4475                           ;../framework/usb/src/usb_device.c: 1498:     {;../framework/usb/src/usb_device.c: 1500:
      +                                   pBDTEntryEP0OutNext->CNT = 8;
  4476   00193E  EE20 F001          	lfsr	2,1
  4477   001942  501D               	movf	_pBDTEntryEP0OutNext^0,w,c
  4478   001944  26D9               	addwf	fsr2l,f,c
  4479   001946  501E               	movf	(_pBDTEntryEP0OutNext+1)^0,w,c
  4480   001948  22DA               	addwfc	fsr2h,f,c
  4481   00194A  0E08               	movlw	8
  4482   00194C  6EDF               	movwf	indf2,c
  4483                           
  4484                           ;../framework/usb/src/usb_device.c: 1501:         pBDTEntryEP0OutNext->ADR = ((uint16_t)
      +                          (&CtrlTrfData));
  4485   00194E  EE20 F002          	lfsr	2,2
  4486   001952  501D               	movf	_pBDTEntryEP0OutNext^0,w,c
  4487   001954  26D9               	addwf	fsr2l,f,c
  4488   001956  501E               	movf	(_pBDTEntryEP0OutNext+1)^0,w,c
  4489   001958  22DA               	addwfc	fsr2h,f,c
  4490   00195A  0E28               	movlw	40
  4491   00195C  6EDE               	movwf	postinc2,c
  4492   00195E  0E02               	movlw	2
  4493   001960  6EDD               	movwf	postdec2,c
  4494                           
  4495                           ; BSR set to: 0
  4496                           ;../framework/usb/src/usb_device.c: 1502:         pBDTEntryEP0OutNext->STAT.Val = 0x40|(
      +                          0x08 & 0x08);
  4497   001962  C01D  FFD9         	movff	_pBDTEntryEP0OutNext,fsr2l
  4498   001966  C01E  FFDA         	movff	_pBDTEntryEP0OutNext+1,fsr2h
  4499   00196A  0E48               	movlw	72
  4500   00196C  6EDF               	movwf	indf2,c
  4501                           
  4502                           ; BSR set to: 0
  4503                           ;../framework/usb/src/usb_device.c: 1503:         pBDTEntryEP0OutNext->STAT.Val |= 0x80;
  4504   00196E  C01D  FFD9         	movff	_pBDTEntryEP0OutNext,fsr2l
  4505   001972  C01E  FFDA         	movff	_pBDTEntryEP0OutNext+1,fsr2h
  4506   001976  0E00               	movlw	0
  4507   001978  8EDB               	bsf	plusw2,7,c
  4508                           
  4509                           ;../framework/usb/src/usb_device.c: 1504:     }
  4510   00197A  0012               	return	
  4511   00197C                     i2l3851:
  4512                           
  4513                           ; BSR set to: 0
  4514                           ;../framework/usb/src/usb_device.c: 1506:     {;../framework/usb/src/usb_device.c: 1509:
      +                             if(SetupPkt.wLength < inPipes[0].wCount.Val)
  4515   00197C  500D               	movf	(_inPipes+4)^0,w,c	;volatile
  4516   00197E  0102               	movlb	2	; () banked
  4517   001980  5D26               	subwf	38,w,b	;volatile
  4518   001982  500E               	movf	(_inPipes+5)^0,w,c	;volatile
  4519   001984  5927               	subwfb	39,w,b	;volatile
  4520   001986  B0D8               	btfsc	status,0,c
  4521   001988  D004               	goto	i2l3855
  4522                           
  4523                           ; BSR set to: 2
  4524                           ;../framework/usb/src/usb_device.c: 1510:   {;../framework/usb/src/usb_device.c: 1511:  
      +                            inPipes[0].wCount.Val = SetupPkt.wLength;
  4525   00198A  C226 F00D          	movff	550,_inPipes+4	;volatile
  4526   00198E  C227 F00E          	movff	551,_inPipes+5	;volatile
  4527   001992                     i2l3855:
  4528                           
  4529                           ; BSR set to: 2
  4530                           ;../framework/usb/src/usb_device.c: 1513:   USBCtrlTrfTxService();
  4531   001992  EC84  F00A         	call	_USBCtrlTrfTxService	;wreg free
  4532                           
  4533                           ; BSR set to: 0
  4534                           ;../framework/usb/src/usb_device.c: 1518:   pBDTEntryIn[0]->ADR = ((uint16_t)(&CtrlTrfDa
      +                          ta));
  4535   001996  EE20 F002          	lfsr	2,2
  4536   00199A  500F               	movf	_pBDTEntryIn^0,w,c
  4537   00199C  26D9               	addwf	fsr2l,f,c
  4538   00199E  5010               	movf	(_pBDTEntryIn+1)^0,w,c
  4539   0019A0  22DA               	addwfc	fsr2h,f,c
  4540   0019A2  0E28               	movlw	40
  4541   0019A4  6EDE               	movwf	postinc2,c
  4542   0019A6  0E02               	movlw	2
  4543   0019A8  6EDD               	movwf	postdec2,c
  4544                           
  4545                           ; BSR set to: 0
  4546                           ;../framework/usb/src/usb_device.c: 1519:   pBDTEntryIn[0]->STAT.Val = 0x40|(0x08 & 0x08
      +                          );
  4547   0019AA  C00F  FFD9         	movff	_pBDTEntryIn,fsr2l
  4548   0019AE  C010  FFDA         	movff	_pBDTEntryIn+1,fsr2h
  4549   0019B2  0E48               	movlw	72
  4550   0019B4  6EDF               	movwf	indf2,c
  4551                           
  4552                           ; BSR set to: 0
  4553                           ;../framework/usb/src/usb_device.c: 1520:         pBDTEntryIn[0]->STAT.Val |= 0x80;
  4554   0019B6  C00F  FFD9         	movff	_pBDTEntryIn,fsr2l
  4555   0019BA  C010  FFDA         	movff	_pBDTEntryIn+1,fsr2h
  4556   0019BE  0E00               	movlw	0
  4557   0019C0  8EDB               	bsf	plusw2,7,c
  4558                           
  4559                           ; BSR set to: 0
  4560   0019C2  0012               	return		;funcret
  4561   0019C4                     __end_of_USBCtrlEPAllowDataStage:
  4562                           	callstack 0
  4563                           
  4564 ;; *************** function _USBCheckStdRequest *****************
  4565 ;; Defined at:
  4566 ;;		line 2693 in file "../framework/usb/src/usb_device.c"
  4567 ;; Parameters:    Size  Location     Type
  4568 ;;		None
  4569 ;; Auto vars:     Size  Location     Type
  4570 ;;		None
  4571 ;; Return value:  Size  Location     Type
  4572 ;;                  1    wreg      void 
  4573 ;; Registers used:
  4574 ;;		wreg, fsr1l, fsr1h, fsr2l, fsr2h, status,2, status,0, tblptrl, tblptrh, tblptru, prodl, prodh, cstack
  4575 ;; Tracked objects:
  4576 ;;		On entry : 3F/0
  4577 ;;		On exit  : 0/0
  4578 ;;		Unchanged: 0/0
  4579 ;; Data sizes:     COMRAM   BANK0   BANK1  BANK2h  BANK2l
  4580 ;;      Params:         0       0       0       0       0
  4581 ;;      Locals:         0       0       0       0       0
  4582 ;;      Temps:          2       0       0       0       0
  4583 ;;      Totals:         2       0       0       0       0
  4584 ;;Total ram usage:        2 bytes
  4585 ;; Hardware stack levels used: 1
  4586 ;; Hardware stack levels required when called: 5
  4587 ;; This function calls:
  4588 ;;		_USBStdFeatureReqHandler
  4589 ;;		_USBStdGetDscHandler
  4590 ;;		_USBStdGetStatusHandler
  4591 ;;		_USBStdSetCfgHandler
  4592 ;;		_USER_USB_CALLBACK_EVENT_HANDLER
  4593 ;; This function is called by:
  4594 ;;		_USBCtrlTrfSetupHandler
  4595 ;; This function uses a non-reentrant model
  4596 ;;
  4597                           
  4598                           	psect	text28
  4599   001434                     __ptext28:
  4600                           	callstack 0
  4601   001434                     _USBCheckStdRequest:
  4602                           	callstack 18
  4603                           
  4604                           ; BSR set to: 0
  4605                           ;../framework/usb/src/usb_device.c: 2695:     if(SetupPkt.RequestType != (0x00>>5)) retu
      +                          rn;
  4606                           
  4607                           ; BSR set to: 0
  4608                           ;incstack = 0
  4609   001434  0102               	movlb	2	; () banked
  4610   001436  3920               	swapf	32,w,b	;volatile
  4611   001438  32E8               	rrcf	wreg,f,c
  4612   00143A  0B03               	andlw	3
  4613   00143C  0900               	iorlw	0
  4614   00143E  A4D8               	btfss	status,2,c
  4615   001440  0012               	return	
  4616   001442  D03A               	goto	i2l4199
  4617   001444                     i2l538:
  4618                           
  4619                           ; BSR set to: 2
  4620                           ;../framework/usb/src/usb_device.c: 2700:             inPipes[0].info.bits.busy = 1;
  4621   001444  8E0C               	bsf	(_inPipes+3)^0,7,c	;volatile
  4622                           
  4623                           ; BSR set to: 2
  4624                           ;../framework/usb/src/usb_device.c: 2701:             USBDeviceState = ADR_PENDING_STATE
      +                          ;
  4625   001446  0E08               	movlw	8
  4626   001448  6E2A               	movwf	_USBDeviceState^0,c	;volatile
  4627                           
  4628                           ;../framework/usb/src/usb_device.c: 2703:             break;
  4629   00144A  0012               	return	
  4630   00144C                     i2l4169:
  4631                           
  4632                           ; BSR set to: 2
  4633                           ;../framework/usb/src/usb_device.c: 2705:             USBStdGetDscHandler();
  4634   00144C  ECB2  F006         	call	_USBStdGetDscHandler	;wreg free
  4635                           
  4636                           ;../framework/usb/src/usb_device.c: 2706:             break;
  4637   001450  0012               	return	
  4638   001452                     i2l4171:
  4639                           
  4640                           ; BSR set to: 2
  4641                           ;../framework/usb/src/usb_device.c: 2708:             USBStdSetCfgHandler();
  4642   001452  ECEA  F00A         	call	_USBStdSetCfgHandler	;wreg free
  4643                           
  4644                           ;../framework/usb/src/usb_device.c: 2709:             break;
  4645   001456  0012               	return	
  4646   001458                     i2l4173:
  4647                           
  4648                           ; BSR set to: 2
  4649                           ;../framework/usb/src/usb_device.c: 2711:             inPipes[0].pSrc.bRam = (uint8_t*)&
      +                          USBActiveConfiguration;
  4650   001458  0E2D               	movlw	low _USBActiveConfiguration
  4651   00145A  6E09               	movwf	_inPipes^0,c	;volatile
  4652   00145C  6A0A               	clrf	(_inPipes+1)^0,c	;volatile
  4653                           
  4654                           ; BSR set to: 2
  4655                           ;../framework/usb/src/usb_device.c: 2712:             inPipes[0].info.bits.ctrl_trf_mem 
      +                          = 0x01;
  4656   00145E  800C               	bsf	(_inPipes+3)^0,0,c	;volatile
  4657                           
  4658                           ; BSR set to: 2
  4659                           ;../framework/usb/src/usb_device.c: 2713:             inPipes[0].wCount.v[0] = 1;
  4660   001460  0E01               	movlw	1
  4661   001462  6E0D               	movwf	(_inPipes+4)^0,c	;volatile
  4662                           
  4663                           ; BSR set to: 2
  4664                           ;../framework/usb/src/usb_device.c: 2714:             inPipes[0].info.bits.busy = 1;
  4665   001464  8E0C               	bsf	(_inPipes+3)^0,7,c	;volatile
  4666                           
  4667                           ;../framework/usb/src/usb_device.c: 2715:             break;
  4668   001466  0012               	return	
  4669   001468                     i2l4181:
  4670                           
  4671                           ; BSR set to: 2
  4672                           ;../framework/usb/src/usb_device.c: 2717:             USBStdGetStatusHandler();
  4673   001468  ECAE  F00B         	call	_USBStdGetStatusHandler	;wreg free
  4674                           
  4675                           ;../framework/usb/src/usb_device.c: 2718:             break;
  4676   00146C  0012               	return	
  4677   00146E                     i2l4183:
  4678                           
  4679                           ; BSR set to: 2
  4680                           ;../framework/usb/src/usb_device.c: 2721:             USBStdFeatureReqHandler();
  4681   00146E  ECEA  F001         	call	_USBStdFeatureReqHandler	;wreg free
  4682                           
  4683                           ;../framework/usb/src/usb_device.c: 2722:             break;
  4684   001472  0012               	return	
  4685   001474                     i2l4185:
  4686                           
  4687                           ; BSR set to: 2
  4688                           ;../framework/usb/src/usb_device.c: 2724:             inPipes[0].pSrc.bRam = (uint8_t*)&
      +                          USBAlternateInterface[SetupPkt.bIntfID];
  4689   001474  5124               	movf	36,w,b	;volatile
  4690   001476  0F2C               	addlw	low _USBAlternateInterface
  4691   001478  6E4B               	movwf	??_USBCheckStdRequest^0,c
  4692   00147A  C04B  F009         	movff	??_USBCheckStdRequest,_inPipes	;volatile
  4693   00147E  6A0A               	clrf	(_inPipes+1)^0,c	;volatile
  4694                           
  4695                           ; BSR set to: 2
  4696                           ;../framework/usb/src/usb_device.c: 2725:             inPipes[0].info.bits.ctrl_trf_mem 
      +                          = 0x01;
  4697   001480  800C               	bsf	(_inPipes+3)^0,0,c	;volatile
  4698                           
  4699                           ; BSR set to: 2
  4700                           ;../framework/usb/src/usb_device.c: 2726:             inPipes[0].wCount.v[0] = 1;
  4701   001482  0E01               	movlw	1
  4702   001484  6E0D               	movwf	(_inPipes+4)^0,c	;volatile
  4703                           
  4704                           ; BSR set to: 2
  4705                           ;../framework/usb/src/usb_device.c: 2727:             inPipes[0].info.bits.busy = 1;
  4706   001486  8E0C               	bsf	(_inPipes+3)^0,7,c	;volatile
  4707                           
  4708                           ;../framework/usb/src/usb_device.c: 2728:             break;
  4709   001488  0012               	return	
  4710   00148A                     i2l547:
  4711                           
  4712                           ; BSR set to: 2
  4713                           ;../framework/usb/src/usb_device.c: 2730:             inPipes[0].info.bits.busy = 1;
  4714   00148A  8E0C               	bsf	(_inPipes+3)^0,7,c	;volatile
  4715                           
  4716                           ; BSR set to: 2
  4717                           ;../framework/usb/src/usb_device.c: 2731:             USBAlternateInterface[SetupPkt.bIn
      +                          tfID] = SetupPkt.bAltID;
  4718   00148C  5124               	movf	36,w,b	;volatile
  4719   00148E  0F2C               	addlw	low _USBAlternateInterface
  4720   001490  6ED9               	movwf	fsr2l,c
  4721   001492  6ADA               	clrf	fsr2h,c
  4722   001494  C222 FFDF          	movff	546,indf2	;volatile
  4723                           
  4724                           ;../framework/usb/src/usb_device.c: 2732:             break;
  4725   001498  0012               	return	
  4726   00149A                     i2l4195:
  4727                           
  4728                           ; BSR set to: 2
  4729                           ;../framework/usb/src/usb_device.c: 2734:             USER_USB_CALLBACK_EVENT_HANDLER((U
      +                          SB_EVENT)EVENT_SET_DESCRIPTOR,0,0);
  4730   00149A  0E00               	movlw	0
  4731   00149C  6E3D               	movwf	(USER_USB_CALLBACK_EVENT_HANDLER@event+1)^0,c
  4732   00149E  0E02               	movlw	2
  4733   0014A0  6E3C               	movwf	USER_USB_CALLBACK_EVENT_HANDLER@event^0,c
  4734   0014A2  0E00               	movlw	0
  4735   0014A4  6E3E               	movwf	USER_USB_CALLBACK_EVENT_HANDLER@pdata^0,c
  4736   0014A6  0E00               	movlw	0
  4737   0014A8  6E3F               	movwf	(USER_USB_CALLBACK_EVENT_HANDLER@pdata+1)^0,c
  4738   0014AA  0E00               	movlw	0
  4739   0014AC  6E41               	movwf	(USER_USB_CALLBACK_EVENT_HANDLER@size+1)^0,c
  4740   0014AE  0E00               	movlw	0
  4741   0014B0  6E40               	movwf	USER_USB_CALLBACK_EVENT_HANDLER@size^0,c
  4742   0014B2  EC00  F00C         	call	_USER_USB_CALLBACK_EVENT_HANDLER	;wreg free
  4743                           
  4744                           ;../framework/usb/src/usb_device.c: 2735:             break;
  4745   0014B6  0012               	return	
  4746   0014B8                     i2l4199:
  4747                           
  4748                           ; BSR set to: 2
  4749   0014B8  5121               	movf	33,w,b	;volatile
  4750   0014BA  6E4B               	movwf	??_USBCheckStdRequest^0,c
  4751   0014BC  6A4C               	clrf	(??_USBCheckStdRequest+1)^0,c
  4752                           
  4753                           ; Switch on 2 bytes has been partitioned into a top level switch of size 1, and 1 sub-sw
      +                          itches
  4754                           ; Switch size 1, requested type "simple"
  4755                           ; Number of cases is 1, Range of values is 0 to 0
  4756                           ; switch strategies available:
  4757                           ; Name         Instructions Cycles
  4758                           ; simple_byte            4     3 (average)
  4759                           ;	Chosen strategy is simple_byte
  4760   0014BE  504C               	movf	(??_USBCheckStdRequest+1)^0,w,c
  4761   0014C0  0A00               	xorlw	0	; case 0
  4762   0014C2  A4D8               	btfss	status,2,c
  4763   0014C4  0012               	return	
  4764                           
  4765                           ; BSR set to: 2
  4766                           ; Switch size 1, requested type "simple"
  4767                           ; Number of cases is 11, Range of values is 0 to 12
  4768                           ; switch strategies available:
  4769                           ; Name         Instructions Cycles
  4770                           ; simple_byte           34    18 (average)
  4771                           ;	Chosen strategy is simple_byte
  4772   0014C6  504B               	movf	??_USBCheckStdRequest^0,w,c
  4773   0014C8  0A00               	xorlw	0	; case 0
  4774   0014CA  B4D8               	btfsc	status,2,c
  4775   0014CC  D7CD               	goto	i2l4181
  4776   0014CE  0A01               	xorlw	1	; case 1
  4777   0014D0  B4D8               	btfsc	status,2,c
  4778   0014D2  D7CD               	goto	i2l4183
  4779   0014D4  0A02               	xorlw	2	; case 3
  4780   0014D6  B4D8               	btfsc	status,2,c
  4781   0014D8  D7CA               	goto	i2l4183
  4782   0014DA  0A06               	xorlw	6	; case 5
  4783   0014DC  B4D8               	btfsc	status,2,c
  4784   0014DE  D7B2               	goto	i2l538
  4785   0014E0  0A03               	xorlw	3	; case 6
  4786   0014E2  B4D8               	btfsc	status,2,c
  4787   0014E4  D7B3               	goto	i2l4169
  4788   0014E6  0A01               	xorlw	1	; case 7
  4789   0014E8  B4D8               	btfsc	status,2,c
  4790   0014EA  D7D7               	goto	i2l4195
  4791   0014EC  0A0F               	xorlw	15	; case 8
  4792   0014EE  B4D8               	btfsc	status,2,c
  4793   0014F0  D7B3               	goto	i2l4173
  4794   0014F2  0A01               	xorlw	1	; case 9
  4795   0014F4  B4D8               	btfsc	status,2,c
  4796   0014F6  D7AD               	goto	i2l4171
  4797   0014F8  0A03               	xorlw	3	; case 10
  4798   0014FA  B4D8               	btfsc	status,2,c
  4799   0014FC  D7BB               	goto	i2l4185
  4800   0014FE  0A01               	xorlw	1	; case 11
  4801   001500  B4D8               	btfsc	status,2,c
  4802   001502  D7C3               	goto	i2l547
  4803   001504  0A07               	xorlw	7	; case 12
  4804   001506  0012               	return	
  4805   001508                     __end_of_USBCheckStdRequest:
  4806                           	callstack 0
  4807                           
  4808 ;; *************** function _USBStdSetCfgHandler *****************
  4809 ;; Defined at:
  4810 ;;		line 1972 in file "../framework/usb/src/usb_device.c"
  4811 ;; Parameters:    Size  Location     Type
  4812 ;;		None
  4813 ;; Auto vars:     Size  Location     Type
  4814 ;;  i               1   22[COMRAM] unsigned char 
  4815 ;; Return value:  Size  Location     Type
  4816 ;;                  1    wreg      void 
  4817 ;; Registers used:
  4818 ;;		wreg, fsr2l, fsr2h, status,2, status,0, prodl, prodh, cstack
  4819 ;; Tracked objects:
  4820 ;;		On entry : 3D/2
  4821 ;;		On exit  : 0/0
  4822 ;;		Unchanged: 0/0
  4823 ;; Data sizes:     COMRAM   BANK0   BANK1  BANK2h  BANK2l
  4824 ;;      Params:         0       0       0       0       0
  4825 ;;      Locals:         1       0       0       0       0
  4826 ;;      Temps:          0       0       0       0       0
  4827 ;;      Totals:         1       0       0       0       0
  4828 ;;Total ram usage:        1 bytes
  4829 ;; Hardware stack levels used: 1
  4830 ;; Hardware stack levels required when called: 4
  4831 ;; This function calls:
  4832 ;;		_USER_USB_CALLBACK_EVENT_HANDLER
  4833 ;;		i2_memset
  4834 ;; This function is called by:
  4835 ;;		_USBCheckStdRequest
  4836 ;; This function uses a non-reentrant model
  4837 ;;
  4838                           
  4839                           	psect	text29
  4840   0015D4                     __ptext29:
  4841                           	callstack 0
  4842   0015D4                     _USBStdSetCfgHandler:
  4843                           	callstack 18
  4844                           
  4845                           ;../framework/usb/src/usb_device.c: 1974:     uint8_t i;;../framework/usb/src/usb_device
      +                          .c: 1977:     inPipes[0].info.bits.busy = 1;
  4846                           
  4847                           ;incstack = 0
  4848   0015D4  8E0C               	bsf	(_inPipes+3)^0,7,c	;volatile
  4849                           
  4850                           ;../framework/usb/src/usb_device.c: 1980:     memset((void*)&UEP1,0x00,(1));;
  4851   0015D6  0E54               	movlw	84
  4852   0015D8  6E2E               	movwf	i2memset@dest^0,c
  4853   0015DA  0E0F               	movlw	15
  4854   0015DC  6E2F               	movwf	(i2memset@dest+1)^0,c
  4855   0015DE  0E00               	movlw	0
  4856   0015E0  6E31               	movwf	(i2memset@c+1)^0,c
  4857   0015E2  0E00               	movlw	0
  4858   0015E4  6E30               	movwf	i2memset@c^0,c
  4859   0015E6  0E00               	movlw	0
  4860   0015E8  6E33               	movwf	(i2memset@n+1)^0,c
  4861   0015EA  0E01               	movlw	1
  4862   0015EC  6E32               	movwf	i2memset@n^0,c
  4863   0015EE  EC5D  F004         	call	i2_memset	;wreg free
  4864                           
  4865                           ;../framework/usb/src/usb_device.c: 1983:     memset((void*)&BDT[0], 0x00, sizeof(BDT));
  4866   0015F2  0E00               	movlw	0
  4867   0015F4  6E2E               	movwf	i2memset@dest^0,c
  4868   0015F6  0E02               	movlw	2
  4869   0015F8  6E2F               	movwf	(i2memset@dest+1)^0,c
  4870   0015FA  0E00               	movlw	0
  4871   0015FC  6E31               	movwf	(i2memset@c+1)^0,c
  4872   0015FE  0E00               	movlw	0
  4873   001600  6E30               	movwf	i2memset@c^0,c
  4874   001602  0E00               	movlw	0
  4875   001604  6E33               	movwf	(i2memset@n+1)^0,c
  4876   001606  0E20               	movlw	32
  4877   001608  6E32               	movwf	i2memset@n^0,c
  4878   00160A  EC5D  F004         	call	i2_memset	;wreg free
  4879                           
  4880                           ;../framework/usb/src/usb_device.c: 1986:     UCONbits.PPBRST = 1;
  4881   00160E  8C64               	bsf	100,6,c	;volatile
  4882                           
  4883                           ;../framework/usb/src/usb_device.c: 1991:  for(i = 0; i < (uint8_t)(1 +1u); i++)
  4884   001610  0E00               	movlw	0
  4885   001612  6E44               	movwf	USBStdSetCfgHandler@i^0,c
  4886   001614                     i2l3875:
  4887                           
  4888                           ;../framework/usb/src/usb_device.c: 1992:  {;../framework/usb/src/usb_device.c: 1993:   
      +                          ep_data_in[i].Val = 0u;
  4889   001614  5044               	movf	USBStdSetCfgHandler@i^0,w,c
  4890   001616  0F1B               	addlw	low _ep_data_in
  4891   001618  6ED9               	movwf	fsr2l,c
  4892   00161A  6ADA               	clrf	fsr2h,c
  4893   00161C  0E00               	movlw	0
  4894   00161E  6EDF               	movwf	indf2,c
  4895                           
  4896                           ;../framework/usb/src/usb_device.c: 1994:         ep_data_out[i].Val = 0u;
  4897   001620  5044               	movf	USBStdSetCfgHandler@i^0,w,c
  4898   001622  0F19               	addlw	low _ep_data_out
  4899   001624  6ED9               	movwf	fsr2l,c
  4900   001626  6ADA               	clrf	fsr2h,c
  4901   001628  0E00               	movlw	0
  4902   00162A  6EDF               	movwf	indf2,c
  4903                           
  4904                           ;../framework/usb/src/usb_device.c: 1995:  }
  4905   00162C  2A44               	incf	USBStdSetCfgHandler@i^0,f,c
  4906   00162E  0E01               	movlw	1
  4907   001630  6444               	cpfsgt	USBStdSetCfgHandler@i^0,c
  4908   001632  D7F0               	goto	i2l3875
  4909                           
  4910                           ;../framework/usb/src/usb_device.c: 1998:     memset((void*)&USBAlternateInterface,0x00,
      +                          1);
  4911   001634  0E2C               	movlw	low _USBAlternateInterface
  4912   001636  6E2E               	movwf	i2memset@dest^0,c
  4913   001638  6A2F               	clrf	(i2memset@dest+1)^0,c
  4914   00163A  0E00               	movlw	0
  4915   00163C  6E31               	movwf	(i2memset@c+1)^0,c
  4916   00163E  0E00               	movlw	0
  4917   001640  6E30               	movwf	i2memset@c^0,c
  4918   001642  0E00               	movlw	0
  4919   001644  6E33               	movwf	(i2memset@n+1)^0,c
  4920   001646  0E01               	movlw	1
  4921   001648  6E32               	movwf	i2memset@n^0,c
  4922   00164A  EC5D  F004         	call	i2_memset	;wreg free
  4923                           
  4924                           ;../framework/usb/src/usb_device.c: 2001:     UCONbits.PPBRST = 0;
  4925   00164E  9C64               	bcf	100,6,c	;volatile
  4926                           
  4927                           ;../framework/usb/src/usb_device.c: 2003:     pBDTEntryIn[0] = (volatile BDT_ENTRY*)&BDT
      +                          [2];
  4928   001650  0E08               	movlw	8
  4929   001652  6E0F               	movwf	_pBDTEntryIn^0,c
  4930   001654  0E02               	movlw	2
  4931   001656  6E10               	movwf	(_pBDTEntryIn+1)^0,c
  4932                           
  4933                           ;../framework/usb/src/usb_device.c: 2006:     pBDTEntryEP0OutCurrent = (volatile BDT_ENT
      +                          RY*)&BDT[0];
  4934   001658  0E00               	movlw	0
  4935   00165A  6E1F               	movwf	_pBDTEntryEP0OutCurrent^0,c
  4936   00165C  0E02               	movlw	2
  4937   00165E  6E20               	movwf	(_pBDTEntryEP0OutCurrent+1)^0,c
  4938                           
  4939                           ;../framework/usb/src/usb_device.c: 2007:     pBDTEntryEP0OutNext = pBDTEntryEP0OutCurre
      +                          nt;
  4940   001660  C01F  F01D         	movff	_pBDTEntryEP0OutCurrent,_pBDTEntryEP0OutNext
  4941   001664  C020  F01E         	movff	_pBDTEntryEP0OutCurrent+1,_pBDTEntryEP0OutNext+1
  4942                           
  4943                           ;../framework/usb/src/usb_device.c: 2010:     USBActiveConfiguration = SetupPkt.bConfigu
      +                          rationValue;
  4944   001668  C222 F02D          	movff	546,_USBActiveConfiguration	;volatile
  4945                           
  4946                           ;../framework/usb/src/usb_device.c: 2013:     if(USBActiveConfiguration == 0)
  4947   00166C  502D               	movf	_USBActiveConfiguration^0,w,c	;volatile
  4948   00166E  A4D8               	btfss	status,2,c
  4949   001670  D003               	goto	i2l3897
  4950                           
  4951                           ;../framework/usb/src/usb_device.c: 2014:     {;../framework/usb/src/usb_device.c: 2016:
      +                                   USBDeviceState = ADDRESS_STATE;
  4952   001672  0E10               	movlw	16
  4953   001674  6E2A               	movwf	_USBDeviceState^0,c	;volatile
  4954                           
  4955                           ;../framework/usb/src/usb_device.c: 2017:     }
  4956   001676  0012               	return	
  4957   001678                     i2l3897:
  4958                           
  4959                           ;../framework/usb/src/usb_device.c: 2019:     {;../framework/usb/src/usb_device.c: 2021:
      +                                   USER_USB_CALLBACK_EVENT_HANDLER((USB_EVENT)EVENT_CONFIGURED,(void*)&USBActiveCo
      +                          nfiguration,1);
  4960   001678  0E00               	movlw	0
  4961   00167A  6E3D               	movwf	(USER_USB_CALLBACK_EVENT_HANDLER@event+1)^0,c
  4962   00167C  0E01               	movlw	1
  4963   00167E  6E3C               	movwf	USER_USB_CALLBACK_EVENT_HANDLER@event^0,c
  4964   001680  0E2D               	movlw	low _USBActiveConfiguration
  4965   001682  6E3E               	movwf	USER_USB_CALLBACK_EVENT_HANDLER@pdata^0,c
  4966   001684  6A3F               	clrf	(USER_USB_CALLBACK_EVENT_HANDLER@pdata+1)^0,c
  4967   001686  0E00               	movlw	0
  4968   001688  6E41               	movwf	(USER_USB_CALLBACK_EVENT_HANDLER@size+1)^0,c
  4969   00168A  0E01               	movlw	1
  4970   00168C  6E40               	movwf	USER_USB_CALLBACK_EVENT_HANDLER@size^0,c
  4971   00168E  EC00  F00C         	call	_USER_USB_CALLBACK_EVENT_HANDLER	;wreg free
  4972                           
  4973                           ;../framework/usb/src/usb_device.c: 2026:         USBDeviceState = CONFIGURED_STATE;
  4974   001692  0E20               	movlw	32
  4975   001694  6E2A               	movwf	_USBDeviceState^0,c	;volatile
  4976   001696  0012               	return		;funcret
  4977   001698                     __end_of_USBStdSetCfgHandler:
  4978                           	callstack 0
  4979                           
  4980 ;; *************** function i2_memset *****************
  4981 ;; Defined at:
  4982 ;;		line 4 in file "C:\Program Files\Microchip\xc8\v2.40\pic\sources\c99\common\memset.c"
  4983 ;; Parameters:    Size  Location     Type
  4984 ;;  dest            2    0[COMRAM] PTR void 
  4985 ;;		 -> inputReport(8), USBAlternateInterface(1), BDT(32), UEP1(1), 
  4986 ;;  c               2    2[COMRAM] int 
  4987 ;;  n               2    4[COMRAM] unsigned int 
  4988 ;; Auto vars:     Size  Location     Type
  4989 ;;  s               2   10[COMRAM] PTR unsigned char 
  4990 ;;		 -> inputReport(8), USBAlternateInterface(1), BDT(32), UEP1(1), 
  4991 ;;  k               2    8[COMRAM] unsigned int 
  4992 ;; Return value:  Size  Location     Type
  4993 ;;                  2    0[COMRAM] PTR void 
  4994 ;; Registers used:
  4995 ;;		wreg, fsr2l, fsr2h, status,2, status,0
  4996 ;; Tracked objects:
  4997 ;;		On entry : 0/F
  4998 ;;		On exit  : 0/0
  4999 ;;		Unchanged: 0/0
  5000 ;; Data sizes:     COMRAM   BANK0   BANK1  BANK2h  BANK2l
  5001 ;;      Params:         6       0       0       0       0
  5002 ;;      Locals:         4       0       0       0       0
  5003 ;;      Temps:          2       0       0       0       0
  5004 ;;      Totals:        12       0       0       0       0
  5005 ;;Total ram usage:       12 bytes
  5006 ;; Hardware stack levels used: 1
  5007 ;; This function calls:
  5008 ;;		Nothing
  5009 ;; This function is called by:
  5010 ;;		_USBStdSetCfgHandler
  5011 ;;		i2_USBDeviceInit
  5012 ;; This function uses a non-reentrant model
  5013 ;;
  5014                           
  5015                           	psect	text30
  5016   0008BA                     __ptext30:
  5017                           	callstack 0
  5018   0008BA                     i2_memset:
  5019                           	callstack 24
  5020                           
  5021                           ;incstack = 0
  5022   0008BA  C02E  F038         	movff	i2memset@dest,i2memset@s
  5023   0008BE  C02F  F039         	movff	i2memset@dest+1,i2memset@s+1
  5024   0008C2  5032               	movf	i2memset@n^0,w,c
  5025   0008C4  1033               	iorwf	(i2memset@n+1)^0,w,c
  5026   0008C6  B4D8               	btfsc	status,2,c
  5027   0008C8  0012               	return	
  5028   0008CA  C038  FFD9         	movff	i2memset@s,fsr2l
  5029   0008CE  C039  FFDA         	movff	i2memset@s+1,fsr2h
  5030   0008D2  C030  FFDF         	movff	i2memset@c,indf2
  5031   0008D6  5032               	movf	i2memset@n^0,w,c
  5032   0008D8  2438               	addwf	i2memset@s^0,w,c
  5033   0008DA  6E34               	movwf	??i2_memset^0,c
  5034   0008DC  5033               	movf	(i2memset@n+1)^0,w,c
  5035   0008DE  2039               	addwfc	(i2memset@s+1)^0,w,c
  5036   0008E0  6E35               	movwf	(??i2_memset+1)^0,c
  5037   0008E2  0EFF               	movlw	255
  5038   0008E4  2434               	addwf	??i2_memset^0,w,c
  5039   0008E6  6ED9               	movwf	fsr2l,c
  5040   0008E8  0EFF               	movlw	255
  5041   0008EA  2035               	addwfc	(??i2_memset+1)^0,w,c
  5042   0008EC  6EDA               	movwf	fsr2h,c
  5043   0008EE  C030  FFDF         	movff	i2memset@c,indf2
  5044   0008F2  5033               	movf	(i2memset@n+1)^0,w,c
  5045   0008F4  E104               	bnz	i2l3785
  5046   0008F6  0E03               	movlw	3
  5047   0008F8  5C32               	subwf	i2memset@n^0,w,c
  5048   0008FA  A0D8               	btfss	status,0,c
  5049   0008FC  0012               	return	
  5050   0008FE                     i2l3785:
  5051   0008FE  EE20 F001          	lfsr	2,1
  5052   000902  5038               	movf	i2memset@s^0,w,c
  5053   000904  26D9               	addwf	fsr2l,f,c
  5054   000906  5039               	movf	(i2memset@s+1)^0,w,c
  5055   000908  22DA               	addwfc	fsr2h,f,c
  5056   00090A  C030  FFDF         	movff	i2memset@c,indf2
  5057   00090E  EE20 F002          	lfsr	2,2
  5058   000912  5038               	movf	i2memset@s^0,w,c
  5059   000914  26D9               	addwf	fsr2l,f,c
  5060   000916  5039               	movf	(i2memset@s+1)^0,w,c
  5061   000918  22DA               	addwfc	fsr2h,f,c
  5062   00091A  C030  FFDF         	movff	i2memset@c,indf2
  5063   00091E  5032               	movf	i2memset@n^0,w,c
  5064   000920  2438               	addwf	i2memset@s^0,w,c
  5065   000922  6E34               	movwf	??i2_memset^0,c
  5066   000924  5033               	movf	(i2memset@n+1)^0,w,c
  5067   000926  2039               	addwfc	(i2memset@s+1)^0,w,c
  5068   000928  6E35               	movwf	(??i2_memset+1)^0,c
  5069   00092A  0EFE               	movlw	254
  5070   00092C  2434               	addwf	??i2_memset^0,w,c
  5071   00092E  6ED9               	movwf	fsr2l,c
  5072   000930  0EFF               	movlw	255
  5073   000932  2035               	addwfc	(??i2_memset+1)^0,w,c
  5074   000934  6EDA               	movwf	fsr2h,c
  5075   000936  C030  FFDF         	movff	i2memset@c,indf2
  5076   00093A  5032               	movf	i2memset@n^0,w,c
  5077   00093C  2438               	addwf	i2memset@s^0,w,c
  5078   00093E  6E34               	movwf	??i2_memset^0,c
  5079   000940  5033               	movf	(i2memset@n+1)^0,w,c
  5080   000942  2039               	addwfc	(i2memset@s+1)^0,w,c
  5081   000944  6E35               	movwf	(??i2_memset+1)^0,c
  5082   000946  0EFD               	movlw	253
  5083   000948  2434               	addwf	??i2_memset^0,w,c
  5084   00094A  6ED9               	movwf	fsr2l,c
  5085   00094C  0EFF               	movlw	255
  5086   00094E  2035               	addwfc	(??i2_memset+1)^0,w,c
  5087   000950  6EDA               	movwf	fsr2h,c
  5088   000952  C030  FFDF         	movff	i2memset@c,indf2
  5089   000956  5033               	movf	(i2memset@n+1)^0,w,c
  5090   000958  E104               	bnz	i2l3791
  5091   00095A  0E07               	movlw	7
  5092   00095C  5C32               	subwf	i2memset@n^0,w,c
  5093   00095E  A0D8               	btfss	status,0,c
  5094   000960  0012               	return	
  5095   000962                     i2l3791:
  5096   000962  EE20 F003          	lfsr	2,3
  5097   000966  5038               	movf	i2memset@s^0,w,c
  5098   000968  26D9               	addwf	fsr2l,f,c
  5099   00096A  5039               	movf	(i2memset@s+1)^0,w,c
  5100   00096C  22DA               	addwfc	fsr2h,f,c
  5101   00096E  C030  FFDF         	movff	i2memset@c,indf2
  5102   000972  5032               	movf	i2memset@n^0,w,c
  5103   000974  2438               	addwf	i2memset@s^0,w,c
  5104   000976  6E34               	movwf	??i2_memset^0,c
  5105   000978  5033               	movf	(i2memset@n+1)^0,w,c
  5106   00097A  2039               	addwfc	(i2memset@s+1)^0,w,c
  5107   00097C  6E35               	movwf	(??i2_memset+1)^0,c
  5108   00097E  0EFC               	movlw	252
  5109   000980  2434               	addwf	??i2_memset^0,w,c
  5110   000982  6ED9               	movwf	fsr2l,c
  5111   000984  0EFF               	movlw	255
  5112   000986  2035               	addwfc	(??i2_memset+1)^0,w,c
  5113   000988  6EDA               	movwf	fsr2h,c
  5114   00098A  C030  FFDF         	movff	i2memset@c,indf2
  5115   00098E  5033               	movf	(i2memset@n+1)^0,w,c
  5116   000990  E104               	bnz	i2l3797
  5117   000992  0E09               	movlw	9
  5118   000994  5C32               	subwf	i2memset@n^0,w,c
  5119   000996  A0D8               	btfss	status,0,c
  5120   000998  0012               	return	
  5121   00099A                     i2l3797:
  5122   00099A  C038  F034         	movff	i2memset@s,??i2_memset
  5123   00099E  C039  F035         	movff	i2memset@s+1,??i2_memset+1
  5124   0009A2  1E34               	comf	??i2_memset^0,f,c
  5125   0009A4  1E35               	comf	(??i2_memset+1)^0,f,c
  5126   0009A6  4A34               	infsnz	??i2_memset^0,f,c
  5127   0009A8  2A35               	incf	(??i2_memset+1)^0,f,c
  5128   0009AA  0E03               	movlw	3
  5129   0009AC  1434               	andwf	??i2_memset^0,w,c
  5130   0009AE  6E36               	movwf	i2memset@k^0,c
  5131   0009B0  6A37               	clrf	(i2memset@k+1)^0,c
  5132   0009B2  5036               	movf	i2memset@k^0,w,c
  5133   0009B4  2638               	addwf	i2memset@s^0,f,c
  5134   0009B6  5037               	movf	(i2memset@k+1)^0,w,c
  5135   0009B8  2239               	addwfc	(i2memset@s+1)^0,f,c
  5136   0009BA  5036               	movf	i2memset@k^0,w,c
  5137   0009BC  5E32               	subwf	i2memset@n^0,f,c
  5138   0009BE  5037               	movf	(i2memset@k+1)^0,w,c
  5139   0009C0  5A33               	subwfb	(i2memset@n+1)^0,f,c
  5140   0009C2  0EFC               	movlw	252
  5141   0009C4  1632               	andwf	i2memset@n^0,f,c
  5142   0009C6  0EFF               	movlw	255
  5143   0009C8  1633               	andwf	(i2memset@n+1)^0,f,c
  5144   0009CA  D00B               	goto	i2l3805
  5145   0009CC                     i2l3799:
  5146   0009CC  C038  FFD9         	movff	i2memset@s,fsr2l
  5147   0009D0  C039  FFDA         	movff	i2memset@s+1,fsr2h
  5148   0009D4  C030  FFDF         	movff	i2memset@c,indf2
  5149   0009D8  0632               	decf	i2memset@n^0,f,c
  5150   0009DA  A0D8               	btfss	status,0,c
  5151   0009DC  0633               	decf	(i2memset@n+1)^0,f,c
  5152   0009DE  4A38               	infsnz	i2memset@s^0,f,c
  5153   0009E0  2A39               	incf	(i2memset@s+1)^0,f,c
  5154   0009E2                     i2l3805:
  5155   0009E2  5032               	movf	i2memset@n^0,w,c
  5156   0009E4  1033               	iorwf	(i2memset@n+1)^0,w,c
  5157   0009E6  B4D8               	btfsc	status,2,c
  5158   0009E8  0012               	return	
  5159   0009EA  D7F0               	goto	i2l3799
  5160   0009EC                     __end_ofi2_memset:
  5161                           	callstack 0
  5162                           
  5163 ;; *************** function _USBStdGetStatusHandler *****************
  5164 ;; Defined at:
  5165 ;;		line 2133 in file "../framework/usb/src/usb_device.c"
  5166 ;; Parameters:    Size  Location     Type
  5167 ;;		None
  5168 ;; Auto vars:     Size  Location     Type
  5169 ;;  p               2    2[COMRAM] PTR struct __BDT
  5170 ;;		 -> RAM(767), NULL(0), BDT(32), 
  5171 ;; Return value:  Size  Location     Type
  5172 ;;                  1    wreg      void 
  5173 ;; Registers used:
  5174 ;;		wreg, fsr2l, fsr2h, status,2, status,0, prodl, prodh
  5175 ;; Tracked objects:
  5176 ;;		On entry : 3D/2
  5177 ;;		On exit  : 3F/2
  5178 ;;		Unchanged: 0/0
  5179 ;; Data sizes:     COMRAM   BANK0   BANK1  BANK2h  BANK2l
  5180 ;;      Params:         0       0       0       0       0
  5181 ;;      Locals:         2       0       0       0       0
  5182 ;;      Temps:          2       0       0       0       0
  5183 ;;      Totals:         4       0       0       0       0
  5184 ;;Total ram usage:        4 bytes
  5185 ;; Hardware stack levels used: 1
  5186 ;; This function calls:
  5187 ;;		Nothing
  5188 ;; This function is called by:
  5189 ;;		_USBCheckStdRequest
  5190 ;; This function uses a non-reentrant model
  5191 ;;
  5192                           
  5193                           	psect	text31
  5194   00175C                     __ptext31:
  5195                           	callstack 0
  5196   00175C                     _USBStdGetStatusHandler:
  5197                           	callstack 22
  5198                           
  5199                           ;../framework/usb/src/usb_device.c: 2135:     CtrlTrfData[0] = 0;
  5200                           
  5201                           ;incstack = 0
  5202   00175C  0E00               	movlw	0
  5203   00175E  0102               	movlb	2	; () banked
  5204   001760  6F28               	movwf	40,b	;volatile
  5205                           
  5206                           ;../framework/usb/src/usb_device.c: 2136:     CtrlTrfData[1] = 0;
  5207   001762  0E00               	movlw	0
  5208   001764  6F29               	movwf	41,b	;volatile
  5209                           
  5210                           ;../framework/usb/src/usb_device.c: 2138:     switch(SetupPkt.Recipient)
  5211   001766  D030               	goto	i2l3963
  5212   001768                     i2l475:
  5213                           
  5214                           ; BSR set to: 2
  5215                           ;../framework/usb/src/usb_device.c: 2141:             inPipes[0].info.bits.busy = 1;
  5216   001768  8E0C               	bsf	(_inPipes+3)^0,7,c	;volatile
  5217                           
  5218                           ; BSR set to: 2
  5219                           ;../framework/usb/src/usb_device.c: 2151:             if(RemoteWakeup == 1)
  5220                           
  5221                           ;../framework/usb/src/usb_device.c: 2146:             if(0 == 1)
  5222   00176A  0427               	decf	_RemoteWakeup^0,w,c	;volatile
  5223   00176C  A4D8               	btfss	status,2,c
  5224   00176E  D03E               	goto	i2l478
  5225                           
  5226                           ; BSR set to: 2
  5227                           ;../framework/usb/src/usb_device.c: 2152:             {;../framework/usb/src/usb_device.
      +                          c: 2153:                 CtrlTrfData[0]|=0x02;
  5228   001770  8328               	bsf	40,1,b	;volatile
  5229   001772  D03C               	goto	i2l478
  5230   001774                     i2l479:
  5231                           
  5232                           ; BSR set to: 2
  5233                           ;../framework/usb/src/usb_device.c: 2157:             inPipes[0].info.bits.busy = 1;
  5234   001774  8E0C               	bsf	(_inPipes+3)^0,7,c	;volatile
  5235                           
  5236                           ;../framework/usb/src/usb_device.c: 2158:             break;
  5237   001776  D03A               	goto	i2l478
  5238   001778                     i2l480:
  5239                           
  5240                           ; BSR set to: 2
  5241                           ;../framework/usb/src/usb_device.c: 2160:             inPipes[0].info.bits.busy = 1;
  5242   001778  8E0C               	bsf	(_inPipes+3)^0,7,c	;volatile
  5243                           
  5244                           ; BSR set to: 2
  5245                           ;../framework/usb/src/usb_device.c: 2164:             if(SetupPkt.EPNum != 0)
  5246   00177A  5124               	movf	36,w,b	;volatile
  5247   00177C  0B0F               	andlw	15
  5248   00177E  0900               	iorlw	0
  5249   001780  B4D8               	btfsc	status,2,c
  5250   001782  D034               	goto	i2l478
  5251                           
  5252                           ; BSR set to: 2
  5253                           ;../framework/usb/src/usb_device.c: 2165:             {;../framework/usb/src/usb_device.
      +                          c: 2166:                 BDT_ENTRY *p;;../framework/usb/src/usb_device.c: 2168:         
      +                                  if(SetupPkt.EPDir == 0)
  5254   001784  BF24               	btfsc	36,7,b	;volatile
  5255   001786  D006               	goto	i2l3953
  5256                           
  5257                           ; BSR set to: 2
  5258                           ;../framework/usb/src/usb_device.c: 2169:                 {;../framework/usb/src/usb_dev
      +                          ice.c: 2170:                     p = (BDT_ENTRY*)pBDTEntryOut[SetupPkt.EPNum];
  5259   001788  5124               	movf	36,w,b	;volatile
  5260   00178A  0B0F               	andlw	15
  5261   00178C  0D02               	mullw	2
  5262   00178E  50F3               	movf	243,w,c
  5263   001790  0F13               	addlw	low _pBDTEntryOut
  5264   001792  D005               	goto	L4
  5265   001794                     i2l3953:
  5266                           
  5267                           ; BSR set to: 2
  5268                           ;../framework/usb/src/usb_device.c: 2173:                 {;../framework/usb/src/usb_dev
      +                          ice.c: 2174:                     p = (BDT_ENTRY*)pBDTEntryIn[SetupPkt.EPNum];
  5269   001794  5124               	movf	36,w,b	;volatile
  5270   001796  0B0F               	andlw	15
  5271   001798  0D02               	mullw	2
  5272   00179A  50F3               	movf	243,w,c
  5273   00179C  0F0F               	addlw	low _pBDTEntryIn
  5274   00179E                     L4:
  5275   00179E  6ED9               	movwf	fsr2l,c
  5276   0017A0  6ADA               	clrf	fsr2h,c
  5277   0017A2  CFDE F030          	movff	postinc2,USBStdGetStatusHandler@p
  5278   0017A6  CFDD F031          	movff	postdec2,USBStdGetStatusHandler@p+1
  5279                           
  5280                           ; BSR set to: 2
  5281                           ;../framework/usb/src/usb_device.c: 2177:                 if((p->STAT.UOWN == 1) && (p->
      +                          STAT.BSTALL == 1))
  5282   0017AA  C030  FFD9         	movff	USBStdGetStatusHandler@p,fsr2l
  5283   0017AE  C031  FFDA         	movff	USBStdGetStatusHandler@p+1,fsr2h
  5284   0017B2  AEDF               	btfss	indf2,7,c
  5285   0017B4  D01B               	goto	i2l478
  5286                           
  5287                           ; BSR set to: 2
  5288   0017B6  C030  FFD9         	movff	USBStdGetStatusHandler@p,fsr2l
  5289   0017BA  C031  FFDA         	movff	USBStdGetStatusHandler@p+1,fsr2h
  5290   0017BE  A4DF               	btfss	indf2,2,c
  5291   0017C0  D015               	goto	i2l478
  5292                           
  5293                           ; BSR set to: 2
  5294                           ;../framework/usb/src/usb_device.c: 2178:                 {;../framework/usb/src/usb_dev
      +                          ice.c: 2179:                     CtrlTrfData[0]=0x01;
  5295   0017C2  0E01               	movlw	1
  5296   0017C4  6F28               	movwf	40,b	;volatile
  5297   0017C6  D012               	goto	i2l478
  5298   0017C8                     i2l3963:
  5299                           
  5300                           ; BSR set to: 2
  5301   0017C8  5120               	movf	32,w,b	;volatile
  5302   0017CA  0B1F               	andlw	31
  5303   0017CC  6E2E               	movwf	??_USBStdGetStatusHandler^0,c
  5304   0017CE  6A2F               	clrf	(??_USBStdGetStatusHandler+1)^0,c
  5305                           
  5306                           ; Switch on 2 bytes has been partitioned into a top level switch of size 1, and 1 sub-sw
      +                          itches
  5307                           ; Switch size 1, requested type "simple"
  5308                           ; Number of cases is 1, Range of values is 0 to 0
  5309                           ; switch strategies available:
  5310                           ; Name         Instructions Cycles
  5311                           ; simple_byte            4     3 (average)
  5312                           ;	Chosen strategy is simple_byte
  5313   0017D0  502F               	movf	(??_USBStdGetStatusHandler+1)^0,w,c
  5314   0017D2  0A00               	xorlw	0	; case 0
  5315   0017D4  A4D8               	btfss	status,2,c
  5316   0017D6  D00A               	goto	i2l478
  5317                           
  5318                           ; BSR set to: 2
  5319                           ; Switch size 1, requested type "simple"
  5320                           ; Number of cases is 3, Range of values is 0 to 2
  5321                           ; switch strategies available:
  5322                           ; Name         Instructions Cycles
  5323                           ; simple_byte           10     6 (average)
  5324                           ;	Chosen strategy is simple_byte
  5325   0017D8  502E               	movf	??_USBStdGetStatusHandler^0,w,c
  5326   0017DA  0A00               	xorlw	0	; case 0
  5327   0017DC  B4D8               	btfsc	status,2,c
  5328   0017DE  D7C4               	goto	i2l475
  5329   0017E0  0A01               	xorlw	1	; case 1
  5330   0017E2  B4D8               	btfsc	status,2,c
  5331   0017E4  D7C7               	goto	i2l479
  5332   0017E6  0A03               	xorlw	3	; case 2
  5333   0017E8  B4D8               	btfsc	status,2,c
  5334   0017EA  D7C6               	goto	i2l480
  5335   0017EC                     i2l478:
  5336                           
  5337                           ; BSR set to: 2
  5338                           ;../framework/usb/src/usb_device.c: 2185:     if(inPipes[0].info.bits.busy == 1)
  5339   0017EC  AE0C               	btfss	(_inPipes+3)^0,7,c	;volatile
  5340   0017EE  0012               	return	
  5341                           
  5342                           ; BSR set to: 2
  5343                           ;../framework/usb/src/usb_device.c: 2186:     {;../framework/usb/src/usb_device.c: 2187:
      +                                   inPipes[0].pSrc.bRam = (uint8_t*)&CtrlTrfData;
  5344   0017F0  0E28               	movlw	40
  5345   0017F2  6E09               	movwf	_inPipes^0,c	;volatile
  5346   0017F4  0E02               	movlw	2
  5347   0017F6  6E0A               	movwf	(_inPipes+1)^0,c	;volatile
  5348                           
  5349                           ; BSR set to: 2
  5350                           ;../framework/usb/src/usb_device.c: 2188:         inPipes[0].info.bits.ctrl_trf_mem = 0x
      +                          01;
  5351   0017F8  800C               	bsf	(_inPipes+3)^0,0,c	;volatile
  5352                           
  5353                           ; BSR set to: 2
  5354                           ;../framework/usb/src/usb_device.c: 2189:         inPipes[0].wCount.v[0] = 2;
  5355   0017FA  0E02               	movlw	2
  5356   0017FC  6E0D               	movwf	(_inPipes+4)^0,c	;volatile
  5357                           
  5358                           ; BSR set to: 2
  5359   0017FE  0012               	return		;funcret
  5360   001800                     __end_of_USBStdGetStatusHandler:
  5361                           	callstack 0
  5362                           
  5363 ;; *************** function _USBStdGetDscHandler *****************
  5364 ;; Defined at:
  5365 ;;		line 2047 in file "../framework/usb/src/usb_device.c"
  5366 ;; Parameters:    Size  Location     Type
  5367 ;;		None
  5368 ;; Auto vars:     Size  Location     Type
  5369 ;;		None
  5370 ;; Return value:  Size  Location     Type
  5371 ;;                  1    wreg      void 
  5372 ;; Registers used:
  5373 ;;		wreg, fsr1l, fsr1h, status,2, status,0, tblptrl, tblptrh, tblptru
  5374 ;; Tracked objects:
  5375 ;;		On entry : 3D/2
  5376 ;;		On exit  : 0/0
  5377 ;;		Unchanged: 0/0
  5378 ;; Data sizes:     COMRAM   BANK0   BANK1  BANK2h  BANK2l
  5379 ;;      Params:         0       0       0       0       0
  5380 ;;      Locals:         0       0       0       0       0
  5381 ;;      Temps:          2       0       0       0       0
  5382 ;;      Totals:         2       0       0       0       0
  5383 ;;Total ram usage:        2 bytes
  5384 ;; Hardware stack levels used: 1
  5385 ;; This function calls:
  5386 ;;		Nothing
  5387 ;; This function is called by:
  5388 ;;		_USBCheckStdRequest
  5389 ;; This function uses a non-reentrant model
  5390 ;;
  5391                           
  5392                           	psect	text32
  5393   000D64                     __ptext32:
  5394                           	callstack 0
  5395   000D64                     _USBStdGetDscHandler:
  5396                           	callstack 22
  5397                           
  5398                           ;../framework/usb/src/usb_device.c: 2049:     if(SetupPkt.bmRequestType == 0x80)
  5399                           
  5400                           ; BSR set to: 2
  5401                           ;incstack = 0
  5402   000D64  0E80               	movlw	128
  5403   000D66  0102               	movlb	2	; () banked
  5404   000D68  1920               	xorwf	32,w,b	;volatile
  5405   000D6A  A4D8               	btfss	status,2,c
  5406   000D6C  0012               	return	
  5407                           
  5408                           ; BSR set to: 2
  5409                           ;../framework/usb/src/usb_device.c: 2050:     {;../framework/usb/src/usb_device.c: 2051:
      +                                   inPipes[0].info.Val = 0x00 | 0x80 | 0x40;
  5410   000D6E  0EC0               	movlw	192
  5411   000D70  6E0C               	movwf	(_inPipes+3)^0,c	;volatile
  5412                           
  5413                           ;../framework/usb/src/usb_device.c: 2053:         switch(SetupPkt.bDescriptorType)
  5414   000D72  D076               	goto	i2l3931
  5415   000D74                     i2l3905:
  5416                           
  5417                           ; BSR set to: 2
  5418                           ;../framework/usb/src/usb_device.c: 2057:                     inPipes[0].pSrc.bRom = (co
      +                          nst uint8_t*)&device_dsc;
  5419   000D74  0EBD               	movlw	low _device_dsc
  5420   000D76  6E09               	movwf	_inPipes^0,c	;volatile
  5421   000D78  5009               	movf	_inPipes^0,w,c	;volatile
  5422   000D7A  A4D8               	btfss	status,2,c
  5423   000D7C  0E03               	movlw	high __smallconst
  5424   000D7E  6E0A               	movwf	(_inPipes+1)^0,c	;volatile
  5425                           
  5426                           ; BSR set to: 2
  5427                           ;../framework/usb/src/usb_device.c: 2061:                 inPipes[0].wCount.Val = sizeof
      +                          (device_dsc);
  5428   000D80  0E00               	movlw	0
  5429   000D82  6E0E               	movwf	(_inPipes+5)^0,c	;volatile
  5430   000D84  0E12               	movlw	18
  5431   000D86  6E0D               	movwf	(_inPipes+4)^0,c	;volatile
  5432                           
  5433                           ;../framework/usb/src/usb_device.c: 2062:                 break;
  5434   000D88  0012               	return	
  5435   000D8A                     i2l3909:
  5436                           
  5437                           ; BSR set to: 2
  5438                           ;../framework/usb/src/usb_device.c: 2067:                 if(SetupPkt.bDscIndex < 1)
  5439   000D8A  5122               	movf	34,w,b	;volatile
  5440   000D8C  A4D8               	btfss	status,2,c
  5441   000D8E  D03B               	goto	i2l3917
  5442                           
  5443                           ; BSR set to: 2
  5444                           ;../framework/usb/src/usb_device.c: 2068:                 {;../framework/usb/src/usb_dev
      +                          ice.c: 2070:                         inPipes[0].pSrc.bRom = *(USB_CD_Ptr+SetupPkt.bDscIn
      +                          dex);
  5445   000D90  5122               	movf	34,w,b	;volatile
  5446   000D92  0F04               	addlw	low _USB_CD_Ptr
  5447   000D94  6E2E               	movwf	??_USBStdGetDscHandler^0,c
  5448   000D96  C02E  FFF6         	movff	??_USBStdGetDscHandler,tblptrl
  5449   000D9A                     	if	1	;There is more than 1 active tblptr byte
  5450   000D9A  0E03               	movlw	high __smallconst
  5451   000D9C  6EF7               	movwf	tblptrh,c
  5452   000D9E                     	endif
  5453   000D9E                     	if	0	;tblptru may be non-zero
  5454   000D9E                     	endif
  5455   000D9E                     	if	0	;tblptru may be non-zero
  5456   000D9E                     	endif
  5457   000D9E  0009               	tblrd		*+
  5458   000DA0  CFF5 F009          	movff	tablat,_inPipes	;volatile
  5459   000DA4  0E03               	movlw	high __smallconst
  5460   000DA6  6E0A               	movwf	(_inPipes+1)^0,c	;volatile
  5461                           
  5462                           ; BSR set to: 2
  5463                           ;../framework/usb/src/usb_device.c: 2078:                     inPipes[0].wCount.byte.LB 
      +                          = *(inPipes[0].pSrc.bRom+2);
  5464   000DA8  0E02               	movlw	2
  5465   000DAA  2409               	addwf	_inPipes^0,w,c	;volatile
  5466   000DAC  6E2E               	movwf	??_USBStdGetDscHandler^0,c
  5467   000DAE  0E00               	movlw	0
  5468   000DB0  200A               	addwfc	(_inPipes+1)^0,w,c	;volatile
  5469   000DB2  6E2F               	movwf	(??_USBStdGetDscHandler+1)^0,c
  5470   000DB4  C02E  FFF6         	movff	??_USBStdGetDscHandler,tblptrl
  5471   000DB8  C02F  FFF7         	movff	??_USBStdGetDscHandler+1,tblptrh
  5472   000DBC  6AF8               	clrf	tblptru,c
  5473   000DBE  0E02               	movlw	(high __ramtop+-1)
  5474   000DC0  64F7               	cpfsgt	tblptrh,c
  5475   000DC2  D003               	bra	i2u216_47
  5476   000DC4  0008               	tblrd		*
  5477   000DC6  50F5               	movf	tablat,w,c
  5478   000DC8  D005               	bra	i2u216_40
  5479   000DCA                     i2u216_47:
  5480   000DCA  CFF6 FFE1          	movff	tblptrl,fsr1l
  5481   000DCE  CFF7 FFE2          	movff	tblptrh,fsr1h
  5482   000DD2  50E7               	movf	indf1,w,c
  5483   000DD4                     i2u216_40:
  5484   000DD4  6E0D               	movwf	(_inPipes+4)^0,c	;volatile
  5485                           
  5486                           ;../framework/usb/src/usb_device.c: 2079:                     inPipes[0].wCount.byte.HB 
      +                          = *(inPipes[0].pSrc.bRom+3);
  5487   000DD6  0E03               	movlw	3
  5488   000DD8  2409               	addwf	_inPipes^0,w,c	;volatile
  5489   000DDA  6E2E               	movwf	??_USBStdGetDscHandler^0,c
  5490   000DDC  0E00               	movlw	0
  5491   000DDE  200A               	addwfc	(_inPipes+1)^0,w,c	;volatile
  5492   000DE0  6E2F               	movwf	(??_USBStdGetDscHandler+1)^0,c
  5493   000DE2  C02E  FFF6         	movff	??_USBStdGetDscHandler,tblptrl
  5494   000DE6  C02F  FFF7         	movff	??_USBStdGetDscHandler+1,tblptrh
  5495   000DEA  6AF8               	clrf	tblptru,c
  5496   000DEC  0E02               	movlw	(high __ramtop+-1)
  5497   000DEE  64F7               	cpfsgt	tblptrh,c
  5498   000DF0  D003               	bra	i2u217_47
  5499   000DF2  0008               	tblrd		*
  5500   000DF4  50F5               	movf	tablat,w,c
  5501   000DF6  D005               	bra	i2u217_40
  5502   000DF8                     i2u217_47:
  5503   000DF8  CFF6 FFE1          	movff	tblptrl,fsr1l
  5504   000DFC  CFF7 FFE2          	movff	tblptrh,fsr1h
  5505   000E00  50E7               	movf	indf1,w,c
  5506   000E02                     i2u217_40:
  5507   000E02  6E0E               	movwf	(_inPipes+5)^0,c	;volatile
  5508                           
  5509                           ;../framework/usb/src/usb_device.c: 2080:                 }
  5510   000E04  0012               	return	
  5511   000E06                     i2l3917:
  5512                           
  5513                           ; BSR set to: 2
  5514                           ;../framework/usb/src/usb_device.c: 2082:     {;../framework/usb/src/usb_device.c: 2083:
      +                                inPipes[0].info.Val = 0;
  5515   000E06  0E00               	movlw	0
  5516   000E08  6E0C               	movwf	(_inPipes+3)^0,c	;volatile
  5517   000E0A  0012               	return	
  5518   000E0C                     i2l3919:
  5519                           
  5520                           ; BSR set to: 2
  5521                           ;../framework/usb/src/usb_device.c: 2090:                 if(SetupPkt.bDscIndex<3)
  5522   000E0C  0E03               	movlw	3
  5523   000E0E  6122               	cpfslt	34,b	;volatile
  5524   000E10  D021               	goto	i2l3925
  5525                           
  5526                           ; BSR set to: 2
  5527                           ;../framework/usb/src/usb_device.c: 2091:                 {;../framework/usb/src/usb_dev
      +                          ice.c: 2093:                     inPipes[0].pSrc.bRom = *(USB_SD_Ptr+SetupPkt.bDscIndex)
      +                          ;
  5528   000E12  5122               	movf	34,w,b	;volatile
  5529   000E14  0F01               	addlw	low _USB_SD_Ptr
  5530   000E16  6E2E               	movwf	??_USBStdGetDscHandler^0,c
  5531   000E18  C02E  FFF6         	movff	??_USBStdGetDscHandler,tblptrl
  5532   000E1C                     	if	1	;There is more than 1 active tblptr byte
  5533   000E1C  0E03               	movlw	high __smallconst
  5534   000E1E  6EF7               	movwf	tblptrh,c
  5535   000E20                     	endif
  5536   000E20                     	if	0	;tblptru may be non-zero
  5537   000E20                     	endif
  5538   000E20                     	if	0	;tblptru may be non-zero
  5539   000E20                     	endif
  5540   000E20  0009               	tblrd		*+
  5541   000E22  CFF5 F009          	movff	tablat,_inPipes	;volatile
  5542   000E26  0E03               	movlw	high __smallconst
  5543   000E28  6E0A               	movwf	(_inPipes+1)^0,c	;volatile
  5544                           
  5545                           ; BSR set to: 2
  5546                           ;../framework/usb/src/usb_device.c: 2095:                     inPipes[0].wCount.Val = *i
      +                          nPipes[0].pSrc.bRom;
  5547   000E2A  C009  FFF6         	movff	_inPipes,tblptrl	;volatile
  5548   000E2E  C00A  FFF7         	movff	_inPipes+1,tblptrh	;volatile
  5549   000E32  6AF8               	clrf	tblptru,c
  5550   000E34  0E02               	movlw	(high __ramtop+-1)
  5551   000E36  64F7               	cpfsgt	tblptrh,c
  5552   000E38  D003               	bra	i2u219_47
  5553   000E3A  0008               	tblrd		*
  5554   000E3C  50F5               	movf	tablat,w,c
  5555   000E3E  D005               	bra	i2u219_40
  5556   000E40                     i2u219_47:
  5557   000E40  CFF6 FFE1          	movff	tblptrl,fsr1l
  5558   000E44  CFF7 FFE2          	movff	tblptrh,fsr1h
  5559   000E48  50E7               	movf	indf1,w,c
  5560   000E4A                     i2u219_40:
  5561   000E4A  6E2E               	movwf	??_USBStdGetDscHandler^0,c
  5562   000E4C  502E               	movf	??_USBStdGetDscHandler^0,w,c
  5563   000E4E  6E0D               	movwf	(_inPipes+4)^0,c	;volatile
  5564   000E50  6A0E               	clrf	(_inPipes+5)^0,c	;volatile
  5565                           
  5566                           ;../framework/usb/src/usb_device.c: 2096:                 }
  5567   000E52  0012               	return	
  5568   000E54                     i2l3925:
  5569                           
  5570                           ; BSR set to: 2
  5571                           ;../framework/usb/src/usb_device.c: 2107:                 {;../framework/usb/src/usb_dev
      +                          ice.c: 2108:                     inPipes[0].info.Val = 0;
  5572   000E54  0E00               	movlw	0
  5573   000E56  6E0C               	movwf	(_inPipes+3)^0,c	;volatile
  5574   000E58  0012               	return	
  5575   000E5A                     i2l3927:
  5576                           
  5577                           ; BSR set to: 2
  5578                           ;../framework/usb/src/usb_device.c: 2112:                 inPipes[0].info.Val = 0;
  5579   000E5A  0E00               	movlw	0
  5580   000E5C  6E0C               	movwf	(_inPipes+3)^0,c	;volatile
  5581                           
  5582                           ;../framework/usb/src/usb_device.c: 2113:                 break;
  5583   000E5E  0012               	return	
  5584   000E60                     i2l3931:
  5585                           
  5586                           ; BSR set to: 2
  5587   000E60  5123               	movf	35,w,b	;volatile
  5588   000E62  6E2E               	movwf	??_USBStdGetDscHandler^0,c
  5589   000E64  6A2F               	clrf	(??_USBStdGetDscHandler+1)^0,c
  5590                           
  5591                           ; Switch on 2 bytes has been partitioned into a top level switch of size 1, and 1 sub-sw
      +                          itches
  5592                           ; Switch size 1, requested type "simple"
  5593                           ; Number of cases is 1, Range of values is 0 to 0
  5594                           ; switch strategies available:
  5595                           ; Name         Instructions Cycles
  5596                           ; simple_byte            4     3 (average)
  5597                           ;	Chosen strategy is simple_byte
  5598   000E66  502F               	movf	(??_USBStdGetDscHandler+1)^0,w,c
  5599   000E68  0A00               	xorlw	0	; case 0
  5600   000E6A  A4D8               	btfss	status,2,c
  5601   000E6C  D7F6               	goto	i2l3927
  5602                           
  5603                           ; BSR set to: 2
  5604                           ; Switch size 1, requested type "simple"
  5605                           ; Number of cases is 3, Range of values is 1 to 3
  5606                           ; switch strategies available:
  5607                           ; Name         Instructions Cycles
  5608                           ; simple_byte           10     6 (average)
  5609                           ;	Chosen strategy is simple_byte
  5610   000E6E  502E               	movf	??_USBStdGetDscHandler^0,w,c
  5611   000E70  0A01               	xorlw	1	; case 1
  5612   000E72  B4D8               	btfsc	status,2,c
  5613   000E74  D77F               	goto	i2l3905
  5614   000E76  0A03               	xorlw	3	; case 2
  5615   000E78  B4D8               	btfsc	status,2,c
  5616   000E7A  D787               	goto	i2l3909
  5617   000E7C  0A01               	xorlw	1	; case 3
  5618   000E7E  B4D8               	btfsc	status,2,c
  5619   000E80  D7C5               	goto	i2l3919
  5620   000E82  D7EB               	goto	i2l3927
  5621   000E84                     __end_of_USBStdGetDscHandler:
  5622                           	callstack 0
  5623                           
  5624 ;; *************** function _USBStdFeatureReqHandler *****************
  5625 ;; Defined at:
  5626 ;;		line 2761 in file "../framework/usb/src/usb_device.c"
  5627 ;; Parameters:    Size  Location     Type
  5628 ;;		None
  5629 ;; Auto vars:     Size  Location     Type
  5630 ;;  p               2   27[COMRAM] PTR struct __BDT
  5631 ;;		 -> RAM(767), NULL(0), BDT(32), 
  5632 ;;  pUEP            2   24[COMRAM] PTR unsigned char 
  5633 ;;		 -> UEP0(1), 
  5634 ;;  current_ep_d    1   26[COMRAM] struct .
  5635 ;; Return value:  Size  Location     Type
  5636 ;;                  1    wreg      void 
  5637 ;; Registers used:
  5638 ;;		wreg, fsr2l, fsr2h, status,2, status,0, prodl, prodh, cstack
  5639 ;; Tracked objects:
  5640 ;;		On entry : 3D/2
  5641 ;;		On exit  : 3F/2
  5642 ;;		Unchanged: 0/0
  5643 ;; Data sizes:     COMRAM   BANK0   BANK1  BANK2h  BANK2l
  5644 ;;      Params:         0       0       0       0       0
  5645 ;;      Locals:         5       0       0       0       0
  5646 ;;      Temps:          2       0       0       0       0
  5647 ;;      Totals:         7       0       0       0       0
  5648 ;;Total ram usage:        7 bytes
  5649 ;; Hardware stack levels used: 1
  5650 ;; Hardware stack levels required when called: 4
  5651 ;; This function calls:
  5652 ;;		_USER_USB_CALLBACK_EVENT_HANDLER
  5653 ;; This function is called by:
  5654 ;;		_USBCheckStdRequest
  5655 ;; This function uses a non-reentrant model
  5656 ;;
  5657                           
  5658                           	psect	text33
  5659   0003D4                     __ptext33:
  5660                           	callstack 0
  5661   0003D4                     _USBStdFeatureReqHandler:
  5662                           	callstack 18
  5663                           
  5664                           ;../framework/usb/src/usb_device.c: 2763:     BDT_ENTRY *p;;../framework/usb/src/usb_dev
      +                          ice.c: 2764:     EP_STATUS current_ep_data;;../framework/usb/src/usb_device.c: 2768:    
      +                               unsigned char* pUEP;;../framework/usb/src/usb_device.c: 2772:     if((SetupPkt.bFea
      +                          ture == 1)&&
  5665                           
  5666                           ;incstack = 0
  5667   0003D4  0102               	movlb	2	; () banked
  5668   0003D6  0522               	decf	34,w,b	;volatile
  5669   0003D8  A4D8               	btfss	status,2,c
  5670   0003DA  D00E               	goto	i2l553
  5671                           
  5672                           ; BSR set to: 2
  5673   0003DC  5120               	movf	32,w,b	;volatile
  5674   0003DE  0B1F               	andlw	31
  5675   0003E0  0900               	iorlw	0
  5676   0003E2  A4D8               	btfss	status,2,c
  5677   0003E4  D009               	goto	i2l553
  5678                           
  5679                           ; BSR set to: 2
  5680                           ;../framework/usb/src/usb_device.c: 2774:     {;../framework/usb/src/usb_device.c: 2775:
      +                                   inPipes[0].info.bits.busy = 1;
  5681   0003E6  8E0C               	bsf	(_inPipes+3)^0,7,c	;volatile
  5682                           
  5683                           ; BSR set to: 2
  5684                           ;../framework/usb/src/usb_device.c: 2776:         if(SetupPkt.bRequest == 3)
  5685   0003E8  0E03               	movlw	3
  5686   0003EA  1921               	xorwf	33,w,b	;volatile
  5687   0003EC  A4D8               	btfss	status,2,c
  5688   0003EE  D002               	goto	i2l3987
  5689                           
  5690                           ; BSR set to: 2
  5691                           ;../framework/usb/src/usb_device.c: 2777:             RemoteWakeup = 1;
  5692   0003F0  0E01               	movlw	1
  5693   0003F2  D001               	goto	L5
  5694   0003F4                     i2l3987:
  5695                           
  5696                           ; BSR set to: 2
  5697                           ;../framework/usb/src/usb_device.c: 2779:             RemoteWakeup = 0;
  5698   0003F4  0E00               	movlw	0
  5699   0003F6                     L5:
  5700   0003F6  6E27               	movwf	_RemoteWakeup^0,c	;volatile
  5701   0003F8                     i2l553:
  5702                           
  5703                           ; BSR set to: 2
  5704                           ;../framework/usb/src/usb_device.c: 2783:     if((SetupPkt.bFeature == 0)&&
  5705   0003F8  5122               	movf	34,w,b	;volatile
  5706   0003FA  A4D8               	btfss	status,2,c
  5707   0003FC  0012               	return	
  5708                           
  5709                           ; BSR set to: 2
  5710   0003FE  5120               	movf	32,w,b	;volatile
  5711   000400  0B1F               	andlw	31
  5712   000402  0A02               	xorlw	2
  5713   000404  A4D8               	btfss	status,2,c
  5714   000406  0012               	return	
  5715                           
  5716                           ; BSR set to: 2
  5717   000408  5124               	movf	36,w,b	;volatile
  5718   00040A  0B0F               	andlw	15
  5719   00040C  0900               	iorlw	0
  5720   00040E  B4D8               	btfsc	status,2,c
  5721   000410  0012               	return	
  5722                           
  5723                           ; BSR set to: 2
  5724   000412  5124               	movf	36,w,b	;volatile
  5725   000414  0B0F               	andlw	15
  5726   000416  6E44               	movwf	??_USBStdFeatureReqHandler^0,c
  5727   000418  0E02               	movlw	2
  5728   00041A  6044               	cpfslt	??_USBStdFeatureReqHandler^0,c
  5729   00041C  0012               	return	
  5730                           
  5731                           ; BSR set to: 2
  5732   00041E  0E20               	movlw	32
  5733   000420  182A               	xorwf	_USBDeviceState^0,w,c
  5734   000422  A4D8               	btfss	status,2,c
  5735   000424  0012               	return	
  5736                           
  5737                           ; BSR set to: 2
  5738                           ;../framework/usb/src/usb_device.c: 2787:     {;../framework/usb/src/usb_device.c: 2790:
      +                             inPipes[0].info.bits.busy = 1;
  5739   000426  8E0C               	bsf	(_inPipes+3)^0,7,c	;volatile
  5740                           
  5741                           ;../framework/usb/src/usb_device.c: 2793:         if(SetupPkt.EPDir == 0)
  5742   000428  BF24               	btfsc	36,7,b	;volatile
  5743   00042A  D011               	goto	i2l4003
  5744                           
  5745                           ; BSR set to: 2
  5746                           ;../framework/usb/src/usb_device.c: 2794:         {;../framework/usb/src/usb_device.c: 2
      +                          795:             p = (BDT_ENTRY*)pBDTEntryOut[SetupPkt.EPNum];
  5747   00042C  5124               	movf	36,w,b	;volatile
  5748   00042E  0B0F               	andlw	15
  5749   000430  0D02               	mullw	2
  5750   000432  50F3               	movf	243,w,c
  5751   000434  0F13               	addlw	low _pBDTEntryOut
  5752   000436  6ED9               	movwf	fsr2l,c
  5753   000438  6ADA               	clrf	fsr2h,c
  5754   00043A  CFDE F049          	movff	postinc2,USBStdFeatureReqHandler@p
  5755   00043E  CFDD F04A          	movff	postdec2,USBStdFeatureReqHandler@p+1
  5756                           
  5757                           ; BSR set to: 2
  5758                           ;../framework/usb/src/usb_device.c: 2796:             current_ep_data.Val = ep_data_out[
      +                          SetupPkt.EPNum].Val;
  5759   000442  5124               	movf	36,w,b	;volatile
  5760   000444  0B0F               	andlw	15
  5761   000446  6E44               	movwf	??_USBStdFeatureReqHandler^0,c
  5762   000448  5044               	movf	??_USBStdFeatureReqHandler^0,w,c
  5763   00044A  0F19               	addlw	low _ep_data_out
  5764   00044C  D010               	goto	L6
  5765   00044E                     i2l4003:
  5766                           
  5767                           ; BSR set to: 2
  5768                           ;../framework/usb/src/usb_device.c: 2799:         {;../framework/usb/src/usb_device.c: 2
      +                          800:             p = (BDT_ENTRY*)pBDTEntryIn[SetupPkt.EPNum];
  5769   00044E  5124               	movf	36,w,b	;volatile
  5770   000450  0B0F               	andlw	15
  5771   000452  0D02               	mullw	2
  5772   000454  50F3               	movf	243,w,c
  5773   000456  0F0F               	addlw	low _pBDTEntryIn
  5774   000458  6ED9               	movwf	fsr2l,c
  5775   00045A  6ADA               	clrf	fsr2h,c
  5776   00045C  CFDE F049          	movff	postinc2,USBStdFeatureReqHandler@p
  5777   000460  CFDD F04A          	movff	postdec2,USBStdFeatureReqHandler@p+1
  5778                           
  5779                           ; BSR set to: 2
  5780                           ;../framework/usb/src/usb_device.c: 2801:             current_ep_data.Val = ep_data_in[S
      +                          etupPkt.EPNum].Val;
  5781   000464  5124               	movf	36,w,b	;volatile
  5782   000466  0B0F               	andlw	15
  5783   000468  6E44               	movwf	??_USBStdFeatureReqHandler^0,c
  5784   00046A  5044               	movf	??_USBStdFeatureReqHandler^0,w,c
  5785   00046C  0F1B               	addlw	low _ep_data_in
  5786   00046E                     L6:
  5787   00046E  6ED9               	movwf	fsr2l,c
  5788   000470  6ADA               	clrf	fsr2h,c
  5789   000472  50DF               	movf	indf2,w,c
  5790   000474  6E48               	movwf	USBStdFeatureReqHandler@current_ep_data^0,c
  5791                           
  5792                           ; BSR set to: 2
  5793                           ;../framework/usb/src/usb_device.c: 2808:             if(current_ep_data.bits.ping_pong_
      +                          state == 0)
  5794   000476  B048               	btfsc	USBStdFeatureReqHandler@current_ep_data^0,0,c
  5795   000478  D006               	goto	i2l4011
  5796                           
  5797                           ; BSR set to: 2
  5798                           ;../framework/usb/src/usb_device.c: 2809:             {;../framework/usb/src/usb_device.
      +                          c: 2810:                 p = (BDT_ENTRY*)(((uint16_t)p) & (~0x0004));
  5799   00047A  0EFB               	movlw	251
  5800   00047C  1449               	andwf	USBStdFeatureReqHandler@p^0,w,c
  5801   00047E  6E49               	movwf	USBStdFeatureReqHandler@p^0,c
  5802   000480  0EFF               	movlw	255
  5803   000482  144A               	andwf	(USBStdFeatureReqHandler@p+1)^0,w,c
  5804   000484  D004               	goto	L7
  5805   000486                     i2l4011:
  5806                           
  5807                           ; BSR set to: 2
  5808                           ;../framework/usb/src/usb_device.c: 2813:             {;../framework/usb/src/usb_device.
      +                          c: 2814:                 p = (BDT_ENTRY*)(((uint16_t)p) | 0x0004);
  5809   000486  0E04               	movlw	4
  5810   000488  1049               	iorwf	USBStdFeatureReqHandler@p^0,w,c
  5811   00048A  6E49               	movwf	USBStdFeatureReqHandler@p^0,c
  5812   00048C  504A               	movf	(USBStdFeatureReqHandler@p+1)^0,w,c
  5813   00048E                     L7:
  5814   00048E  6E4A               	movwf	(USBStdFeatureReqHandler@p+1)^0,c
  5815                           
  5816                           ; BSR set to: 2
  5817                           ;../framework/usb/src/usb_device.c: 2820:         if(SetupPkt.EPDir == 0)
  5818   000490  BF24               	btfsc	36,7,b	;volatile
  5819   000492  D006               	goto	i2l4017
  5820                           
  5821                           ; BSR set to: 2
  5822                           ;../framework/usb/src/usb_device.c: 2821:         {;../framework/usb/src/usb_device.c: 2
      +                          822:             pBDTEntryOut[SetupPkt.EPNum] = (volatile BDT_ENTRY *)p;
  5823   000494  5124               	movf	36,w,b	;volatile
  5824   000496  0B0F               	andlw	15
  5825   000498  0D02               	mullw	2
  5826   00049A  50F3               	movf	243,w,c
  5827   00049C  0F13               	addlw	low _pBDTEntryOut
  5828   00049E  D005               	goto	L8
  5829   0004A0                     i2l4017:
  5830                           
  5831                           ; BSR set to: 2
  5832                           ;../framework/usb/src/usb_device.c: 2825:         {;../framework/usb/src/usb_device.c: 2
      +                          826:             pBDTEntryIn[SetupPkt.EPNum] = (volatile BDT_ENTRY *)p;
  5833   0004A0  5124               	movf	36,w,b	;volatile
  5834   0004A2  0B0F               	andlw	15
  5835   0004A4  0D02               	mullw	2
  5836   0004A6  50F3               	movf	243,w,c
  5837   0004A8  0F0F               	addlw	low _pBDTEntryIn
  5838   0004AA                     L8:
  5839   0004AA  6ED9               	movwf	fsr2l,c
  5840   0004AC  6ADA               	clrf	fsr2h,c
  5841   0004AE  C049  FFDE         	movff	USBStdFeatureReqHandler@p,postinc2
  5842   0004B2  C04A  FFDD         	movff	USBStdFeatureReqHandler@p+1,postdec2
  5843                           
  5844                           ; BSR set to: 2
  5845                           ;../framework/usb/src/usb_device.c: 2830:         if(SetupPkt.bRequest == 3)
  5846   0004B6  0E03               	movlw	3
  5847   0004B8  1921               	xorwf	33,w,b	;volatile
  5848   0004BA  A4D8               	btfss	status,2,c
  5849   0004BC  D023               	goto	i2l4029
  5850                           
  5851                           ; BSR set to: 2
  5852                           ;../framework/usb/src/usb_device.c: 2831:         {;../framework/usb/src/usb_device.c: 2
      +                          832:             if(p->STAT.UOWN == 1)
  5853   0004BE  C049  FFD9         	movff	USBStdFeatureReqHandler@p,fsr2l
  5854   0004C2  C04A  FFDA         	movff	USBStdFeatureReqHandler@p+1,fsr2h
  5855   0004C6  AEDF               	btfss	indf2,7,c
  5856   0004C8  D010               	goto	i2l564
  5857                           
  5858                           ; BSR set to: 2
  5859                           ;../framework/usb/src/usb_device.c: 2833:             {;../framework/usb/src/usb_device.
      +                          c: 2836:                 if(SetupPkt.EPDir == 0)
  5860   0004CA  BF24               	btfsc	36,7,b	;volatile
  5861   0004CC  D006               	goto	i2l4027
  5862                           
  5863                           ; BSR set to: 2
  5864                           ;../framework/usb/src/usb_device.c: 2837:                 {;../framework/usb/src/usb_dev
      +                          ice.c: 2838:                     ep_data_out[SetupPkt.EPNum].bits.transfer_terminated = 
      +                          1;
  5865   0004CE  5124               	movf	36,w,b	;volatile
  5866   0004D0  0B0F               	andlw	15
  5867   0004D2  6E44               	movwf	??_USBStdFeatureReqHandler^0,c
  5868   0004D4  5044               	movf	??_USBStdFeatureReqHandler^0,w,c
  5869   0004D6  0F19               	addlw	low _ep_data_out
  5870   0004D8  D005               	goto	L9
  5871   0004DA                     i2l4027:
  5872                           
  5873                           ; BSR set to: 2
  5874                           ;../framework/usb/src/usb_device.c: 2841:                 {;../framework/usb/src/usb_dev
      +                          ice.c: 2842:                     ep_data_in[SetupPkt.EPNum].bits.transfer_terminated = 1
      +                          ;
  5875   0004DA  5124               	movf	36,w,b	;volatile
  5876   0004DC  0B0F               	andlw	15
  5877   0004DE  6E44               	movwf	??_USBStdFeatureReqHandler^0,c
  5878   0004E0  5044               	movf	??_USBStdFeatureReqHandler^0,w,c
  5879   0004E2  0F1B               	addlw	low _ep_data_in
  5880   0004E4                     L9:
  5881   0004E4  6ED9               	movwf	fsr2l,c
  5882   0004E6  6ADA               	clrf	fsr2h,c
  5883   0004E8  82DF               	bsf	indf2,1,c
  5884   0004EA                     i2l564:
  5885                           
  5886                           ; BSR set to: 2
  5887                           ;../framework/usb/src/usb_device.c: 2847:             p->STAT.Val |= 0x04;
  5888   0004EA  C049  FFD9         	movff	USBStdFeatureReqHandler@p,fsr2l
  5889   0004EE  C04A  FFDA         	movff	USBStdFeatureReqHandler@p+1,fsr2h
  5890   0004F2  0E00               	movlw	0
  5891   0004F4  84DB               	bsf	plusw2,2,c
  5892                           
  5893                           ;../framework/usb/src/usb_device.c: 2848:             p->STAT.Val |= 0x80;
  5894   0004F6  C049  FFD9         	movff	USBStdFeatureReqHandler@p,fsr2l
  5895   0004FA  C04A  FFDA         	movff	USBStdFeatureReqHandler@p+1,fsr2h
  5896   0004FE  0E00               	movlw	0
  5897   000500  8EDB               	bsf	plusw2,7,c
  5898                           
  5899                           ;../framework/usb/src/usb_device.c: 2849:         }
  5900   000502  0012               	return	
  5901   000504                     i2l4029:
  5902                           
  5903                           ; BSR set to: 2
  5904                           ;../framework/usb/src/usb_device.c: 2851:         {;../framework/usb/src/usb_device.c: 2
      +                          855:                 p = (BDT_ENTRY*)(((uint16_t)p) ^ 0x0004);
  5905   000504  0E04               	movlw	4
  5906   000506  1849               	xorwf	USBStdFeatureReqHandler@p^0,w,c
  5907   000508  6E49               	movwf	USBStdFeatureReqHandler@p^0,c
  5908   00050A  504A               	movf	(USBStdFeatureReqHandler@p+1)^0,w,c
  5909   00050C  6E4A               	movwf	(USBStdFeatureReqHandler@p+1)^0,c
  5910                           
  5911                           ; BSR set to: 2
  5912                           ;../framework/usb/src/usb_device.c: 2857:                 if(p->STAT.UOWN == 1)
  5913   00050E  C049  FFD9         	movff	USBStdFeatureReqHandler@p,fsr2l
  5914   000512  C04A  FFDA         	movff	USBStdFeatureReqHandler@p+1,fsr2h
  5915   000516  AEDF               	btfss	indf2,7,c
  5916   000518  D01B               	goto	i2l4039
  5917                           
  5918                           ; BSR set to: 2
  5919                           ;../framework/usb/src/usb_device.c: 2858:                 {;../framework/usb/src/usb_dev
      +                          ice.c: 2861:                     p->STAT.Val &= (~0x80);
  5920   00051A  C049  FFD9         	movff	USBStdFeatureReqHandler@p,fsr2l
  5921   00051E  C04A  FFDA         	movff	USBStdFeatureReqHandler@p+1,fsr2h
  5922   000522  0E7F               	movlw	127
  5923   000524  16DF               	andwf	indf2,f,c
  5924                           
  5925                           ; BSR set to: 2
  5926                           ;../framework/usb/src/usb_device.c: 2862:                     p->STAT.Val |= 0x40;
  5927   000526  C049  FFD9         	movff	USBStdFeatureReqHandler@p,fsr2l
  5928   00052A  C04A  FFDA         	movff	USBStdFeatureReqHandler@p+1,fsr2h
  5929   00052E  0E00               	movlw	0
  5930   000530  8CDB               	bsf	plusw2,6,c
  5931                           
  5932                           ; BSR set to: 2
  5933                           ;../framework/usb/src/usb_device.c: 2863:                     USER_USB_CALLBACK_EVENT_HA
      +                          NDLER((USB_EVENT)EVENT_TRANSFER_TERMINATED,p,sizeof(p));
  5934   000532  0E00               	movlw	0
  5935   000534  6E3D               	movwf	(USER_USB_CALLBACK_EVENT_HANDLER@event+1)^0,c
  5936   000536  0E05               	movlw	5
  5937   000538  6E3C               	movwf	USER_USB_CALLBACK_EVENT_HANDLER@event^0,c
  5938   00053A  C049  F03E         	movff	USBStdFeatureReqHandler@p,USER_USB_CALLBACK_EVENT_HANDLER@pdata
  5939   00053E  C04A  F03F         	movff	USBStdFeatureReqHandler@p+1,USER_USB_CALLBACK_EVENT_HANDLER@pdata+1
  5940   000542  0E00               	movlw	0
  5941   000544  6E41               	movwf	(USER_USB_CALLBACK_EVENT_HANDLER@size+1)^0,c
  5942   000546  0E02               	movlw	2
  5943   000548  6E40               	movwf	USER_USB_CALLBACK_EVENT_HANDLER@size^0,c
  5944   00054A  EC00  F00C         	call	_USER_USB_CALLBACK_EVENT_HANDLER	;wreg free
  5945                           
  5946                           ;../framework/usb/src/usb_device.c: 2864:                 }
  5947   00054E  D006               	goto	i2l4041
  5948   000550                     i2l4039:
  5949                           
  5950                           ; BSR set to: 2
  5951                           ;../framework/usb/src/usb_device.c: 2866:                 {;../framework/usb/src/usb_dev
      +                          ice.c: 2868:      p->STAT.Val |= 0x40;
  5952   000550  C049  FFD9         	movff	USBStdFeatureReqHandler@p,fsr2l
  5953   000554  C04A  FFDA         	movff	USBStdFeatureReqHandler@p+1,fsr2h
  5954   000558  0E00               	movlw	0
  5955   00055A  8CDB               	bsf	plusw2,6,c
  5956   00055C                     i2l4041:
  5957                           
  5958                           ;../framework/usb/src/usb_device.c: 2873:                 p = (BDT_ENTRY*)(((uint16_t)p)
      +                           ^ 0x0004);
  5959   00055C  0E04               	movlw	4
  5960   00055E  1849               	xorwf	USBStdFeatureReqHandler@p^0,w,c
  5961   000560  6E49               	movwf	USBStdFeatureReqHandler@p^0,c
  5962   000562  504A               	movf	(USBStdFeatureReqHandler@p+1)^0,w,c
  5963   000564  6E4A               	movwf	(USBStdFeatureReqHandler@p+1)^0,c
  5964                           
  5965                           ;../framework/usb/src/usb_device.c: 2879:                 if((current_ep_data.bits.trans
      +                          fer_terminated != 0) || (p->STAT.UOWN == 1))
  5966   000566  B248               	btfsc	USBStdFeatureReqHandler@current_ep_data^0,1,c
  5967   000568  D006               	goto	i2u242_40
  5968   00056A  C049  FFD9         	movff	USBStdFeatureReqHandler@p,fsr2l
  5969   00056E  C04A  FFDA         	movff	USBStdFeatureReqHandler@p+1,fsr2h
  5970   000572  AEDF               	btfss	indf2,7,c
  5971   000574  D026               	goto	i2l4055
  5972   000576                     i2u242_40:
  5973                           
  5974                           ;../framework/usb/src/usb_device.c: 2880:                 {;../framework/usb/src/usb_dev
      +                          ice.c: 2881:                     if(SetupPkt.EPDir == 0)
  5975   000576  0102               	movlb	2	; () banked
  5976   000578  BF24               	btfsc	36,7,b	;volatile
  5977   00057A  D006               	goto	i2l4049
  5978                           
  5979                           ; BSR set to: 2
  5980                           ;../framework/usb/src/usb_device.c: 2882:                     {;../framework/usb/src/usb
      +                          _device.c: 2883:                         ep_data_out[SetupPkt.EPNum].bits.transfer_termi
      +                          nated = 0;
  5981   00057C  5124               	movf	36,w,b	;volatile
  5982   00057E  0B0F               	andlw	15
  5983   000580  6E44               	movwf	??_USBStdFeatureReqHandler^0,c
  5984   000582  5044               	movf	??_USBStdFeatureReqHandler^0,w,c
  5985   000584  0F19               	addlw	low _ep_data_out
  5986   000586  D005               	goto	L10
  5987   000588                     i2l4049:
  5988                           
  5989                           ; BSR set to: 2
  5990                           ;../framework/usb/src/usb_device.c: 2886:                     {;../framework/usb/src/usb
      +                          _device.c: 2887:                         ep_data_in[SetupPkt.EPNum].bits.transfer_termin
      +                          ated = 0;
  5991   000588  5124               	movf	36,w,b	;volatile
  5992   00058A  0B0F               	andlw	15
  5993   00058C  6E44               	movwf	??_USBStdFeatureReqHandler^0,c
  5994   00058E  5044               	movf	??_USBStdFeatureReqHandler^0,w,c
  5995   000590  0F1B               	addlw	low _ep_data_in
  5996   000592                     L10:
  5997   000592  6ED9               	movwf	fsr2l,c
  5998   000594  6ADA               	clrf	fsr2h,c
  5999   000596  92DF               	bcf	indf2,1,c
  6000                           
  6001                           ; BSR set to: 2
  6002                           ;../framework/usb/src/usb_device.c: 2890:                     p->STAT.Val &= ~(0x80 | 0x
      +                          40 | 0x04);
  6003   000598  C049  FFD9         	movff	USBStdFeatureReqHandler@p,fsr2l
  6004   00059C  C04A  FFDA         	movff	USBStdFeatureReqHandler@p+1,fsr2h
  6005   0005A0  0E3B               	movlw	59
  6006   0005A2  16DF               	andwf	indf2,f,c
  6007                           
  6008                           ; BSR set to: 2
  6009                           ;../framework/usb/src/usb_device.c: 2893:                     USER_USB_CALLBACK_EVENT_HA
      +                          NDLER((USB_EVENT)EVENT_TRANSFER_TERMINATED,p,sizeof(p));
  6010   0005A4  0E00               	movlw	0
  6011   0005A6  6E3D               	movwf	(USER_USB_CALLBACK_EVENT_HANDLER@event+1)^0,c
  6012   0005A8  0E05               	movlw	5
  6013   0005AA  6E3C               	movwf	USER_USB_CALLBACK_EVENT_HANDLER@event^0,c
  6014   0005AC  C049  F03E         	movff	USBStdFeatureReqHandler@p,USER_USB_CALLBACK_EVENT_HANDLER@pdata
  6015   0005B0  C04A  F03F         	movff	USBStdFeatureReqHandler@p+1,USER_USB_CALLBACK_EVENT_HANDLER@pdata+1
  6016   0005B4  0E00               	movlw	0
  6017   0005B6  6E41               	movwf	(USER_USB_CALLBACK_EVENT_HANDLER@size+1)^0,c
  6018   0005B8  0E02               	movlw	2
  6019   0005BA  6E40               	movwf	USER_USB_CALLBACK_EVENT_HANDLER@size^0,c
  6020   0005BC  EC00  F00C         	call	_USER_USB_CALLBACK_EVENT_HANDLER	;wreg free
  6021                           
  6022                           ;../framework/usb/src/usb_device.c: 2894:                 }
  6023   0005C0  D006               	goto	i2l4057
  6024   0005C2                     i2l4055:
  6025                           
  6026                           ;../framework/usb/src/usb_device.c: 2896:                 {;../framework/usb/src/usb_dev
      +                          ice.c: 2898:                     p->STAT.Val &= ~(0x80 | 0x40 | 0x04);
  6027   0005C2  C049  FFD9         	movff	USBStdFeatureReqHandler@p,fsr2l
  6028   0005C6  C04A  FFDA         	movff	USBStdFeatureReqHandler@p+1,fsr2h
  6029   0005CA  0E3B               	movlw	59
  6030   0005CC  16DF               	andwf	indf2,f,c
  6031   0005CE                     i2l4057:
  6032                           
  6033                           ;../framework/usb/src/usb_device.c: 2946:                 pUEP = (unsigned char*)(&UEP0+
      +                          SetupPkt.EPNum);
  6034   0005CE  0102               	movlb	2	; () banked
  6035   0005D0  5124               	movf	36,w,b	;volatile
  6036   0005D2  0B0F               	andlw	15
  6037   0005D4  6E44               	movwf	??_USBStdFeatureReqHandler^0,c
  6038   0005D6  6A45               	clrf	(??_USBStdFeatureReqHandler+1)^0,c
  6039   0005D8  0E53               	movlw	83
  6040   0005DA  2444               	addwf	??_USBStdFeatureReqHandler^0,w,c
  6041   0005DC  6E46               	movwf	USBStdFeatureReqHandler@pUEP^0,c
  6042   0005DE  0E0F               	movlw	15
  6043   0005E0  2045               	addwfc	(??_USBStdFeatureReqHandler+1)^0,w,c
  6044   0005E2  6E47               	movwf	(USBStdFeatureReqHandler@pUEP+1)^0,c
  6045                           
  6046                           ; BSR set to: 2
  6047                           ;../framework/usb/src/usb_device.c: 2950:             *pUEP &= ~0x0001;
  6048   0005E4  C046  FFD9         	movff	USBStdFeatureReqHandler@pUEP,fsr2l
  6049   0005E8  C047  FFDA         	movff	USBStdFeatureReqHandler@pUEP+1,fsr2h
  6050   0005EC  0EFE               	movlw	254
  6051   0005EE  16DF               	andwf	indf2,f,c
  6052                           
  6053                           ; BSR set to: 2
  6054   0005F0  0012               	return		;funcret
  6055   0005F2                     __end_of_USBStdFeatureReqHandler:
  6056                           	callstack 0
  6057                           
  6058 ;; *************** function _USER_USB_CALLBACK_EVENT_HANDLER *****************
  6059 ;; Defined at:
  6060 ;;		line 67 in file "../demo_src/usb_events.c"
  6061 ;; Parameters:    Size  Location     Type
  6062 ;;  event           2   14[COMRAM] enum E3043
  6063 ;;  pdata           2   16[COMRAM] PTR void 
  6064 ;;		 -> RAM(767), USTATcopy(1), USBActiveConfiguration(1), NULL(0), 
  6065 ;;		 -> BDT(32), 
  6066 ;;  size            2   18[COMRAM] unsigned short 
  6067 ;; Auto vars:     Size  Location     Type
  6068 ;;		None
  6069 ;; Return value:  Size  Location     Type
  6070 ;;                  1    wreg      _Bool 
  6071 ;; Registers used:
  6072 ;;		wreg, fsr2l, fsr2h, status,2, status,0, prodl, prodh, cstack
  6073 ;; Tracked objects:
  6074 ;;		On entry : 0/0
  6075 ;;		On exit  : 0/0
  6076 ;;		Unchanged: 0/0
  6077 ;; Data sizes:     COMRAM   BANK0   BANK1  BANK2h  BANK2l
  6078 ;;      Params:         6       0       0       0       0
  6079 ;;      Locals:         0       0       0       0       0
  6080 ;;      Temps:          2       0       0       0       0
  6081 ;;      Totals:         8       0       0       0       0
  6082 ;;Total ram usage:        8 bytes
  6083 ;; Hardware stack levels used: 1
  6084 ;; Hardware stack levels required when called: 3
  6085 ;; This function calls:
  6086 ;;		_APP_KeyboardInit
  6087 ;;		_APP_LEDUpdateUSBStatus
  6088 ;;		_USBCheckHIDRequest
  6089 ;;		i2_SYSTEM_Initialize
  6090 ;; This function is called by:
  6091 ;;		_USBDeviceTasks
  6092 ;;		_USBStdSetCfgHandler
  6093 ;;		_USBSuspend
  6094 ;;		_USBWakeFromSuspend
  6095 ;;		_USBCtrlTrfSetupHandler
  6096 ;;		_USBCheckStdRequest
  6097 ;;		_USBStdFeatureReqHandler
  6098 ;; This function uses a non-reentrant model
  6099 ;;
  6100                           
  6101                           	psect	text34
  6102   001800                     __ptext34:
  6103                           	callstack 0
  6104   001800                     _USER_USB_CALLBACK_EVENT_HANDLER:
  6105                           	callstack 22
  6106                           
  6107                           ;../demo_src/usb_events.c: 67: _Bool USER_USB_CALLBACK_EVENT_HANDLER(USB_EVENT event, vo
      +                          id *pdata, uint16_t size);../demo_src/usb_events.c: 68: {;../demo_src/usb_events.c: 69: 
      +                              switch((int)event)
  6108                           
  6109                           ; BSR set to: 2
  6110                           ;incstack = 0
  6111   001800  D022               	goto	i2l3715
  6112   001802                     i2l3697:
  6113                           
  6114                           ;../demo_src/usb_events.c: 77:             APP_LEDUpdateUSBStatus();
  6115   001802  ECE2  F00C         	call	_APP_LEDUpdateUSBStatus	;wreg free
  6116                           
  6117                           ;../demo_src/usb_events.c: 78:             if(SOFCounter < 32767)
  6118   001806  2821               	incf	_SOFCounter^0,w,c	;volatile
  6119   001808  E104               	bnz	i2u191_40
  6120   00180A  0E7F               	movlw	127
  6121   00180C  1822               	xorwf	(_SOFCounter+1)^0,w,c	;volatile
  6122   00180E  B4D8               	btfsc	status,2,c
  6123   001810  D003               	goto	i2l3703
  6124   001812                     i2u191_40:
  6125                           
  6126                           ;../demo_src/usb_events.c: 79:             {;../demo_src/usb_events.c: 80:              
      +                             SOFCounter++;
  6127   001812  4A21               	infsnz	_SOFCounter^0,f,c	;volatile
  6128   001814  2A22               	incf	(_SOFCounter+1)^0,f,c	;volatile
  6129                           
  6130                           ;../demo_src/usb_events.c: 81:             }
  6131   001816  0012               	return	
  6132   001818                     i2l3703:
  6133                           
  6134                           ;../demo_src/usb_events.c: 83:             {;../demo_src/usb_events.c: 84:              
      +                             SOFCounter = 0;
  6135   001818  0E00               	movlw	0
  6136   00181A  6E22               	movwf	(_SOFCounter+1)^0,c	;volatile
  6137   00181C  0E00               	movlw	0
  6138   00181E  6E21               	movwf	_SOFCounter^0,c	;volatile
  6139   001820  0012               	return	
  6140   001822                     i2l3705:
  6141                           
  6142                           ;../demo_src/usb_events.c: 90:             APP_LEDUpdateUSBStatus();
  6143   001822  ECE2  F00C         	call	_APP_LEDUpdateUSBStatus	;wreg free
  6144                           
  6145                           ;../demo_src/usb_events.c: 98:             SYSTEM_Initialize(SYSTEM_STATE_USB_SUSPEND);
  6146   001826  0E01               	movlw	1
  6147   001828  EC6E  F00F         	call	i2_SYSTEM_Initialize
  6148                           
  6149                           ;../demo_src/usb_events.c: 99:             break;
  6150   00182C  0012               	return	
  6151   00182E                     i2l3707:
  6152                           
  6153                           ;../demo_src/usb_events.c: 103:             APP_LEDUpdateUSBStatus();
  6154   00182E  ECE2  F00C         	call	_APP_LEDUpdateUSBStatus	;wreg free
  6155                           
  6156                           ;../demo_src/usb_events.c: 109:             SYSTEM_Initialize(SYSTEM_STATE_USB_RESUME);
  6157   001832  0E02               	movlw	2
  6158   001834  EC6E  F00F         	call	i2_SYSTEM_Initialize
  6159                           
  6160                           ;../demo_src/usb_events.c: 110:             break;
  6161   001838  0012               	return	
  6162   00183A                     i2l3709:
  6163                           
  6164                           ;../demo_src/usb_events.c: 115:             APP_KeyboardInit();
  6165   00183A  ECEA  F00D         	call	_APP_KeyboardInit	;wreg free
  6166                           
  6167                           ;../demo_src/usb_events.c: 116:             break;
  6168   00183E  0012               	return	
  6169   001840                     i2l3711:
  6170                           
  6171                           ;../demo_src/usb_events.c: 124:             USBCheckHIDRequest();
  6172   001840  ECCE  F007         	call	_USBCheckHIDRequest	;wreg free
  6173                           
  6174                           ;../demo_src/usb_events.c: 125:             break;
  6175   001844  0012               	return	
  6176   001846                     i2l3715:
  6177   001846  C03C  F042         	movff	USER_USB_CALLBACK_EVENT_HANDLER@event,??_USER_USB_CALLBACK_EVENT_HANDLER
  6178   00184A  C03D  F043         	movff	USER_USB_CALLBACK_EVENT_HANDLER@event+1,??_USER_USB_CALLBACK_EVENT_HANDLER+1
  6179                           
  6180                           ; Switch on 2 bytes has been partitioned into a top level switch of size 1, and 2 sub-sw
      +                          itches
  6181                           ; Switch size 1, requested type "simple"
  6182                           ; Number of cases is 2, Range of values is 0 to 127
  6183                           ; switch strategies available:
  6184                           ; Name         Instructions Cycles
  6185                           ; simple_byte            7     4 (average)
  6186                           ;	Chosen strategy is simple_byte
  6187   00184E  5043               	movf	(??_USER_USB_CALLBACK_EVENT_HANDLER+1)^0,w,c
  6188   001850  0A00               	xorlw	0	; case 0
  6189   001852  B4D8               	btfsc	status,2,c
  6190   001854  D004               	goto	i2l6195
  6191   001856  0A7F               	xorlw	127	; case 127
  6192   001858  A4D8               	btfss	status,2,c
  6193   00185A  0012               	return	
  6194   00185C  D01A               	goto	i2l6197
  6195   00185E                     i2l6195:
  6196                           
  6197                           ; Switch size 1, requested type "simple"
  6198                           ; Number of cases is 8, Range of values is 1 to 117
  6199                           ; switch strategies available:
  6200                           ; Name         Instructions Cycles
  6201                           ; simple_byte           25    13 (average)
  6202                           ;	Chosen strategy is simple_byte
  6203   00185E  5042               	movf	??_USER_USB_CALLBACK_EVENT_HANDLER^0,w,c
  6204   001860  0A01               	xorlw	1	; case 1
  6205   001862  B4D8               	btfsc	status,2,c
  6206   001864  D7EA               	goto	i2l3709
  6207   001866  0A03               	xorlw	3	; case 2
  6208   001868  B4D8               	btfsc	status,2,c
  6209   00186A  0012               	return	
  6210   00186C  0A01               	xorlw	1	; case 3
  6211   00186E  B4D8               	btfsc	status,2,c
  6212   001870  D7E7               	goto	i2l3711
  6213   001872  0A06               	xorlw	6	; case 5
  6214   001874  B4D8               	btfsc	status,2,c
  6215   001876  0012               	return	
  6216   001878  0A77               	xorlw	119	; case 114
  6217   00187A  B4D8               	btfsc	status,2,c
  6218   00187C  0012               	return	
  6219   00187E  0A01               	xorlw	1	; case 115
  6220   001880  B4D8               	btfsc	status,2,c
  6221   001882  D7BF               	goto	i2l3697
  6222   001884  0A07               	xorlw	7	; case 116
  6223   001886  B4D8               	btfsc	status,2,c
  6224   001888  D7D2               	goto	i2l3707
  6225   00188A  0A01               	xorlw	1	; case 117
  6226   00188C  A4D8               	btfss	status,2,c
  6227   00188E  0012               	return	
  6228   001890  D7C8               	goto	i2l3705
  6229   001892                     i2l6197:
  6230                           
  6231                           ; Switch size 1, requested type "simple"
  6232                           ; Number of cases is 1, Range of values is 255 to 255
  6233                           ; switch strategies available:
  6234                           ; Name         Instructions Cycles
  6235                           ; simple_byte            4     3 (average)
  6236                           ;	Chosen strategy is simple_byte
  6237   001892  5042               	movf	??_USER_USB_CALLBACK_EVENT_HANDLER^0,w,c
  6238   001894  0AFF               	xorlw	255	; case 255
  6239   001896  0012               	return	
  6240   001898                     __end_of_USER_USB_CALLBACK_EVENT_HANDLER:
  6241                           	callstack 0
  6242                           
  6243 ;; *************** function i2_SYSTEM_Initialize *****************
  6244 ;; Defined at:
  6245 ;;		line 67 in file "system.c"
  6246 ;; Parameters:    Size  Location     Type
  6247 ;;  state           1    wreg     enum E3026
  6248 ;; Auto vars:     Size  Location     Type
  6249 ;;  state           1    5[COMRAM] enum E3026
  6250 ;; Return value:  Size  Location     Type
  6251 ;;                  1    wreg      void 
  6252 ;; Registers used:
  6253 ;;		wreg, status,2, status,0, cstack
  6254 ;; Tracked objects:
  6255 ;;		On entry : 0/0
  6256 ;;		On exit  : 0/0
  6257 ;;		Unchanged: 0/0
  6258 ;; Data sizes:     COMRAM   BANK0   BANK1  BANK2h  BANK2l
  6259 ;;      Params:         0       0       0       0       0
  6260 ;;      Locals:         1       0       0       0       0
  6261 ;;      Temps:          2       0       0       0       0
  6262 ;;      Totals:         3       0       0       0       0
  6263 ;;Total ram usage:        3 bytes
  6264 ;; Hardware stack levels used: 1
  6265 ;; Hardware stack levels required when called: 1
  6266 ;; This function calls:
  6267 ;;		i2_BUTTON_Enable
  6268 ;;		i2_LED_Enable
  6269 ;; This function is called by:
  6270 ;;		_USER_USB_CALLBACK_EVENT_HANDLER
  6271 ;; This function uses a non-reentrant model
  6272 ;;
  6273                           
  6274                           	psect	text35
  6275   001EDC                     __ptext35:
  6276                           	callstack 0
  6277   001EDC                     i2_SYSTEM_Initialize:
  6278                           	callstack 23
  6279                           
  6280                           ;incstack = 0
  6281                           ;i2SYSTEM_Initialize@state stored from wreg
  6282   001EDC  6E33               	movwf	i2SYSTEM_Initialize@state^0,c
  6283                           
  6284                           ;system.c: 67: void SYSTEM_Initialize( SYSTEM_STATE state );system.c: 68: {;system.c: 69
      +                          :     switch(state)
  6285   001EDE  D00A               	goto	i2l3689
  6286   001EE0                     i2l3685:
  6287                           
  6288                           ;system.c: 72:             LED_Enable(LED_D1);
  6289   001EE0  0E01               	movlw	1
  6290   001EE2  ECC8  F00E         	call	i2_LED_Enable
  6291                           
  6292                           ;system.c: 73:             LED_Enable(LED_D2);
  6293   001EE6  0E02               	movlw	2
  6294   001EE8  ECC8  F00E         	call	i2_LED_Enable
  6295                           
  6296                           ;system.c: 74:             BUTTON_Enable(BUTTON_S1);
  6297   001EEC  0E01               	movlw	1
  6298   001EEE  EC5E  F010         	call	i2_BUTTON_Enable
  6299                           
  6300                           ;system.c: 75:             break;
  6301   001EF2  0012               	return	
  6302   001EF4                     i2l3689:
  6303   001EF4  5033               	movf	i2SYSTEM_Initialize@state^0,w,c
  6304   001EF6  6E31               	movwf	??i2_SYSTEM_Initialize^0,c
  6305   001EF8  6A32               	clrf	(??i2_SYSTEM_Initialize+1)^0,c
  6306                           
  6307                           ; Switch on 2 bytes has been partitioned into a top level switch of size 1, and 1 sub-sw
      +                          itches
  6308                           ; Switch size 1, requested type "simple"
  6309                           ; Number of cases is 1, Range of values is 0 to 0
  6310                           ; switch strategies available:
  6311                           ; Name         Instructions Cycles
  6312                           ; simple_byte            4     3 (average)
  6313                           ;	Chosen strategy is simple_byte
  6314   001EFA  5032               	movf	(??i2_SYSTEM_Initialize+1)^0,w,c
  6315   001EFC  0A00               	xorlw	0	; case 0
  6316   001EFE  A4D8               	btfss	status,2,c
  6317   001F00  0012               	return	
  6318                           
  6319                           ; Switch size 1, requested type "simple"
  6320                           ; Number of cases is 3, Range of values is 0 to 2
  6321                           ; switch strategies available:
  6322                           ; Name         Instructions Cycles
  6323                           ; simple_byte           10     6 (average)
  6324                           ;	Chosen strategy is simple_byte
  6325   001F02  5031               	movf	??i2_SYSTEM_Initialize^0,w,c
  6326   001F04  0A00               	xorlw	0	; case 0
  6327   001F06  B4D8               	btfsc	status,2,c
  6328   001F08  D7EB               	goto	i2l3685
  6329   001F0A  0A01               	xorlw	1	; case 1
  6330   001F0C  B4D8               	btfsc	status,2,c
  6331   001F0E  0012               	return	
  6332   001F10  0A03               	xorlw	3	; case 2
  6333   001F12  0012               	return	
  6334   001F14                     __end_ofi2_SYSTEM_Initialize:
  6335                           	callstack 0
  6336                           
  6337 ;; *************** function i2_LED_Enable *****************
  6338 ;; Defined at:
  6339 ;;		line 220 in file "../bsp/pic18f14k50/leds.c"
  6340 ;; Parameters:    Size  Location     Type
  6341 ;;  led             1    wreg     enum E2
  6342 ;; Auto vars:     Size  Location     Type
  6343 ;;  led             1    2[COMRAM] enum E2
  6344 ;; Return value:  Size  Location     Type
  6345 ;;                  1    wreg      void 
  6346 ;; Registers used:
  6347 ;;		wreg, status,2, status,0
  6348 ;; Tracked objects:
  6349 ;;		On entry : 0/0
  6350 ;;		On exit  : 0/0
  6351 ;;		Unchanged: 0/0
  6352 ;; Data sizes:     COMRAM   BANK0   BANK1  BANK2h  BANK2l
  6353 ;;      Params:         0       0       0       0       0
  6354 ;;      Locals:         1       0       0       0       0
  6355 ;;      Temps:          2       0       0       0       0
  6356 ;;      Totals:         3       0       0       0       0
  6357 ;;Total ram usage:        3 bytes
  6358 ;; Hardware stack levels used: 1
  6359 ;; This function calls:
  6360 ;;		Nothing
  6361 ;; This function is called by:
  6362 ;;		i2_SYSTEM_Initialize
  6363 ;; This function uses a non-reentrant model
  6364 ;;
  6365                           
  6366                           	psect	text36
  6367   001D90                     __ptext36:
  6368                           	callstack 0
  6369   001D90                     i2_LED_Enable:
  6370                           	callstack 23
  6371                           
  6372                           ;incstack = 0
  6373                           ;i2LED_Enable@led stored from wreg
  6374   001D90  6E30               	movwf	i2LED_Enable@led^0,c
  6375                           
  6376                           ;../bsp/pic18f14k50/leds.c: 220: void LED_Enable(LED led);../bsp/pic18f14k50/leds.c: 221
      +                          : {;../bsp/pic18f14k50/leds.c: 222:     switch(led)
  6377   001D92  D008               	goto	i2l3521
  6378   001D94                     i2l64:
  6379                           
  6380                           ;../bsp/pic18f14k50/leds.c: 225:             TRISCbits.TRISC0 = 0;
  6381   001D94  9094               	bcf	148,0,c	;volatile
  6382                           
  6383                           ;../bsp/pic18f14k50/leds.c: 226:             break;
  6384   001D96  0012               	return	
  6385   001D98                     i2l66:
  6386                           
  6387                           ;../bsp/pic18f14k50/leds.c: 229:             TRISCbits.TRISC1 = 0;
  6388   001D98  9294               	bcf	148,1,c	;volatile
  6389                           
  6390                           ;../bsp/pic18f14k50/leds.c: 230:             break;
  6391   001D9A  0012               	return	
  6392   001D9C                     i2l67:
  6393                           
  6394                           ;../bsp/pic18f14k50/leds.c: 233:             TRISCbits.TRISC2 = 0;
  6395   001D9C  9494               	bcf	148,2,c	;volatile
  6396                           
  6397                           ;../bsp/pic18f14k50/leds.c: 234:             break;
  6398   001D9E  0012               	return	
  6399   001DA0                     i2l68:
  6400                           
  6401                           ;../bsp/pic18f14k50/leds.c: 237:             TRISCbits.TRISC3 = 0;
  6402   001DA0  9694               	bcf	148,3,c	;volatile
  6403                           
  6404                           ;../bsp/pic18f14k50/leds.c: 238:             break;
  6405   001DA2  0012               	return	
  6406   001DA4                     i2l3521:
  6407   001DA4  5030               	movf	i2LED_Enable@led^0,w,c
  6408   001DA6  6E2E               	movwf	??i2_LED_Enable^0,c
  6409   001DA8  6A2F               	clrf	(??i2_LED_Enable+1)^0,c
  6410                           
  6411                           ; Switch on 2 bytes has been partitioned into a top level switch of size 1, and 1 sub-sw
      +                          itches
  6412                           ; Switch size 1, requested type "simple"
  6413                           ; Number of cases is 1, Range of values is 0 to 0
  6414                           ; switch strategies available:
  6415                           ; Name         Instructions Cycles
  6416                           ; simple_byte            4     3 (average)
  6417                           ;	Chosen strategy is simple_byte
  6418   001DAA  502F               	movf	(??i2_LED_Enable+1)^0,w,c
  6419   001DAC  0A00               	xorlw	0	; case 0
  6420   001DAE  A4D8               	btfss	status,2,c
  6421   001DB0  0012               	return	
  6422                           
  6423                           ; Switch size 1, requested type "simple"
  6424                           ; Number of cases is 5, Range of values is 0 to 4
  6425                           ; switch strategies available:
  6426                           ; Name         Instructions Cycles
  6427                           ; simple_byte           16     9 (average)
  6428                           ;	Chosen strategy is simple_byte
  6429   001DB2  502E               	movf	??i2_LED_Enable^0,w,c
  6430   001DB4  0A00               	xorlw	0	; case 0
  6431   001DB6  B4D8               	btfsc	status,2,c
  6432   001DB8  0012               	return	
  6433   001DBA  0A01               	xorlw	1	; case 1
  6434   001DBC  B4D8               	btfsc	status,2,c
  6435   001DBE  D7EA               	goto	i2l64
  6436   001DC0  0A03               	xorlw	3	; case 2
  6437   001DC2  B4D8               	btfsc	status,2,c
  6438   001DC4  D7E9               	goto	i2l66
  6439   001DC6  0A01               	xorlw	1	; case 3
  6440   001DC8  B4D8               	btfsc	status,2,c
  6441   001DCA  D7E8               	goto	i2l67
  6442   001DCC  0A07               	xorlw	7	; case 4
  6443   001DCE  A4D8               	btfss	status,2,c
  6444   001DD0  0012               	return	
  6445   001DD2  D7E6               	goto	i2l68
  6446   001DD4                     __end_ofi2_LED_Enable:
  6447                           	callstack 0
  6448                           
  6449 ;; *************** function i2_BUTTON_Enable *****************
  6450 ;; Defined at:
  6451 ;;		line 85 in file "../bsp/pic18f14k50/buttons.c"
  6452 ;; Parameters:    Size  Location     Type
  6453 ;;  button          1    wreg     enum E2809
  6454 ;; Auto vars:     Size  Location     Type
  6455 ;;  button          1    2[COMRAM] enum E2809
  6456 ;; Return value:  Size  Location     Type
  6457 ;;                  1    wreg      void 
  6458 ;; Registers used:
  6459 ;;		wreg, status,2, status,0
  6460 ;; Tracked objects:
  6461 ;;		On entry : 0/0
  6462 ;;		On exit  : 0/0
  6463 ;;		Unchanged: 0/0
  6464 ;; Data sizes:     COMRAM   BANK0   BANK1  BANK2h  BANK2l
  6465 ;;      Params:         0       0       0       0       0
  6466 ;;      Locals:         1       0       0       0       0
  6467 ;;      Temps:          2       0       0       0       0
  6468 ;;      Totals:         3       0       0       0       0
  6469 ;;Total ram usage:        3 bytes
  6470 ;; Hardware stack levels used: 1
  6471 ;; This function calls:
  6472 ;;		Nothing
  6473 ;; This function is called by:
  6474 ;;		i2_SYSTEM_Initialize
  6475 ;; This function uses a non-reentrant model
  6476 ;;
  6477                           
  6478                           	psect	text37
  6479   0020BC                     __ptext37:
  6480                           	callstack 0
  6481   0020BC                     i2_BUTTON_Enable:
  6482                           	callstack 23
  6483                           
  6484                           ;incstack = 0
  6485                           ;i2BUTTON_Enable@button stored from wreg
  6486   0020BC  6E30               	movwf	i2BUTTON_Enable@button^0,c
  6487                           
  6488                           ;../bsp/pic18f14k50/buttons.c: 85: void BUTTON_Enable(BUTTON button);../bsp/pic18f14k50/
      +                          buttons.c: 86: {;../bsp/pic18f14k50/buttons.c: 87:     switch(button)
  6489   0020BE  5030               	movf	i2BUTTON_Enable@button^0,w,c
  6490   0020C0  6E2E               	movwf	??i2_BUTTON_Enable^0,c
  6491   0020C2  6A2F               	clrf	(??i2_BUTTON_Enable+1)^0,c
  6492                           
  6493                           ; Switch on 2 bytes has been partitioned into a top level switch of size 1, and 1 sub-sw
      +                          itches
  6494                           ; Switch size 1, requested type "simple"
  6495                           ; Number of cases is 1, Range of values is 0 to 0
  6496                           ; switch strategies available:
  6497                           ; Name         Instructions Cycles
  6498                           ; simple_byte            4     3 (average)
  6499                           ;	Chosen strategy is simple_byte
  6500   0020C4  502F               	movf	(??i2_BUTTON_Enable+1)^0,w,c
  6501   0020C6  0A00               	xorlw	0	; case 0
  6502   0020C8  A4D8               	btfss	status,2,c
  6503   0020CA  0012               	return	
  6504                           
  6505                           ; Switch size 1, requested type "simple"
  6506                           ; Number of cases is 2, Range of values is 0 to 1
  6507                           ; switch strategies available:
  6508                           ; Name         Instructions Cycles
  6509                           ; simple_byte            7     4 (average)
  6510                           ;	Chosen strategy is simple_byte
  6511   0020CC  502E               	movf	??i2_BUTTON_Enable^0,w,c
  6512   0020CE  0A00               	xorlw	0	; case 0
  6513   0020D0  B4D8               	btfsc	status,2,c
  6514   0020D2  0012               	return	
  6515   0020D4  0A01               	xorlw	1	; case 1
  6516   0020D6  0012               	return	
  6517   0020D8                     __end_ofi2_BUTTON_Enable:
  6518                           	callstack 0
  6519                           
  6520 ;; *************** function _USBCheckHIDRequest *****************
  6521 ;; Defined at:
  6522 ;;		line 161 in file "../framework/usb/src/usb_device_hid.c"
  6523 ;; Parameters:    Size  Location     Type
  6524 ;;		None
  6525 ;; Auto vars:     Size  Location     Type
  6526 ;;		None
  6527 ;; Return value:  Size  Location     Type
  6528 ;;                  1    wreg      void 
  6529 ;; Registers used:
  6530 ;;		wreg, status,2, status,0, cstack
  6531 ;; Tracked objects:
  6532 ;;		On entry : 0/0
  6533 ;;		On exit  : 0/0
  6534 ;;		Unchanged: 0/0
  6535 ;; Data sizes:     COMRAM   BANK0   BANK1  BANK2h  BANK2l
  6536 ;;      Params:         0       0       0       0       0
  6537 ;;      Locals:         0       0       0       0       0
  6538 ;;      Temps:          2       0       0       0       0
  6539 ;;      Totals:         2       0       0       0       0
  6540 ;;Total ram usage:        2 bytes
  6541 ;; Hardware stack levels used: 1
  6542 ;; Hardware stack levels required when called: 1
  6543 ;; This function calls:
  6544 ;;		_USBHIDCBSetIdleRateHandler
  6545 ;;		_USBHIDCBSetReportHandler
  6546 ;; This function is called by:
  6547 ;;		_USER_USB_CALLBACK_EVENT_HANDLER
  6548 ;; This function uses a non-reentrant model
  6549 ;;
  6550                           
  6551                           	psect	text38
  6552   000F9C                     __ptext38:
  6553                           	callstack 0
  6554   000F9C                     _USBCheckHIDRequest:
  6555                           	callstack 23
  6556                           
  6557                           ;../framework/usb/src/usb_device_hid.c: 163:     if(SetupPkt.Recipient != (0x01)) return
      +                          ;
  6558                           
  6559                           ;incstack = 0
  6560   000F9C  0102               	movlb	2	; () banked
  6561   000F9E  5120               	movf	32,w,b	;volatile
  6562   000FA0  0B1F               	andlw	31
  6563   000FA2  06E8               	decf	wreg,f,c
  6564   000FA4  A4D8               	btfss	status,2,c
  6565   000FA6  0012               	return	
  6566                           
  6567                           ; BSR set to: 2
  6568                           ;../framework/usb/src/usb_device_hid.c: 164:     if(SetupPkt.bIntfID != 0x00) return;
  6569   000FA8  5124               	movf	36,w,b	;volatile
  6570   000FAA  A4D8               	btfss	status,2,c
  6571   000FAC  0012               	return	
  6572                           
  6573                           ; BSR set to: 2
  6574                           ;../framework/usb/src/usb_device_hid.c: 171:     if(SetupPkt.bRequest == 6)
  6575   000FAE  0E06               	movlw	6
  6576   000FB0  1921               	xorwf	33,w,b	;volatile
  6577   000FB2  B4D8               	btfsc	status,2,c
  6578   000FB4  D01C               	goto	i2l3637
  6579   000FB6  D02A               	goto	i2l3639
  6580   000FB8                     i2l3621:
  6581                           
  6582                           ; BSR set to: 2
  6583                           ;../framework/usb/src/usb_device_hid.c: 176:                 if(USBActiveConfiguration =
      +                          = 1)
  6584   000FB8  042D               	decf	_USBActiveConfiguration^0,w,c	;volatile
  6585   000FBA  A4D8               	btfss	status,2,c
  6586   000FBC  D027               	goto	i2l3639
  6587                           
  6588                           ; BSR set to: 2
  6589                           ;../framework/usb/src/usb_device_hid.c: 177:                 {;../framework/usb/src/usb_
      +                          device_hid.c: 178:                     { inPipes[0].pSrc.bRom = (const uint8_t*)&configD
      +                          escriptor1 + 18; inPipes[0].wCount.Val = sizeof(USB_HID_DSC)+3; inPipes[0].info.Val = 0x
      +                          40 | 0x80 | 0x00; };
  6590   000FBE  0E8A               	movlw	low (_configDescriptor1+18)
  6591   000FC0  6E09               	movwf	_inPipes^0,c	;volatile
  6592   000FC2  5009               	movf	_inPipes^0,w,c	;volatile
  6593   000FC4  A4D8               	btfss	status,2,c
  6594   000FC6  0E03               	movlw	high __smallconst
  6595   000FC8  6E0A               	movwf	(_inPipes+1)^0,c	;volatile
  6596                           
  6597                           ; BSR set to: 2
  6598   000FCA  0E00               	movlw	0
  6599   000FCC  6E0E               	movwf	(_inPipes+5)^0,c	;volatile
  6600   000FCE  0E09               	movlw	9
  6601   000FD0  D00C               	goto	L11
  6602   000FD2                     i2l3627:
  6603                           
  6604                           ; BSR set to: 2
  6605   000FD2  0EC0               	movlw	192
  6606   000FD4  6E0C               	movwf	(_inPipes+3)^0,c	;volatile
  6607   000FD6  D01A               	goto	i2l3639
  6608   000FD8                     i2l3629:
  6609                           
  6610                           ; BSR set to: 2
  6611                           ;../framework/usb/src/usb_device_hid.c: 186:                 {;../framework/usb/src/usb_
      +                          device_hid.c: 187:                     { inPipes[0].pSrc.bRom = (const uint8_t*)&hid_rpt
      +                          01; inPipes[0].wCount.Val = 63; inPipes[0].info.Val = 0x40 | 0x80 | 0x00; };
  6612   000FD8  0E05               	movlw	low _hid_rpt01
  6613   000FDA  6E09               	movwf	_inPipes^0,c	;volatile
  6614   000FDC  5009               	movf	_inPipes^0,w,c	;volatile
  6615   000FDE  A4D8               	btfss	status,2,c
  6616   000FE0  0E03               	movlw	high __smallconst
  6617   000FE2  6E0A               	movwf	(_inPipes+1)^0,c	;volatile
  6618                           
  6619                           ; BSR set to: 2
  6620   000FE4  0E00               	movlw	0
  6621   000FE6  6E0E               	movwf	(_inPipes+5)^0,c	;volatile
  6622   000FE8  0E3F               	movlw	63
  6623   000FEA                     L11:
  6624   000FEA  6E0D               	movwf	(_inPipes+4)^0,c	;volatile
  6625   000FEC  D7F2               	goto	i2l3627
  6626   000FEE                     i2l3637:
  6627                           
  6628                           ; BSR set to: 2
  6629   000FEE  5123               	movf	35,w,b	;volatile
  6630   000FF0  6E30               	movwf	??_USBCheckHIDRequest^0,c
  6631   000FF2  6A31               	clrf	(??_USBCheckHIDRequest+1)^0,c
  6632                           
  6633                           ; Switch on 2 bytes has been partitioned into a top level switch of size 1, and 1 sub-sw
      +                          itches
  6634                           ; Switch size 1, requested type "simple"
  6635                           ; Number of cases is 1, Range of values is 0 to 0
  6636                           ; switch strategies available:
  6637                           ; Name         Instructions Cycles
  6638                           ; simple_byte            4     3 (average)
  6639                           ;	Chosen strategy is simple_byte
  6640   000FF4  5031               	movf	(??_USBCheckHIDRequest+1)^0,w,c
  6641   000FF6  0A00               	xorlw	0	; case 0
  6642   000FF8  A4D8               	btfss	status,2,c
  6643   000FFA  D008               	goto	i2l3639
  6644                           
  6645                           ; BSR set to: 2
  6646                           ; Switch size 1, requested type "simple"
  6647                           ; Number of cases is 3, Range of values is 33 to 35
  6648                           ; switch strategies available:
  6649                           ; Name         Instructions Cycles
  6650                           ; simple_byte           10     6 (average)
  6651                           ;	Chosen strategy is simple_byte
  6652   000FFC  5030               	movf	??_USBCheckHIDRequest^0,w,c
  6653   000FFE  0A21               	xorlw	33	; case 33
  6654   001000  B4D8               	btfsc	status,2,c
  6655   001002  D7DA               	goto	i2l3621
  6656   001004  0A03               	xorlw	3	; case 34
  6657   001006  B4D8               	btfsc	status,2,c
  6658   001008  D7E7               	goto	i2l3629
  6659   00100A  0A01               	xorlw	1	; case 35
  6660   00100C                     i2l3639:
  6661                           
  6662                           ; BSR set to: 2
  6663                           ;../framework/usb/src/usb_device_hid.c: 209:     if(SetupPkt.RequestType != (0x20>>5))
  6664   00100C  3920               	swapf	32,w,b	;volatile
  6665   00100E  32E8               	rrcf	wreg,f,c
  6666   001010  0B03               	andlw	3
  6667   001012  06E8               	decf	wreg,f,c
  6668   001014  A4D8               	btfss	status,2,c
  6669   001016  0012               	return	
  6670   001018  D026               	goto	i2l3669
  6671   00101A                     i2l3643:
  6672                           
  6673                           ; BSR set to: 2
  6674                           ;../framework/usb/src/usb_device_hid.c: 223:                 USBHIDCBSetReportHandler();
  6675   00101A  EC6C  F010         	call	_USBHIDCBSetReportHandler	;wreg free
  6676                           
  6677                           ;../framework/usb/src/usb_device_hid.c: 225:             break;
  6678   00101E  0012               	return	
  6679   001020                     i2l3645:
  6680                           
  6681                           ; BSR set to: 2
  6682                           ;../framework/usb/src/usb_device_hid.c: 227:             { inPipes[0].pSrc.bRam = (uint8
      +                          _t*)&idle_rate; inPipes[0].wCount.Val = 1; inPipes[0].info.Val = 0x40 | 0x80 | 0x01; };
  6683   001020  0E85               	movlw	low _idle_rate
  6684   001022  6E09               	movwf	_inPipes^0,c	;volatile
  6685   001024  6A0A               	clrf	(_inPipes+1)^0,c	;volatile
  6686                           
  6687                           ; BSR set to: 2
  6688   001026  0E00               	movlw	0
  6689   001028  6E0E               	movwf	(_inPipes+5)^0,c	;volatile
  6690   00102A  0E01               	movlw	1
  6691   00102C  6E0D               	movwf	(_inPipes+4)^0,c	;volatile
  6692                           
  6693                           ; BSR set to: 2
  6694   00102E  0EC1               	movlw	193
  6695   001030  6E0C               	movwf	(_inPipes+3)^0,c	;volatile
  6696                           
  6697                           ;../framework/usb/src/usb_device_hid.c: 231:             break;
  6698   001032  0012               	return	
  6699   001034                     i2l3651:
  6700                           
  6701                           ; BSR set to: 2
  6702                           ;../framework/usb/src/usb_device_hid.c: 233:             inPipes[0].info.Val = 0x00 | 0x
      +                          80;
  6703   001034  0E80               	movlw	128
  6704   001036  6E0C               	movwf	(_inPipes+3)^0,c	;volatile
  6705                           
  6706                           ; BSR set to: 2
  6707                           ;../framework/usb/src/usb_device_hid.c: 234:             idle_rate = SetupPkt.W_Value.by
      +                          te.HB;
  6708   001038  C223 F085          	movff	547,_idle_rate	;volatile
  6709                           
  6710                           ; BSR set to: 2
  6711                           ;../framework/usb/src/usb_device_hid.c: 235:             USBHIDCBSetIdleRateHandler(Setu
      +                          pPkt.W_Value.byte.LB, idle_rate);
  6712   00103C  C085  F02E         	movff	_idle_rate,USBHIDCBSetIdleRateHandler@newIdleRate
  6713   001040  5122               	movf	34,w,b	;volatile
  6714   001042  EC90  F010         	call	_USBHIDCBSetIdleRateHandler
  6715                           
  6716                           ;../framework/usb/src/usb_device_hid.c: 236:             break;
  6717   001046  0012               	return	
  6718   001048                     i2l3657:
  6719                           
  6720                           ; BSR set to: 2
  6721                           ;../framework/usb/src/usb_device_hid.c: 238:             { inPipes[0].pSrc.bRam = (uint8
      +                          _t*)&active_protocol; inPipes[0].wCount.Val = 1; inPipes[0].info.Val = 0x00 | 0x80 | 0x0
      +                          1; };
  6722   001048  0E84               	movlw	low _active_protocol
  6723   00104A  6E09               	movwf	_inPipes^0,c	;volatile
  6724   00104C  6A0A               	clrf	(_inPipes+1)^0,c	;volatile
  6725                           
  6726                           ; BSR set to: 2
  6727   00104E  0E00               	movlw	0
  6728   001050  6E0E               	movwf	(_inPipes+5)^0,c	;volatile
  6729   001052  0E01               	movlw	1
  6730   001054  6E0D               	movwf	(_inPipes+4)^0,c	;volatile
  6731                           
  6732                           ; BSR set to: 2
  6733   001056  0E81               	movlw	129
  6734   001058  6E0C               	movwf	(_inPipes+3)^0,c	;volatile
  6735                           
  6736                           ;../framework/usb/src/usb_device_hid.c: 242:             break;
  6737   00105A  0012               	return	
  6738   00105C                     i2l3663:
  6739                           
  6740                           ; BSR set to: 2
  6741                           ;../framework/usb/src/usb_device_hid.c: 244:             inPipes[0].info.Val = 0x00 | 0x
      +                          80;
  6742   00105C  0E80               	movlw	128
  6743   00105E  6E0C               	movwf	(_inPipes+3)^0,c	;volatile
  6744                           
  6745                           ; BSR set to: 2
  6746                           ;../framework/usb/src/usb_device_hid.c: 245:             active_protocol = SetupPkt.W_Va
      +                          lue.byte.LB;
  6747   001060  C222 F084          	movff	546,_active_protocol	;volatile
  6748                           
  6749                           ;../framework/usb/src/usb_device_hid.c: 246:             break;
  6750   001064  0012               	return	
  6751   001066                     i2l3669:
  6752                           
  6753                           ; BSR set to: 2
  6754   001066  5121               	movf	33,w,b	;volatile
  6755   001068  6E30               	movwf	??_USBCheckHIDRequest^0,c
  6756   00106A  6A31               	clrf	(??_USBCheckHIDRequest+1)^0,c
  6757                           
  6758                           ; Switch on 2 bytes has been partitioned into a top level switch of size 1, and 1 sub-sw
      +                          itches
  6759                           ; Switch size 1, requested type "simple"
  6760                           ; Number of cases is 1, Range of values is 0 to 0
  6761                           ; switch strategies available:
  6762                           ; Name         Instructions Cycles
  6763                           ; simple_byte            4     3 (average)
  6764                           ;	Chosen strategy is simple_byte
  6765   00106C  5031               	movf	(??_USBCheckHIDRequest+1)^0,w,c
  6766   00106E  0A00               	xorlw	0	; case 0
  6767   001070  A4D8               	btfss	status,2,c
  6768   001072  0012               	return	
  6769                           
  6770                           ; BSR set to: 2
  6771                           ; Switch size 1, requested type "simple"
  6772                           ; Number of cases is 6, Range of values is 1 to 11
  6773                           ; switch strategies available:
  6774                           ; Name         Instructions Cycles
  6775                           ; simple_byte           19    10 (average)
  6776                           ;	Chosen strategy is simple_byte
  6777   001074  5030               	movf	??_USBCheckHIDRequest^0,w,c
  6778   001076  0A01               	xorlw	1	; case 1
  6779   001078  B4D8               	btfsc	status,2,c
  6780   00107A  0012               	return	
  6781   00107C  0A03               	xorlw	3	; case 2
  6782   00107E  B4D8               	btfsc	status,2,c
  6783   001080  D7CF               	goto	i2l3645
  6784   001082  0A01               	xorlw	1	; case 3
  6785   001084  B4D8               	btfsc	status,2,c
  6786   001086  D7E0               	goto	i2l3657
  6787   001088  0A0A               	xorlw	10	; case 9
  6788   00108A  B4D8               	btfsc	status,2,c
  6789   00108C  D7C6               	goto	i2l3643
  6790   00108E  0A03               	xorlw	3	; case 10
  6791   001090  B4D8               	btfsc	status,2,c
  6792   001092  D7D0               	goto	i2l3651
  6793   001094  0A01               	xorlw	1	; case 11
  6794   001096  A4D8               	btfss	status,2,c
  6795   001098  0012               	return	
  6796   00109A  D7E0               	goto	i2l3663
  6797   00109C                     __end_of_USBCheckHIDRequest:
  6798                           	callstack 0
  6799                           
  6800 ;; *************** function _USBHIDCBSetReportHandler *****************
  6801 ;; Defined at:
  6802 ;;		line 470 in file "../demo_src/app_device_keyboard.c"
  6803 ;; Parameters:    Size  Location     Type
  6804 ;;		None
  6805 ;; Auto vars:     Size  Location     Type
  6806 ;;		None
  6807 ;; Return value:  Size  Location     Type
  6808 ;;                  1    wreg      void 
  6809 ;; Registers used:
  6810 ;;		wreg, status,2, status,0
  6811 ;; Tracked objects:
  6812 ;;		On entry : 0/2
  6813 ;;		On exit  : 0/0
  6814 ;;		Unchanged: 0/0
  6815 ;; Data sizes:     COMRAM   BANK0   BANK1  BANK2h  BANK2l
  6816 ;;      Params:         0       0       0       0       0
  6817 ;;      Locals:         0       0       0       0       0
  6818 ;;      Temps:          0       0       0       0       0
  6819 ;;      Totals:         0       0       0       0       0
  6820 ;;Total ram usage:        0 bytes
  6821 ;; Hardware stack levels used: 1
  6822 ;; This function calls:
  6823 ;;		Nothing
  6824 ;; This function is called by:
  6825 ;;		_USBCheckHIDRequest
  6826 ;; This function uses a non-reentrant model
  6827 ;;
  6828                           
  6829                           	psect	text39
  6830   0020D8                     __ptext39:
  6831                           	callstack 0
  6832   0020D8                     _USBHIDCBSetReportHandler:
  6833                           	callstack 23
  6834                           
  6835                           ;../demo_src/app_device_keyboard.c: 475:     {outPipes[0].pDst.bRam = (uint8_t*)&CtrlTrf
      +                          Data;outPipes[0].wCount.Val = 8;outPipes[0].pFunc = USBHIDCBSetReportComplete;outPipes[0
      +                          ].info.bits.busy = 1; };
  6836                           
  6837                           ;incstack = 0
  6838   0020D8  0E28               	movlw	40
  6839   0020DA  6E01               	movwf	_outPipes^0,c	;volatile
  6840   0020DC  0E02               	movlw	2
  6841   0020DE  6E02               	movwf	(_outPipes+1)^0,c	;volatile
  6842   0020E0  0E00               	movlw	0
  6843   0020E2  6E06               	movwf	(_outPipes+5)^0,c	;volatile
  6844   0020E4  0E08               	movlw	8
  6845   0020E6  6E05               	movwf	(_outPipes+4)^0,c	;volatile
  6846   0020E8  0E4C               	movlw	low _USBHIDCBSetReportComplete
  6847   0020EA  6E07               	movwf	(_outPipes+6)^0,c	;volatile
  6848   0020EC  0E21               	movlw	high _USBHIDCBSetReportComplete
  6849   0020EE  6E08               	movwf	(_outPipes+7)^0,c	;volatile
  6850   0020F0  8E04               	bsf	(_outPipes+3)^0,7,c	;volatile
  6851   0020F2  0012               	return		;funcret
  6852   0020F4                     __end_of_USBHIDCBSetReportHandler:
  6853                           	callstack 0
  6854                           
  6855 ;; *************** function _USBHIDCBSetIdleRateHandler *****************
  6856 ;; Defined at:
  6857 ;;		line 481 in file "../demo_src/app_device_keyboard.c"
  6858 ;; Parameters:    Size  Location     Type
  6859 ;;  reportID        1    wreg     unsigned char 
  6860 ;;  newIdleRate     1    0[COMRAM] unsigned char 
  6861 ;; Auto vars:     Size  Location     Type
  6862 ;;  reportID        1    1[COMRAM] unsigned char 
  6863 ;; Return value:  Size  Location     Type
  6864 ;;                  1    wreg      void 
  6865 ;; Registers used:
  6866 ;;		wreg, status,2
  6867 ;; Tracked objects:
  6868 ;;		On entry : 3F/2
  6869 ;;		On exit  : 0/0
  6870 ;;		Unchanged: 0/0
  6871 ;; Data sizes:     COMRAM   BANK0   BANK1  BANK2h  BANK2l
  6872 ;;      Params:         1       0       0       0       0
  6873 ;;      Locals:         1       0       0       0       0
  6874 ;;      Temps:          0       0       0       0       0
  6875 ;;      Totals:         2       0       0       0       0
  6876 ;;Total ram usage:        2 bytes
  6877 ;; Hardware stack levels used: 1
  6878 ;; This function calls:
  6879 ;;		Nothing
  6880 ;; This function is called by:
  6881 ;;		_USBCheckHIDRequest
  6882 ;; This function uses a non-reentrant model
  6883 ;;
  6884                           
  6885                           	psect	text40
  6886   002120                     __ptext40:
  6887                           	callstack 0
  6888   002120                     _USBHIDCBSetIdleRateHandler:
  6889                           	callstack 23
  6890                           
  6891                           ;incstack = 0
  6892                           ;USBHIDCBSetIdleRateHandler@reportID stored from wreg
  6893   002120  6E2F               	movwf	USBHIDCBSetIdleRateHandler@reportID^0,c
  6894                           
  6895                           ;../demo_src/app_device_keyboard.c: 481: void USBHIDCBSetIdleRateHandler(uint8_t reportI
      +                          D, uint8_t newIdleRate);../demo_src/app_device_keyboard.c: 482: {;../demo_src/app_device
      +                          _keyboard.c: 486:     if(reportID == 0)
  6896   002122  502F               	movf	USBHIDCBSetIdleRateHandler@reportID^0,w,c
  6897   002124  A4D8               	btfss	status,2,c
  6898   002126  0012               	return	
  6899                           
  6900                           ;../demo_src/app_device_keyboard.c: 487:     {;../demo_src/app_device_keyboard.c: 488:  
      +                                 keyboardIdleRate = newIdleRate;
  6901   002128  C02E  F07A         	movff	USBHIDCBSetIdleRateHandler@newIdleRate,_keyboardIdleRate
  6902   00212C  0100               	movlb	0	; () banked
  6903   00212E  6B7B               	clrf	(_keyboardIdleRate+1)& (0+255),b
  6904   002130  0012               	return		;funcret
  6905   002132                     __end_of_USBHIDCBSetIdleRateHandler:
  6906                           	callstack 0
  6907                           
  6908 ;; *************** function _APP_LEDUpdateUSBStatus *****************
  6909 ;; Defined at:
  6910 ;;		line 49 in file "../demo_src/app_led_usb_status.c"
  6911 ;; Parameters:    Size  Location     Type
  6912 ;;		None
  6913 ;; Auto vars:     Size  Location     Type
  6914 ;;		None
  6915 ;; Return value:  Size  Location     Type
  6916 ;;                  1    wreg      void 
  6917 ;; Registers used:
  6918 ;;		wreg, status,2, status,0, cstack
  6919 ;; Tracked objects:
  6920 ;;		On entry : 0/0
  6921 ;;		On exit  : 0/0
  6922 ;;		Unchanged: 0/0
  6923 ;; Data sizes:     COMRAM   BANK0   BANK1  BANK2h  BANK2l
  6924 ;;      Params:         0       0       0       0       0
  6925 ;;      Locals:         0       0       0       0       0
  6926 ;;      Temps:          2       0       0       0       0
  6927 ;;      Totals:         2       0       0       0       0
  6928 ;;Total ram usage:        2 bytes
  6929 ;; Hardware stack levels used: 1
  6930 ;; Hardware stack levels required when called: 1
  6931 ;; This function calls:
  6932 ;;		i2_LED_Off
  6933 ;;		i2_LED_On
  6934 ;; This function is called by:
  6935 ;;		_USER_USB_CALLBACK_EVENT_HANDLER
  6936 ;; This function uses a non-reentrant model
  6937 ;;
  6938                           
  6939                           	psect	text41
  6940   0019C4                     __ptext41:
  6941                           	callstack 0
  6942   0019C4                     _APP_LEDUpdateUSBStatus:
  6943                           	callstack 23
  6944                           
  6945                           ;../demo_src/app_led_usb_status.c: 51:     static uint16_t ledCount = 0;;../demo_src/app
      +                          _led_usb_status.c: 53:     if(UCONbits.SUSPND == 1)
  6946                           
  6947                           ;incstack = 0
  6948   0019C4  A264               	btfss	100,1,c	;volatile
  6949   0019C6  D038               	goto	i2l3589
  6950                           
  6951                           ;../demo_src/app_led_usb_status.c: 54:     {;../demo_src/app_led_usb_status.c: 55:      
      +                             LED_Off(LED_D1);
  6952   0019C8  0E01               	movlw	1
  6953   0019CA  EC0C  F00F         	call	i2_LED_Off
  6954   0019CE  0012               	return	
  6955   0019D0                     i2l3563:
  6956                           
  6957                           ;../demo_src/app_led_usb_status.c: 64:             if(ledCount == 1)
  6958   0019D0  0417               	decf	APP_LEDUpdateUSBStatus@ledCount^0,w,c
  6959   0019D2  1018               	iorwf	(APP_LEDUpdateUSBStatus@ledCount+1)^0,w,c
  6960   0019D4  A4D8               	btfss	status,2,c
  6961   0019D6  D004               	goto	i2l3567
  6962                           
  6963                           ;../demo_src/app_led_usb_status.c: 65:             {;../demo_src/app_led_usb_status.c: 6
      +                          6:                 LED_On(LED_D1);
  6964   0019D8  0E01               	movlw	1
  6965   0019DA  ECEA  F00E         	call	i2_LED_On
  6966                           
  6967                           ;../demo_src/app_led_usb_status.c: 67:             }
  6968   0019DE  D038               	goto	i2l3591
  6969   0019E0                     i2l3567:
  6970   0019E0  0E4B               	movlw	75
  6971   0019E2  1817               	xorwf	APP_LEDUpdateUSBStatus@ledCount^0,w,c
  6972   0019E4  1018               	iorwf	(APP_LEDUpdateUSBStatus@ledCount+1)^0,w,c
  6973   0019E6  A4D8               	btfss	status,2,c
  6974   0019E8  D004               	goto	i2l3571
  6975                           
  6976                           ;../demo_src/app_led_usb_status.c: 69:             {;../demo_src/app_led_usb_status.c: 7
      +                          0:                 LED_Off(LED_D1);
  6977   0019EA  0E01               	movlw	1
  6978   0019EC  EC0C  F00F         	call	i2_LED_Off
  6979                           
  6980                           ;../demo_src/app_led_usb_status.c: 71:             }
  6981   0019F0  D02F               	goto	i2l3591
  6982   0019F2                     i2l3571:
  6983   0019F2  5018               	movf	(APP_LEDUpdateUSBStatus@ledCount+1)^0,w,c
  6984   0019F4  E104               	bnz	i2u181_40
  6985   0019F6  0E97               	movlw	151
  6986   0019F8  5C17               	subwf	APP_LEDUpdateUSBStatus@ledCount^0,w,c
  6987   0019FA  A0D8               	btfss	status,0,c
  6988   0019FC  D029               	goto	i2l3591
  6989   0019FE                     i2u181_40:
  6990                           
  6991                           ;../demo_src/app_led_usb_status.c: 73:             {;../demo_src/app_led_usb_status.c: 7
      +                          4:                 ledCount = 0;
  6992   0019FE  0E00               	movlw	0
  6993   001A00  6E18               	movwf	(APP_LEDUpdateUSBStatus@ledCount+1)^0,c
  6994   001A02  0E00               	movlw	0
  6995   001A04  6E17               	movwf	APP_LEDUpdateUSBStatus@ledCount^0,c
  6996                           
  6997                           ;../demo_src/app_led_usb_status.c: 76:             break;
  6998   001A06  D024               	goto	i2l3591
  6999   001A08                     i2l3575:
  7000                           
  7001                           ;../demo_src/app_led_usb_status.c: 81:             if(ledCount == 1)
  7002   001A08  0417               	decf	APP_LEDUpdateUSBStatus@ledCount^0,w,c
  7003   001A0A  1018               	iorwf	(APP_LEDUpdateUSBStatus@ledCount+1)^0,w,c
  7004   001A0C  A4D8               	btfss	status,2,c
  7005   001A0E  D004               	goto	i2l3579
  7006                           
  7007                           ;../demo_src/app_led_usb_status.c: 82:             {;../demo_src/app_led_usb_status.c: 8
      +                          3:                 LED_On(LED_D1);
  7008   001A10  0E01               	movlw	1
  7009   001A12  ECEA  F00E         	call	i2_LED_On
  7010                           
  7011                           ;../demo_src/app_led_usb_status.c: 84:             }
  7012   001A16  D01C               	goto	i2l3591
  7013   001A18                     i2l3579:
  7014   001A18  0E32               	movlw	50
  7015   001A1A  1817               	xorwf	APP_LEDUpdateUSBStatus@ledCount^0,w,c
  7016   001A1C  1018               	iorwf	(APP_LEDUpdateUSBStatus@ledCount+1)^0,w,c
  7017   001A1E  A4D8               	btfss	status,2,c
  7018   001A20  D004               	goto	i2l3583
  7019                           
  7020                           ;../demo_src/app_led_usb_status.c: 86:             {;../demo_src/app_led_usb_status.c: 8
      +                          7:                 LED_Off(LED_D1);
  7021   001A22  0E01               	movlw	1
  7022   001A24  EC0C  F00F         	call	i2_LED_Off
  7023                           
  7024                           ;../demo_src/app_led_usb_status.c: 88:             }
  7025   001A28  D013               	goto	i2l3591
  7026   001A2A                     i2l3583:
  7027   001A2A  0EB7               	movlw	183
  7028   001A2C  5C17               	subwf	APP_LEDUpdateUSBStatus@ledCount^0,w,c
  7029   001A2E  0E03               	movlw	3
  7030   001A30  5818               	subwfb	(APP_LEDUpdateUSBStatus@ledCount+1)^0,w,c
  7031   001A32  B0D8               	btfsc	status,0,c
  7032   001A34  D7E4               	goto	i2u181_40
  7033   001A36  D00C               	goto	i2l3591
  7034   001A38                     i2l3589:
  7035   001A38  502A               	movf	_USBDeviceState^0,w,c	;volatile
  7036   001A3A  6E31               	movwf	??_APP_LEDUpdateUSBStatus^0,c
  7037   001A3C  6A32               	clrf	(??_APP_LEDUpdateUSBStatus+1)^0,c
  7038                           
  7039                           ; Switch on 2 bytes has been partitioned into a top level switch of size 1, and 1 sub-sw
      +                          itches
  7040                           ; Switch size 1, requested type "simple"
  7041                           ; Number of cases is 1, Range of values is 0 to 0
  7042                           ; switch strategies available:
  7043                           ; Name         Instructions Cycles
  7044                           ; simple_byte            4     3 (average)
  7045                           ;	Chosen strategy is simple_byte
  7046   001A3E  5032               	movf	(??_APP_LEDUpdateUSBStatus+1)^0,w,c
  7047   001A40  0A00               	xorlw	0	; case 0
  7048   001A42  A4D8               	btfss	status,2,c
  7049   001A44  D7E1               	goto	i2l3575
  7050                           
  7051                           ; Switch size 1, requested type "simple"
  7052                           ; Number of cases is 1, Range of values is 32 to 32
  7053                           ; switch strategies available:
  7054                           ; Name         Instructions Cycles
  7055                           ; simple_byte            4     3 (average)
  7056                           ;	Chosen strategy is simple_byte
  7057   001A46  5031               	movf	??_APP_LEDUpdateUSBStatus^0,w,c
  7058   001A48  0A20               	xorlw	32	; case 32
  7059   001A4A  B4D8               	btfsc	status,2,c
  7060   001A4C  D7C1               	goto	i2l3563
  7061   001A4E  D7DC               	goto	i2l3575
  7062   001A50                     i2l3591:
  7063                           
  7064                           ;../demo_src/app_led_usb_status.c: 97:     ledCount++;
  7065   001A50  4A17               	infsnz	APP_LEDUpdateUSBStatus@ledCount^0,f,c
  7066   001A52  2A18               	incf	(APP_LEDUpdateUSBStatus@ledCount+1)^0,f,c
  7067   001A54  0012               	return		;funcret
  7068   001A56                     __end_of_APP_LEDUpdateUSBStatus:
  7069                           	callstack 0
  7070                           
  7071 ;; *************** function _APP_KeyboardInit *****************
  7072 ;; Defined at:
  7073 ;;		line 278 in file "../demo_src/app_device_keyboard.c"
  7074 ;; Parameters:    Size  Location     Type
  7075 ;;		None
  7076 ;; Auto vars:     Size  Location     Type
  7077 ;;		None
  7078 ;; Return value:  Size  Location     Type
  7079 ;;                  1    wreg      void 
  7080 ;; Registers used:
  7081 ;;		wreg, fsr2l, fsr2h, status,2, status,0, prodl, prodh, cstack
  7082 ;; Tracked objects:
  7083 ;;		On entry : 0/0
  7084 ;;		On exit  : 0/0
  7085 ;;		Unchanged: 0/0
  7086 ;; Data sizes:     COMRAM   BANK0   BANK1  BANK2h  BANK2l
  7087 ;;      Params:         0       0       0       0       0
  7088 ;;      Locals:         0       0       0       0       0
  7089 ;;      Temps:          0       0       0       0       0
  7090 ;;      Totals:         0       0       0       0       0
  7091 ;;Total ram usage:        0 bytes
  7092 ;; Hardware stack levels used: 1
  7093 ;; Hardware stack levels required when called: 2
  7094 ;; This function calls:
  7095 ;;		_USBEnableEndpoint
  7096 ;;		i2_USBTransferOnePacket
  7097 ;; This function is called by:
  7098 ;;		_USER_USB_CALLBACK_EVENT_HANDLER
  7099 ;; This function uses a non-reentrant model
  7100 ;;
  7101                           
  7102                           	psect	text42
  7103   001BD4                     __ptext42:
  7104                           	callstack 0
  7105   001BD4                     _APP_KeyboardInit:
  7106                           	callstack 22
  7107                           
  7108                           ;../demo_src/app_device_keyboard.c: 282:     keyboard.lastINTransmission = 0;
  7109                           
  7110                           ;incstack = 0
  7111   001BD4  0E00               	movlw	0
  7112   001BD6  0100               	movlb	0	; () banked
  7113   001BD8  6F68               	movwf	_keyboard& (0+255),b
  7114   001BDA  0E00               	movlw	0
  7115   001BDC  6F69               	movwf	(_keyboard+1)& (0+255),b
  7116                           
  7117                           ; BSR set to: 0
  7118                           ;../demo_src/app_device_keyboard.c: 284:     keyboard.key = 4;
  7119   001BDE  0E04               	movlw	4
  7120   001BE0  6F6C               	movwf	(_keyboard+4)& (0+255),b
  7121                           
  7122                           ; BSR set to: 0
  7123                           ;../demo_src/app_device_keyboard.c: 285:     keyboard.waitingForRelease = 0;
  7124   001BE2  0E00               	movlw	0
  7125   001BE4  6F6D               	movwf	(_keyboard+5)& (0+255),b
  7126                           
  7127                           ; BSR set to: 0
  7128                           ;../demo_src/app_device_keyboard.c: 288:     keyboardIdleRate = 500;
  7129   001BE6  0E01               	movlw	1
  7130   001BE8  6F7B               	movwf	(_keyboardIdleRate+1)& (0+255),b
  7131   001BEA  0EF4               	movlw	244
  7132   001BEC  6F7A               	movwf	_keyboardIdleRate& (0+255),b
  7133                           
  7134                           ;../demo_src/app_device_keyboard.c: 293:     while(OldSOFCount != SOFCounter)
  7135   001BEE  D004               	goto	i2l3605
  7136   001BF0                     i2l745:
  7137                           
  7138                           ; BSR set to: 0
  7139                           ;../demo_src/app_device_keyboard.c: 294:     {;../demo_src/app_device_keyboard.c: 295:  
      +                                 OldSOFCount = SOFCounter;
  7140   001BF0  C021  F076         	movff	_SOFCounter,_OldSOFCount	;volatile
  7141   001BF4  C022  F077         	movff	_SOFCounter+1,_OldSOFCount+1	;volatile
  7142   001BF8                     i2l3605:
  7143                           
  7144                           ; BSR set to: 0
  7145                           ;../demo_src/app_device_keyboard.c: 293:     while(OldSOFCount != SOFCounter)
  7146   001BF8  5021               	movf	_SOFCounter^0,w,c	;volatile
  7147   001BFA  1976               	xorwf	_OldSOFCount& (0+255),w,b
  7148   001BFC  E1F9               	bnz	i2l745
  7149   001BFE  5022               	movf	(_SOFCounter+1)^0,w,c	;volatile
  7150   001C00  1977               	xorwf	(_OldSOFCount+1)& (0+255),w,b
  7151   001C02  A4D8               	btfss	status,2,c
  7152   001C04  D7F5               	goto	i2l745
  7153                           
  7154                           ; BSR set to: 0
  7155                           ;../demo_src/app_device_keyboard.c: 299:     USBEnableEndpoint(1, 0x02|0x04|0x10|0x08);
  7156   001C06  0E1E               	movlw	30
  7157   001C08  6E38               	movwf	USBEnableEndpoint@options^0,c
  7158   001C0A  0E01               	movlw	1
  7159   001C0C  EC8A  F00F         	call	_USBEnableEndpoint
  7160                           
  7161                           ;../demo_src/app_device_keyboard.c: 302:     keyboard.lastOUTTransmission = USBTransferO
      +                          nePacket(1,0,(uint8_t*)&outputReport,sizeof(outputReport));
  7162   001C10  0E00               	movlw	0
  7163   001C12  6E2E               	movwf	i2USBTransferOnePacket@dir^0,c
  7164   001C14  0E48               	movlw	72
  7165   001C16  6E2F               	movwf	i2USBTransferOnePacket@data^0,c
  7166   001C18  0E02               	movlw	2
  7167   001C1A  6E30               	movwf	(i2USBTransferOnePacket@data+1)^0,c
  7168   001C1C  0E01               	movlw	1
  7169   001C1E  6E31               	movwf	i2USBTransferOnePacket@len^0,c
  7170   001C20  0E01               	movlw	1
  7171   001C22  EC35  F009         	call	i2_USBTransferOnePacket
  7172   001C26  C02E  F06A         	movff	?i2_USBTransferOnePacket,_keyboard+2
  7173   001C2A  C02F  F06B         	movff	?i2_USBTransferOnePacket+1,_keyboard+3
  7174   001C2E  0012               	return		;funcret
  7175   001C30                     __end_of_APP_KeyboardInit:
  7176                           	callstack 0
  7177                           
  7178 ;; *************** function i2_USBTransferOnePacket *****************
  7179 ;; Defined at:
  7180 ;;		line 999 in file "../framework/usb/src/usb_device.c"
  7181 ;; Parameters:    Size  Location     Type
  7182 ;;  ep              1    wreg     unsigned char 
  7183 ;;  dir             1    0[COMRAM] unsigned char 
  7184 ;;  data            2    1[COMRAM] PTR unsigned char 
  7185 ;;		 -> inputReport(8), outputReport(1), 
  7186 ;;  len             1    3[COMRAM] unsigned char 
  7187 ;; Auto vars:     Size  Location     Type
  7188 ;;  ep              1    6[COMRAM] unsigned char 
  7189 ;;  handle          2    7[COMRAM] PTR volatile struct __BD
  7190 ;;		 -> RAM(767), NULL(0), BDT(32), 
  7191 ;; Return value:  Size  Location     Type
  7192 ;;                  2    0[COMRAM] PTR void 
  7193 ;; Registers used:
  7194 ;;		wreg, fsr2l, fsr2h, status,2, status,0, prodl, prodh
  7195 ;; Tracked objects:
  7196 ;;		On entry : 0/0
  7197 ;;		On exit  : 0/0
  7198 ;;		Unchanged: 0/0
  7199 ;; Data sizes:     COMRAM   BANK0   BANK1  BANK2h  BANK2l
  7200 ;;      Params:         4       0       0       0       0
  7201 ;;      Locals:         3       0       0       0       0
  7202 ;;      Temps:          2       0       0       0       0
  7203 ;;      Totals:         9       0       0       0       0
  7204 ;;Total ram usage:        9 bytes
  7205 ;; Hardware stack levels used: 1
  7206 ;; This function calls:
  7207 ;;		Nothing
  7208 ;; This function is called by:
  7209 ;;		_APP_KeyboardInit
  7210 ;; This function uses a non-reentrant model
  7211 ;;
  7212                           
  7213                           	psect	text43
  7214   00126A                     __ptext43:
  7215                           	callstack 0
  7216   00126A                     i2_USBTransferOnePacket:
  7217                           	callstack 23
  7218                           
  7219                           ;incstack = 0
  7220                           ;i2USBTransferOnePacket@ep stored from wreg
  7221   00126A  6E34               	movwf	i2USBTransferOnePacket@ep^0,c
  7222                           
  7223                           ;../framework/usb/src/usb_device.c: 999: void* USBTransferOnePacket(uint8_t ep,uint8_t d
      +                          ir,uint8_t* data,uint8_t len);../framework/usb/src/usb_device.c: 1000: {;../framework/us
      +                          b/src/usb_device.c: 1001:     volatile BDT_ENTRY* handle;;../framework/usb/src/usb_devic
      +                          e.c: 1004:     if(dir != 0)
  7224   00126C  502E               	movf	i2USBTransferOnePacket@dir^0,w,c
  7225   00126E  B4D8               	btfsc	status,2,c
  7226   001270  D005               	goto	i2l3531
  7227                           
  7228                           ;../framework/usb/src/usb_device.c: 1005:     {;../framework/usb/src/usb_device.c: 1007:
      +                                   handle = pBDTEntryIn[ep];
  7229   001272  5034               	movf	i2USBTransferOnePacket@ep^0,w,c
  7230   001274  0D02               	mullw	2
  7231   001276  50F3               	movf	243,w,c
  7232   001278  0F0F               	addlw	low _pBDTEntryIn
  7233   00127A  D004               	goto	L12
  7234   00127C                     i2l3531:
  7235                           
  7236                           ;../framework/usb/src/usb_device.c: 1010:     {;../framework/usb/src/usb_device.c: 1012:
      +                                   handle = pBDTEntryOut[ep];
  7237   00127C  5034               	movf	i2USBTransferOnePacket@ep^0,w,c
  7238   00127E  0D02               	mullw	2
  7239   001280  50F3               	movf	243,w,c
  7240   001282  0F13               	addlw	low _pBDTEntryOut
  7241   001284                     L12:
  7242   001284  6ED9               	movwf	fsr2l,c
  7243   001286  6ADA               	clrf	fsr2h,c
  7244   001288  CFDE F035          	movff	postinc2,i2USBTransferOnePacket@handle
  7245   00128C  CFDD F036          	movff	postdec2,i2USBTransferOnePacket@handle+1
  7246                           
  7247                           ;../framework/usb/src/usb_device.c: 1017:     if(handle == 0)
  7248   001290  5035               	movf	i2USBTransferOnePacket@handle^0,w,c
  7249   001292  1036               	iorwf	(i2USBTransferOnePacket@handle+1)^0,w,c
  7250   001294  A4D8               	btfss	status,2,c
  7251   001296  D005               	goto	i2l3539
  7252                           
  7253                           ;../framework/usb/src/usb_device.c: 1018:     {;../framework/usb/src/usb_device.c: 1019:
      +                                   return 0;
  7254   001298  0E00               	movlw	0
  7255   00129A  6E2E               	movwf	?i2_USBTransferOnePacket^0,c
  7256   00129C  0E00               	movlw	0
  7257   00129E  6E2F               	movwf	(?i2_USBTransferOnePacket+1)^0,c
  7258   0012A0  0012               	return	
  7259   0012A2                     i2l3539:
  7260                           
  7261                           ;../framework/usb/src/usb_device.c: 1033:     handle->ADR = ((uint16_t)(data));
  7262   0012A2  EE20 F002          	lfsr	2,2
  7263   0012A6  5035               	movf	i2USBTransferOnePacket@handle^0,w,c
  7264   0012A8  26D9               	addwf	fsr2l,f,c
  7265   0012AA  5036               	movf	(i2USBTransferOnePacket@handle+1)^0,w,c
  7266   0012AC  22DA               	addwfc	fsr2h,f,c
  7267   0012AE  C02F  FFDE         	movff	i2USBTransferOnePacket@data,postinc2
  7268   0012B2  C030  FFDD         	movff	i2USBTransferOnePacket@data+1,postdec2
  7269                           
  7270                           ;../framework/usb/src/usb_device.c: 1034:     handle->CNT = len;
  7271   0012B6  EE20 F001          	lfsr	2,1
  7272   0012BA  5035               	movf	i2USBTransferOnePacket@handle^0,w,c
  7273   0012BC  26D9               	addwf	fsr2l,f,c
  7274   0012BE  5036               	movf	(i2USBTransferOnePacket@handle+1)^0,w,c
  7275   0012C0  22DA               	addwfc	fsr2h,f,c
  7276   0012C2  C031  FFDF         	movff	i2USBTransferOnePacket@len,indf2
  7277                           
  7278                           ;../framework/usb/src/usb_device.c: 1035:     handle->STAT.Val &= 0x40;
  7279   0012C6  C035  FFD9         	movff	i2USBTransferOnePacket@handle,fsr2l
  7280   0012CA  C036  FFDA         	movff	i2USBTransferOnePacket@handle+1,fsr2h
  7281   0012CE  0E40               	movlw	64
  7282   0012D0  16DF               	andwf	indf2,f,c
  7283                           
  7284                           ;../framework/usb/src/usb_device.c: 1036:     handle->STAT.Val |= (0x08 & 0x08);
  7285   0012D2  C035  FFD9         	movff	i2USBTransferOnePacket@handle,fsr2l
  7286   0012D6  C036  FFDA         	movff	i2USBTransferOnePacket@handle+1,fsr2h
  7287   0012DA  0E00               	movlw	0
  7288   0012DC  86DB               	bsf	plusw2,3,c
  7289                           
  7290                           ;../framework/usb/src/usb_device.c: 1037:     handle->STAT.Val |= 0x80;
  7291   0012DE  C035  FFD9         	movff	i2USBTransferOnePacket@handle,fsr2l
  7292   0012E2  C036  FFDA         	movff	i2USBTransferOnePacket@handle+1,fsr2h
  7293   0012E6  0E00               	movlw	0
  7294   0012E8  8EDB               	bsf	plusw2,7,c
  7295                           
  7296                           ;../framework/usb/src/usb_device.c: 1040:     if(dir != 0)
  7297   0012EA  502E               	movf	i2USBTransferOnePacket@dir^0,w,c
  7298   0012EC  B4D8               	btfsc	status,2,c
  7299   0012EE  D013               	goto	i2l3551
  7300                           
  7301                           ;../framework/usb/src/usb_device.c: 1041:     {;../framework/usb/src/usb_device.c: 1043:
      +                                   pBDTEntryIn[ep] = (BDT_ENTRY*)(((uint16_t)pBDTEntryIn[ep]) ^ 0x0004);
  7302   0012F0  5034               	movf	i2USBTransferOnePacket@ep^0,w,c
  7303   0012F2  0D02               	mullw	2
  7304   0012F4  50F3               	movf	243,w,c
  7305   0012F6  0F0F               	addlw	low _pBDTEntryIn
  7306   0012F8  6ED9               	movwf	fsr2l,c
  7307   0012FA  6ADA               	clrf	fsr2h,c
  7308   0012FC  CFDE F032          	movff	postinc2,??i2_USBTransferOnePacket
  7309   001300  CFDD F033          	movff	postdec2,??i2_USBTransferOnePacket+1
  7310   001304  0E04               	movlw	4
  7311   001306  1A32               	xorwf	??i2_USBTransferOnePacket^0,f,c
  7312   001308  0E00               	movlw	0
  7313   00130A  1A33               	xorwf	(??i2_USBTransferOnePacket+1)^0,f,c
  7314   00130C  5034               	movf	i2USBTransferOnePacket@ep^0,w,c
  7315   00130E  0D02               	mullw	2
  7316   001310  50F3               	movf	243,w,c
  7317   001312  0F0F               	addlw	low _pBDTEntryIn
  7318   001314  D012               	goto	L13
  7319   001316                     i2l3551:
  7320                           
  7321                           ;../framework/usb/src/usb_device.c: 1046:     {;../framework/usb/src/usb_device.c: 1048:
      +                                   pBDTEntryOut[ep] = (BDT_ENTRY*)(((uint16_t)pBDTEntryOut[ep]) ^ 0x0004);
  7322   001316  5034               	movf	i2USBTransferOnePacket@ep^0,w,c
  7323   001318  0D02               	mullw	2
  7324   00131A  50F3               	movf	243,w,c
  7325   00131C  0F13               	addlw	low _pBDTEntryOut
  7326   00131E  6ED9               	movwf	fsr2l,c
  7327   001320  6ADA               	clrf	fsr2h,c
  7328   001322  CFDE F032          	movff	postinc2,??i2_USBTransferOnePacket
  7329   001326  CFDD F033          	movff	postdec2,??i2_USBTransferOnePacket+1
  7330   00132A  0E04               	movlw	4
  7331   00132C  1A32               	xorwf	??i2_USBTransferOnePacket^0,f,c
  7332   00132E  0E00               	movlw	0
  7333   001330  1A33               	xorwf	(??i2_USBTransferOnePacket+1)^0,f,c
  7334   001332  5034               	movf	i2USBTransferOnePacket@ep^0,w,c
  7335   001334  0D02               	mullw	2
  7336   001336  50F3               	movf	243,w,c
  7337   001338  0F13               	addlw	low _pBDTEntryOut
  7338   00133A                     L13:
  7339   00133A  6ED9               	movwf	fsr2l,c
  7340   00133C  6ADA               	clrf	fsr2h,c
  7341   00133E  C032  FFDE         	movff	??i2_USBTransferOnePacket,postinc2
  7342   001342  C033  FFDD         	movff	??i2_USBTransferOnePacket+1,postdec2
  7343                           
  7344                           ;../framework/usb/src/usb_device.c: 1050:     return (void*)handle;
  7345   001346  C035  F02E         	movff	i2USBTransferOnePacket@handle,?i2_USBTransferOnePacket
  7346   00134A  C036  F02F         	movff	i2USBTransferOnePacket@handle+1,?i2_USBTransferOnePacket+1
  7347   00134E  0012               	return		;funcret
  7348   001350                     __end_ofi2_USBTransferOnePacket:
  7349                           	callstack 0
  7350                           
  7351 ;; *************** function _USBEnableEndpoint *****************
  7352 ;; Defined at:
  7353 ;;		line 882 in file "../framework/usb/src/usb_device.c"
  7354 ;; Parameters:    Size  Location     Type
  7355 ;;  ep              1    wreg     unsigned char 
  7356 ;;  options         1   10[COMRAM] unsigned char 
  7357 ;; Auto vars:     Size  Location     Type
  7358 ;;  ep              1   13[COMRAM] unsigned char 
  7359 ;;  p               2   11[COMRAM] PTR unsigned char 
  7360 ;;		 -> UEP0(1), 
  7361 ;; Return value:  Size  Location     Type
  7362 ;;                  1    wreg      void 
  7363 ;; Registers used:
  7364 ;;		wreg, fsr2l, fsr2h, status,2, status,0, prodl, prodh, cstack
  7365 ;; Tracked objects:
  7366 ;;		On entry : 3F/0
  7367 ;;		On exit  : 0/0
  7368 ;;		Unchanged: 0/0
  7369 ;; Data sizes:     COMRAM   BANK0   BANK1  BANK2h  BANK2l
  7370 ;;      Params:         1       0       0       0       0
  7371 ;;      Locals:         3       0       0       0       0
  7372 ;;      Temps:          0       0       0       0       0
  7373 ;;      Totals:         4       0       0       0       0
  7374 ;;Total ram usage:        4 bytes
  7375 ;; Hardware stack levels used: 1
  7376 ;; Hardware stack levels required when called: 1
  7377 ;; This function calls:
  7378 ;;		_USBConfigureEndpoint
  7379 ;; This function is called by:
  7380 ;;		_APP_KeyboardInit
  7381 ;; This function uses a non-reentrant model
  7382 ;;
  7383                           
  7384                           	psect	text44
  7385   001F14                     __ptext44:
  7386                           	callstack 0
  7387   001F14                     _USBEnableEndpoint:
  7388                           	callstack 22
  7389                           
  7390                           ;incstack = 0
  7391                           ;USBEnableEndpoint@ep stored from wreg
  7392   001F14  6E3B               	movwf	USBEnableEndpoint@ep^0,c
  7393                           
  7394                           ;../framework/usb/src/usb_device.c: 882: void USBEnableEndpoint(uint8_t ep, uint8_t opti
      +                          ons);../framework/usb/src/usb_device.c: 883: {;../framework/usb/src/usb_device.c: 884:  
      +                             unsigned char* p;;../framework/usb/src/usb_device.c: 888:     if(options & 0x04)
  7395   001F16  A438               	btfss	USBEnableEndpoint@options^0,2,c
  7396   001F18  D005               	goto	i2l3467
  7397                           
  7398                           ;../framework/usb/src/usb_device.c: 889:     {;../framework/usb/src/usb_device.c: 890:  
      +                                 USBConfigureEndpoint(ep, 0);
  7399   001F1A  0E00               	movlw	0
  7400   001F1C  6E2E               	movwf	USBConfigureEndpoint@direction^0,c
  7401   001F1E  503B               	movf	USBEnableEndpoint@ep^0,w,c
  7402   001F20  EC73  F00D         	call	_USBConfigureEndpoint
  7403   001F24                     i2l3467:
  7404                           
  7405                           ;../framework/usb/src/usb_device.c: 892:     if(options & 0x02)
  7406   001F24  A238               	btfss	USBEnableEndpoint@options^0,1,c
  7407   001F26  D005               	goto	i2l3471
  7408                           
  7409                           ;../framework/usb/src/usb_device.c: 893:     {;../framework/usb/src/usb_device.c: 894:  
      +                                 USBConfigureEndpoint(ep, 1);
  7410   001F28  0E01               	movlw	1
  7411   001F2A  6E2E               	movwf	USBConfigureEndpoint@direction^0,c
  7412   001F2C  503B               	movf	USBEnableEndpoint@ep^0,w,c
  7413   001F2E  EC73  F00D         	call	_USBConfigureEndpoint
  7414   001F32                     i2l3471:
  7415                           
  7416                           ;../framework/usb/src/usb_device.c: 903:         p = (unsigned char*)(&UEP0+ep);
  7417   001F32  0E53               	movlw	83
  7418   001F34  243B               	addwf	USBEnableEndpoint@ep^0,w,c
  7419   001F36  6E39               	movwf	USBEnableEndpoint@p^0,c
  7420   001F38  6A3A               	clrf	(USBEnableEndpoint@p+1)^0,c
  7421   001F3A  0E0F               	movlw	15
  7422   001F3C  223A               	addwfc	(USBEnableEndpoint@p+1)^0,f,c
  7423                           
  7424                           ;../framework/usb/src/usb_device.c: 905:     *p = options;
  7425   001F3E  C039  FFD9         	movff	USBEnableEndpoint@p,fsr2l
  7426   001F42  C03A  FFDA         	movff	USBEnableEndpoint@p+1,fsr2h
  7427   001F46  C038  FFDF         	movff	USBEnableEndpoint@options,indf2
  7428   001F4A  0012               	return		;funcret
  7429   001F4C                     __end_of_USBEnableEndpoint:
  7430                           	callstack 0
  7431                           
  7432 ;; *************** function _USBConfigureEndpoint *****************
  7433 ;; Defined at:
  7434 ;;		line 1547 in file "../framework/usb/src/usb_device.c"
  7435 ;; Parameters:    Size  Location     Type
  7436 ;;  EPNum           1    wreg     unsigned char 
  7437 ;;  direction       1    0[COMRAM] unsigned char 
  7438 ;; Auto vars:     Size  Location     Type
  7439 ;;  EPNum           1    7[COMRAM] unsigned char 
  7440 ;;  handle          2    8[COMRAM] PTR volatile struct __BD
  7441 ;;		 -> BDT(32), 
  7442 ;; Return value:  Size  Location     Type
  7443 ;;                  1    wreg      void 
  7444 ;; Registers used:
  7445 ;;		wreg, fsr2l, fsr2h, status,2, status,0, prodl, prodh
  7446 ;; Tracked objects:
  7447 ;;		On entry : 0/0
  7448 ;;		On exit  : 0/0
  7449 ;;		Unchanged: 0/0
  7450 ;; Data sizes:     COMRAM   BANK0   BANK1  BANK2h  BANK2l
  7451 ;;      Params:         1       0       0       0       0
  7452 ;;      Locals:         3       0       0       0       0
  7453 ;;      Temps:          6       0       0       0       0
  7454 ;;      Totals:        10       0       0       0       0
  7455 ;;Total ram usage:       10 bytes
  7456 ;; Hardware stack levels used: 1
  7457 ;; This function calls:
  7458 ;;		Nothing
  7459 ;; This function is called by:
  7460 ;;		_USBEnableEndpoint
  7461 ;; This function uses a non-reentrant model
  7462 ;;
  7463                           
  7464                           	psect	text45
  7465   001AE6                     __ptext45:
  7466                           	callstack 0
  7467   001AE6                     _USBConfigureEndpoint:
  7468                           	callstack 22
  7469                           
  7470                           ;incstack = 0
  7471                           ;USBConfigureEndpoint@EPNum stored from wreg
  7472   001AE6  6E35               	movwf	USBConfigureEndpoint@EPNum^0,c
  7473                           
  7474                           ;../framework/usb/src/usb_device.c: 1547: static void USBConfigureEndpoint(uint8_t EPNum
      +                          , uint8_t direction);../framework/usb/src/usb_device.c: 1548: {;../framework/usb/src/usb
      +                          _device.c: 1549:     volatile BDT_ENTRY* handle;;../framework/usb/src/usb_device.c: 1553
      +                          :     handle = (volatile BDT_ENTRY*)&BDT[0];
  7475   001AE8  0E00               	movlw	0
  7476   001AEA  6E36               	movwf	USBConfigureEndpoint@handle^0,c
  7477   001AEC  0E02               	movlw	2
  7478   001AEE  6E37               	movwf	(USBConfigureEndpoint@handle+1)^0,c
  7479                           
  7480                           ;../framework/usb/src/usb_device.c: 1554:     handle += (4*EPNum+2*direction+0u);
  7481   001AF0  502E               	movf	USBConfigureEndpoint@direction^0,w,c
  7482   001AF2  6E2F               	movwf	??_USBConfigureEndpoint^0,c
  7483   001AF4  6A30               	clrf	(??_USBConfigureEndpoint+1)^0,c
  7484   001AF6  90D8               	bcf	status,0,c
  7485   001AF8  362F               	rlcf	??_USBConfigureEndpoint^0,f,c
  7486   001AFA  3630               	rlcf	(??_USBConfigureEndpoint+1)^0,f,c
  7487   001AFC  5035               	movf	USBConfigureEndpoint@EPNum^0,w,c
  7488   001AFE  6E31               	movwf	(??_USBConfigureEndpoint+2)^0,c
  7489   001B00  6A32               	clrf	(??_USBConfigureEndpoint+3)^0,c
  7490   001B02  90D8               	bcf	status,0,c
  7491   001B04  3631               	rlcf	(??_USBConfigureEndpoint+2)^0,f,c
  7492   001B06  3632               	rlcf	(??_USBConfigureEndpoint+3)^0,f,c
  7493   001B08  90D8               	bcf	status,0,c
  7494   001B0A  3631               	rlcf	(??_USBConfigureEndpoint+2)^0,f,c
  7495   001B0C  3632               	rlcf	(??_USBConfigureEndpoint+3)^0,f,c
  7496   001B0E  502F               	movf	??_USBConfigureEndpoint^0,w,c
  7497   001B10  2431               	addwf	(??_USBConfigureEndpoint+2)^0,w,c
  7498   001B12  6E33               	movwf	(??_USBConfigureEndpoint+4)^0,c
  7499   001B14  5030               	movf	(??_USBConfigureEndpoint+1)^0,w,c
  7500   001B16  2032               	addwfc	(??_USBConfigureEndpoint+3)^0,w,c
  7501   001B18  6E34               	movwf	(??_USBConfigureEndpoint+5)^0,c
  7502   001B1A  90D8               	bcf	status,0,c
  7503   001B1C  3633               	rlcf	(??_USBConfigureEndpoint+4)^0,f,c
  7504   001B1E  3634               	rlcf	(??_USBConfigureEndpoint+5)^0,f,c
  7505   001B20  90D8               	bcf	status,0,c
  7506   001B22  3633               	rlcf	(??_USBConfigureEndpoint+4)^0,f,c
  7507   001B24  3634               	rlcf	(??_USBConfigureEndpoint+5)^0,f,c
  7508   001B26  5033               	movf	(??_USBConfigureEndpoint+4)^0,w,c
  7509   001B28  2636               	addwf	USBConfigureEndpoint@handle^0,f,c
  7510   001B2A  5034               	movf	(??_USBConfigureEndpoint+5)^0,w,c
  7511   001B2C  2237               	addwfc	(USBConfigureEndpoint@handle+1)^0,f,c
  7512                           
  7513                           ;../framework/usb/src/usb_device.c: 1556:     handle->STAT.UOWN = 0;
  7514   001B2E  C036  FFD9         	movff	USBConfigureEndpoint@handle,fsr2l
  7515   001B32  C037  FFDA         	movff	USBConfigureEndpoint@handle+1,fsr2h
  7516   001B36  9EDF               	bcf	indf2,7,c
  7517                           
  7518                           ;../framework/usb/src/usb_device.c: 1561:     if(direction == 0)
  7519   001B38  502E               	movf	USBConfigureEndpoint@direction^0,w,c
  7520   001B3A  A4D8               	btfss	status,2,c
  7521   001B3C  D005               	goto	i2l3457
  7522                           
  7523                           ;../framework/usb/src/usb_device.c: 1562:     {;../framework/usb/src/usb_device.c: 1563:
      +                                   pBDTEntryOut[EPNum] = handle;
  7524   001B3E  5035               	movf	USBConfigureEndpoint@EPNum^0,w,c
  7525   001B40  0D02               	mullw	2
  7526   001B42  50F3               	movf	243,w,c
  7527   001B44  0F13               	addlw	low _pBDTEntryOut
  7528   001B46  D004               	goto	L14
  7529   001B48                     i2l3457:
  7530                           
  7531                           ;../framework/usb/src/usb_device.c: 1566:     {;../framework/usb/src/usb_device.c: 1567:
      +                                   pBDTEntryIn[EPNum] = handle;
  7532   001B48  5035               	movf	USBConfigureEndpoint@EPNum^0,w,c
  7533   001B4A  0D02               	mullw	2
  7534   001B4C  50F3               	movf	243,w,c
  7535   001B4E  0F0F               	addlw	low _pBDTEntryIn
  7536   001B50                     L14:
  7537   001B50  6ED9               	movwf	fsr2l,c
  7538   001B52  6ADA               	clrf	fsr2h,c
  7539   001B54  C036  FFDE         	movff	USBConfigureEndpoint@handle,postinc2
  7540   001B58  C037  FFDD         	movff	USBConfigureEndpoint@handle+1,postdec2
  7541                           
  7542                           ;../framework/usb/src/usb_device.c: 1571:         handle->STAT.DTS = 0;
  7543   001B5C  C036  FFD9         	movff	USBConfigureEndpoint@handle,fsr2l
  7544   001B60  C037  FFDA         	movff	USBConfigureEndpoint@handle+1,fsr2h
  7545   001B64  9CDF               	bcf	indf2,6,c
  7546                           
  7547                           ;../framework/usb/src/usb_device.c: 1572:         (handle+1)->STAT.DTS = 1;
  7548   001B66  EE20 F004          	lfsr	2,4
  7549   001B6A  5036               	movf	USBConfigureEndpoint@handle^0,w,c
  7550   001B6C  26D9               	addwf	fsr2l,f,c
  7551   001B6E  5037               	movf	(USBConfigureEndpoint@handle+1)^0,w,c
  7552   001B70  22DA               	addwfc	fsr2h,f,c
  7553   001B72  8CDF               	bsf	indf2,6,c
  7554   001B74  0012               	return		;funcret
  7555   001B76                     __end_of_USBConfigureEndpoint:
  7556                           	callstack 0
  7557                           
  7558 ;; *************** function _USBCtrlTrfOutHandler *****************
  7559 ;; Defined at:
  7560 ;;		line 2545 in file "../framework/usb/src/usb_device.c"
  7561 ;; Parameters:    Size  Location     Type
  7562 ;;		None
  7563 ;; Auto vars:     Size  Location     Type
  7564 ;;		None
  7565 ;; Return value:  Size  Location     Type
  7566 ;;                  1    wreg      void 
  7567 ;; Registers used:
  7568 ;;		wreg, fsr1l, fsr1h, fsr2l, fsr2h, status,2, status,0, pcl, pclath, pclatu, tosl, cstack
  7569 ;; Tracked objects:
  7570 ;;		On entry : 0/0
  7571 ;;		On exit  : 0/0
  7572 ;;		Unchanged: 0/0
  7573 ;; Data sizes:     COMRAM   BANK0   BANK1  BANK2h  BANK2l
  7574 ;;      Params:         0       0       0       0       0
  7575 ;;      Locals:         0       0       0       0       0
  7576 ;;      Temps:          0       0       0       0       0
  7577 ;;      Totals:         0       0       0       0       0
  7578 ;;Total ram usage:        0 bytes
  7579 ;; Hardware stack levels used: 1
  7580 ;; Hardware stack levels required when called: 4
  7581 ;; This function calls:
  7582 ;;		_USBCtrlTrfRxService
  7583 ;; This function is called by:
  7584 ;;		_USBCtrlEPService
  7585 ;; This function uses a non-reentrant model
  7586 ;;
  7587                           
  7588                           	psect	text46
  7589   001B76                     __ptext46:
  7590                           	callstack 0
  7591   001B76                     _USBCtrlTrfOutHandler:
  7592                           	callstack 20
  7593                           
  7594                           ;../framework/usb/src/usb_device.c: 2547:     if(controlTransferState == 2)
  7595                           
  7596                           ;incstack = 0
  7597   001B76  0E02               	movlw	2
  7598   001B78  1828               	xorwf	_controlTransferState^0,w,c	;volatile
  7599   001B7A  A4D8               	btfss	status,2,c
  7600   001B7C  D003               	goto	i2l4277
  7601                           
  7602                           ;../framework/usb/src/usb_device.c: 2548:     {;../framework/usb/src/usb_device.c: 2549:
      +                                   USBCtrlTrfRxService();
  7603   001B7E  ECF6  F004         	call	_USBCtrlTrfRxService	;wreg free
  7604                           
  7605                           ;../framework/usb/src/usb_device.c: 2550:     }
  7606   001B82  0012               	return	
  7607   001B84                     i2l4277:
  7608                           
  7609                           ;../framework/usb/src/usb_device.c: 2552:     {;../framework/usb/src/usb_device.c: 2555:
      +                                   controlTransferState = 0;
  7610   001B84  0E00               	movlw	0
  7611   001B86  6E28               	movwf	_controlTransferState^0,c	;volatile
  7612                           
  7613                           ;../framework/usb/src/usb_device.c: 2562:         if(BothEP0OutUOWNsSet == 0)
  7614   001B88  0100               	movlb	0	; () banked
  7615   001B8A  5183               	movf	_BothEP0OutUOWNsSet& (0+255),w,b	;volatile
  7616   001B8C  A4D8               	btfss	status,2,c
  7617   001B8E  D01F               	goto	i2l4285
  7618                           
  7619                           ; BSR set to: 0
  7620                           ;../framework/usb/src/usb_device.c: 2563:         {;../framework/usb/src/usb_device.c: 2
      +                          564:             pBDTEntryEP0OutNext->CNT = 8;
  7621   001B90  EE20 F001          	lfsr	2,1
  7622   001B94  501D               	movf	_pBDTEntryEP0OutNext^0,w,c
  7623   001B96  26D9               	addwf	fsr2l,f,c
  7624   001B98  501E               	movf	(_pBDTEntryEP0OutNext+1)^0,w,c
  7625   001B9A  22DA               	addwfc	fsr2h,f,c
  7626   001B9C  0E08               	movlw	8
  7627   001B9E  6EDF               	movwf	indf2,c
  7628                           
  7629                           ;../framework/usb/src/usb_device.c: 2565:             pBDTEntryEP0OutNext->ADR = ((uint1
      +                          6_t)(&SetupPkt));
  7630   001BA0  EE20 F002          	lfsr	2,2
  7631   001BA4  501D               	movf	_pBDTEntryEP0OutNext^0,w,c
  7632   001BA6  26D9               	addwf	fsr2l,f,c
  7633   001BA8  501E               	movf	(_pBDTEntryEP0OutNext+1)^0,w,c
  7634   001BAA  22DA               	addwfc	fsr2h,f,c
  7635   001BAC  0E20               	movlw	32
  7636   001BAE  6EDE               	movwf	postinc2,c
  7637   001BB0  0E02               	movlw	2
  7638   001BB2  6EDD               	movwf	postdec2,c
  7639                           
  7640                           ; BSR set to: 0
  7641                           ;../framework/usb/src/usb_device.c: 2566:             pBDTEntryEP0OutNext->STAT.Val = 0x
      +                          00|(0x08 & 0x08)|0x04;
  7642   001BB4  C01D  FFD9         	movff	_pBDTEntryEP0OutNext,fsr2l
  7643   001BB8  C01E  FFDA         	movff	_pBDTEntryEP0OutNext+1,fsr2h
  7644   001BBC  0E0C               	movlw	12
  7645   001BBE  6EDF               	movwf	indf2,c
  7646                           
  7647                           ; BSR set to: 0
  7648                           ;../framework/usb/src/usb_device.c: 2567:             pBDTEntryEP0OutNext->STAT.Val |= 0
      +                          x80;
  7649   001BC0  C01D  FFD9         	movff	_pBDTEntryEP0OutNext,fsr2l
  7650   001BC4  C01E  FFDA         	movff	_pBDTEntryEP0OutNext+1,fsr2h
  7651   001BC8  0E00               	movlw	0
  7652   001BCA  8EDB               	bsf	plusw2,7,c
  7653                           
  7654                           ;../framework/usb/src/usb_device.c: 2568:         }
  7655   001BCC  0012               	return	
  7656   001BCE                     i2l4285:
  7657                           
  7658                           ; BSR set to: 0
  7659                           ;../framework/usb/src/usb_device.c: 2570:         {;../framework/usb/src/usb_device.c: 2
      +                          571:             BothEP0OutUOWNsSet = 0;
  7660   001BCE  0E00               	movlw	0
  7661   001BD0  6F83               	movwf	_BothEP0OutUOWNsSet& (0+255),b	;volatile
  7662   001BD2  0012               	return		;funcret
  7663   001BD4                     __end_of_USBCtrlTrfOutHandler:
  7664                           	callstack 0
  7665                           
  7666 ;; *************** function _USBCtrlTrfRxService *****************
  7667 ;; Defined at:
  7668 ;;		line 1856 in file "../framework/usb/src/usb_device.c"
  7669 ;; Parameters:    Size  Location     Type
  7670 ;;		None
  7671 ;; Auto vars:     Size  Location     Type
  7672 ;;  byteToRead      1    4[COMRAM] unsigned char 
  7673 ;;  i               1    3[COMRAM] unsigned char 
  7674 ;; Return value:  Size  Location     Type
  7675 ;;                  1    wreg      void 
  7676 ;; Registers used:
  7677 ;;		wreg, fsr1l, fsr1h, fsr2l, fsr2h, status,2, status,0, pcl, pclath, pclatu, tosl, cstack
  7678 ;; Tracked objects:
  7679 ;;		On entry : 0/0
  7680 ;;		On exit  : 0/0
  7681 ;;		Unchanged: 0/0
  7682 ;; Data sizes:     COMRAM   BANK0   BANK1  BANK2h  BANK2l
  7683 ;;      Params:         0       0       0       0       0
  7684 ;;      Locals:         2       0       0       0       0
  7685 ;;      Temps:          0       0       0       0       0
  7686 ;;      Totals:         2       0       0       0       0
  7687 ;;Total ram usage:        2 bytes
  7688 ;; Hardware stack levels used: 1
  7689 ;; Hardware stack levels required when called: 3
  7690 ;; This function calls:
  7691 ;;		_USBCtrlEPAllowStatusStage
  7692 ;;		_USBHIDCBSetReportComplete
  7693 ;; This function is called by:
  7694 ;;		_USBCtrlTrfOutHandler
  7695 ;; This function uses a non-reentrant model
  7696 ;;
  7697                           
  7698                           	psect	text47
  7699   0009EC                     __ptext47:
  7700                           	callstack 0
  7701   0009EC                     _USBCtrlTrfRxService:
  7702                           	callstack 20
  7703                           
  7704                           ;../framework/usb/src/usb_device.c: 1858:     uint8_t byteToRead;;../framework/usb/src/u
      +                          sb_device.c: 1859:     uint8_t i;;../framework/usb/src/usb_device.c: 1863:     byteToRea
      +                          d = pBDTEntryEP0OutCurrent->CNT;
  7705                           
  7706                           ;incstack = 0
  7707   0009EC  EE20 F001          	lfsr	2,1
  7708   0009F0  501F               	movf	_pBDTEntryEP0OutCurrent^0,w,c
  7709   0009F2  26D9               	addwf	fsr2l,f,c
  7710   0009F4  5020               	movf	(_pBDTEntryEP0OutCurrent+1)^0,w,c
  7711   0009F6  22DA               	addwfc	fsr2h,f,c
  7712   0009F8  50DF               	movf	indf2,w,c
  7713   0009FA  6E32               	movwf	USBCtrlTrfRxService@byteToRead^0,c
  7714                           
  7715                           ;../framework/usb/src/usb_device.c: 1869:     if(byteToRead > outPipes[0].wCount.Val)
  7716   0009FC  5032               	movf	USBCtrlTrfRxService@byteToRead^0,w,c
  7717   0009FE  5C05               	subwf	(_outPipes+4)^0,w,c	;volatile
  7718   000A00  0E00               	movlw	0
  7719   000A02  5806               	subwfb	(_outPipes+5)^0,w,c	;volatile
  7720   000A04  A0D8               	btfss	status,0,c
  7721                           
  7722                           ;../framework/usb/src/usb_device.c: 1870:     {;../framework/usb/src/usb_device.c: 1871:
      +                                   byteToRead = outPipes[0].wCount.Val;
  7723   000A06  C005  F032         	movff	_outPipes+4,USBCtrlTrfRxService@byteToRead	;volatile
  7724                           
  7725                           ;../framework/usb/src/usb_device.c: 1874:     outPipes[0].wCount.Val -= byteToRead;
  7726   000A0A  5032               	movf	USBCtrlTrfRxService@byteToRead^0,w,c
  7727   000A0C  5E05               	subwf	(_outPipes+4)^0,f,c	;volatile
  7728   000A0E  0E00               	movlw	0
  7729   000A10  5A06               	subwfb	(_outPipes+5)^0,f,c	;volatile
  7730                           
  7731                           ;../framework/usb/src/usb_device.c: 1878:     for(i=0;i<byteToRead;i++)
  7732   000A12  0E00               	movlw	0
  7733   000A14  6E31               	movwf	USBCtrlTrfRxService@i^0,c
  7734   000A16  D00F               	goto	i2l4131
  7735   000A18                     i2l4125:
  7736                           
  7737                           ;../framework/usb/src/usb_device.c: 1879:     {;../framework/usb/src/usb_device.c: 1880:
      +                                   *outPipes[0].pDst.bRam++ = CtrlTrfData[i];
  7738   000A18  0E28               	movlw	40
  7739   000A1A  2431               	addwf	USBCtrlTrfRxService@i^0,w,c
  7740   000A1C  6ED9               	movwf	fsr2l,c
  7741   000A1E  6ADA               	clrf	fsr2h,c
  7742   000A20  0E02               	movlw	2
  7743   000A22  22DA               	addwfc	fsr2h,f,c
  7744   000A24  C001  FFE1         	movff	_outPipes,fsr1l	;volatile
  7745   000A28  C002  FFE2         	movff	_outPipes+1,fsr1h	;volatile
  7746   000A2C  CFDF FFE7          	movff	indf2,indf1
  7747   000A30  4A01               	infsnz	_outPipes^0,f,c	;volatile
  7748   000A32  2A02               	incf	(_outPipes+1)^0,f,c	;volatile
  7749                           
  7750                           ;../framework/usb/src/usb_device.c: 1881:     }
  7751   000A34  2A31               	incf	USBCtrlTrfRxService@i^0,f,c
  7752   000A36                     i2l4131:
  7753   000A36  5032               	movf	USBCtrlTrfRxService@byteToRead^0,w,c
  7754   000A38  5C31               	subwf	USBCtrlTrfRxService@i^0,w,c
  7755   000A3A  A0D8               	btfss	status,0,c
  7756   000A3C  D7ED               	goto	i2l4125
  7757                           
  7758                           ;../framework/usb/src/usb_device.c: 1885:     if(outPipes[0].wCount.Val > 0)
  7759   000A3E  5005               	movf	(_outPipes+4)^0,w,c	;volatile
  7760   000A40  1006               	iorwf	(_outPipes+5)^0,w,c	;volatile
  7761   000A42  B4D8               	btfsc	status,2,c
  7762   000A44  D032               	goto	i2l4147
  7763                           
  7764                           ;../framework/usb/src/usb_device.c: 1886:     {;../framework/usb/src/usb_device.c: 1887:
      +                                   pBDTEntryEP0OutNext->CNT = 8;
  7765   000A46  EE20 F001          	lfsr	2,1
  7766   000A4A  501D               	movf	_pBDTEntryEP0OutNext^0,w,c
  7767   000A4C  26D9               	addwf	fsr2l,f,c
  7768   000A4E  501E               	movf	(_pBDTEntryEP0OutNext+1)^0,w,c
  7769   000A50  22DA               	addwfc	fsr2h,f,c
  7770   000A52  0E08               	movlw	8
  7771   000A54  6EDF               	movwf	indf2,c
  7772                           
  7773                           ;../framework/usb/src/usb_device.c: 1888:         pBDTEntryEP0OutNext->ADR = ((uint16_t)
      +                          (&CtrlTrfData));
  7774   000A56  EE20 F002          	lfsr	2,2
  7775   000A5A  501D               	movf	_pBDTEntryEP0OutNext^0,w,c
  7776   000A5C  26D9               	addwf	fsr2l,f,c
  7777   000A5E  501E               	movf	(_pBDTEntryEP0OutNext+1)^0,w,c
  7778   000A60  22DA               	addwfc	fsr2h,f,c
  7779   000A62  0E28               	movlw	40
  7780   000A64  6EDE               	movwf	postinc2,c
  7781   000A66  0E02               	movlw	2
  7782   000A68  6EDD               	movwf	postdec2,c
  7783                           
  7784                           ;../framework/usb/src/usb_device.c: 1889:         if(pBDTEntryEP0OutCurrent->STAT.DTS ==
      +                           0)
  7785   000A6A  C01F  FFD9         	movff	_pBDTEntryEP0OutCurrent,fsr2l
  7786   000A6E  C020  FFDA         	movff	_pBDTEntryEP0OutCurrent+1,fsr2h
  7787   000A72  BCDF               	btfsc	indf2,6,c
  7788   000A74  D00D               	goto	i2l4143
  7789                           
  7790                           ;../framework/usb/src/usb_device.c: 1890:         {;../framework/usb/src/usb_device.c: 1
      +                          891:             pBDTEntryEP0OutNext->STAT.Val = 0x40|(0x08 & 0x08);
  7791   000A76  C01D  FFD9         	movff	_pBDTEntryEP0OutNext,fsr2l
  7792   000A7A  C01E  FFDA         	movff	_pBDTEntryEP0OutNext+1,fsr2h
  7793   000A7E  0E48               	movlw	72
  7794   000A80  6EDF               	movwf	indf2,c
  7795                           
  7796                           ;../framework/usb/src/usb_device.c: 1892:             pBDTEntryEP0OutNext->STAT.Val |= 0
      +                          x80;
  7797   000A82  C01D  FFD9         	movff	_pBDTEntryEP0OutNext,fsr2l
  7798   000A86  C01E  FFDA         	movff	_pBDTEntryEP0OutNext+1,fsr2h
  7799   000A8A  0E00               	movlw	0
  7800   000A8C  8EDB               	bsf	plusw2,7,c
  7801                           
  7802                           ;../framework/usb/src/usb_device.c: 1893:         }
  7803   000A8E  0012               	return	
  7804   000A90                     i2l4143:
  7805                           
  7806                           ;../framework/usb/src/usb_device.c: 1895:         {;../framework/usb/src/usb_device.c: 1
      +                          896:             pBDTEntryEP0OutNext->STAT.Val = 0x00|(0x08 & 0x08);
  7807   000A90  C01D  FFD9         	movff	_pBDTEntryEP0OutNext,fsr2l
  7808   000A94  C01E  FFDA         	movff	_pBDTEntryEP0OutNext+1,fsr2h
  7809   000A98  0E08               	movlw	8
  7810   000A9A  6EDF               	movwf	indf2,c
  7811                           
  7812                           ;../framework/usb/src/usb_device.c: 1897:             pBDTEntryEP0OutNext->STAT.Val |= 0
      +                          x80;
  7813   000A9C  C01D  FFD9         	movff	_pBDTEntryEP0OutNext,fsr2l
  7814   000AA0  C01E  FFDA         	movff	_pBDTEntryEP0OutNext+1,fsr2h
  7815   000AA4  0E00               	movlw	0
  7816   000AA6  8EDB               	bsf	plusw2,7,c
  7817   000AA8  0012               	return	
  7818   000AAA                     i2l4147:
  7819                           
  7820                           ;../framework/usb/src/usb_device.c: 1901:     {;../framework/usb/src/usb_device.c: 1905:
      +                                   pBDTEntryEP0OutNext->CNT = 8;
  7821   000AAA  EE20 F001          	lfsr	2,1
  7822   000AAE  501D               	movf	_pBDTEntryEP0OutNext^0,w,c
  7823   000AB0  26D9               	addwf	fsr2l,f,c
  7824   000AB2  501E               	movf	(_pBDTEntryEP0OutNext+1)^0,w,c
  7825   000AB4  22DA               	addwfc	fsr2h,f,c
  7826   000AB6  0E08               	movlw	8
  7827   000AB8  6EDF               	movwf	indf2,c
  7828                           
  7829                           ;../framework/usb/src/usb_device.c: 1906:         pBDTEntryEP0OutNext->ADR = ((uint16_t)
      +                          (&SetupPkt));
  7830   000ABA  EE20 F002          	lfsr	2,2
  7831   000ABE  501D               	movf	_pBDTEntryEP0OutNext^0,w,c
  7832   000AC0  26D9               	addwf	fsr2l,f,c
  7833   000AC2  501E               	movf	(_pBDTEntryEP0OutNext+1)^0,w,c
  7834   000AC4  22DA               	addwfc	fsr2h,f,c
  7835   000AC6  0E20               	movlw	32
  7836   000AC8  6EDE               	movwf	postinc2,c
  7837   000ACA  0E02               	movlw	2
  7838   000ACC  6EDD               	movwf	postdec2,c
  7839                           
  7840                           ;../framework/usb/src/usb_device.c: 1910:         pBDTEntryEP0OutNext->STAT.Val = 0x04;
  7841   000ACE  C01D  FFD9         	movff	_pBDTEntryEP0OutNext,fsr2l
  7842   000AD2  C01E  FFDA         	movff	_pBDTEntryEP0OutNext+1,fsr2h
  7843   000AD6  0E04               	movlw	4
  7844   000AD8  6EDF               	movwf	indf2,c
  7845                           
  7846                           ;../framework/usb/src/usb_device.c: 1911:         pBDTEntryEP0OutNext->STAT.Val |= 0x80;
  7847   000ADA  C01D  FFD9         	movff	_pBDTEntryEP0OutNext,fsr2l
  7848   000ADE  C01E  FFDA         	movff	_pBDTEntryEP0OutNext+1,fsr2h
  7849   000AE2  0E00               	movlw	0
  7850   000AE4  8EDB               	bsf	plusw2,7,c
  7851                           
  7852                           ;../framework/usb/src/usb_device.c: 1918:         if(outPipes[0].pFunc != ((void*)0))
  7853   000AE6  5007               	movf	(_outPipes+6)^0,w,c	;volatile
  7854   000AE8  1008               	iorwf	(_outPipes+7)^0,w,c	;volatile
  7855   000AEA  B4D8               	btfsc	status,2,c
  7856   000AEC  D00E               	goto	i2u256_49
  7857                           
  7858                           ;../framework/usb/src/usb_device.c: 1919:         {
  7859   000AEE  EE20  F007         	lfsr	2,_outPipes+6	;volatile
  7860   000AF2  D801               	call	i2u256_48
  7861   000AF4  D00A               	goto	i2u256_49
  7862   000AF6                     i2u256_48:
  7863   000AF6  0005               	push	
  7864   000AF8  6EFA               	movwf	pclath,c
  7865   000AFA  50DE               	movf	postinc2,w,c
  7866   000AFC  6EFD               	movwf	tosl,c
  7867   000AFE  50DE               	movf	postinc2,w,c
  7868   000B00  6EFE               	movwf	tosh,c
  7869   000B02  50F8               	movf	tblptru,w,c
  7870   000B04  6EFF               	movwf	tosu,c
  7871   000B06  50FA               	movf	pclath,w,c
  7872   000B08  0012               	return		;indir
  7873   000B0A                     i2u256_49:
  7874   000B0A  9E04               	bcf	(_outPipes+3)^0,7,c	;volatile
  7875                           
  7876                           ;../framework/usb/src/usb_device.c: 1945:         if(USBDeferStatusStagePacket == 0)
  7877   000B0C  5023               	movf	_USBDeferStatusStagePacket^0,w,c	;volatile
  7878   000B0E  A4D8               	btfss	status,2,c
  7879   000B10  0012               	return	
  7880                           
  7881                           ;../framework/usb/src/usb_device.c: 1946:         {;../framework/usb/src/usb_device.c: 1
      +                          947:             USBCtrlEPAllowStatusStage();
  7882   000B12  EC4C  F00B         	call	_USBCtrlEPAllowStatusStage	;wreg free
  7883   000B16  0012               	return		;funcret
  7884   000B18                     __end_of_USBCtrlTrfRxService:
  7885                           	callstack 0
  7886                           
  7887 ;; *************** function _USBCtrlEPAllowStatusStage *****************
  7888 ;; Defined at:
  7889 ;;		line 1420 in file "../framework/usb/src/usb_device.c"
  7890 ;; Parameters:    Size  Location     Type
  7891 ;;		None
  7892 ;; Auto vars:     Size  Location     Type
  7893 ;;		None
  7894 ;; Return value:  Size  Location     Type
  7895 ;;                  1    wreg      void 
  7896 ;; Registers used:
  7897 ;;		wreg, fsr2l, fsr2h, status,2, status,0
  7898 ;; Tracked objects:
  7899 ;;		On entry : 0/0
  7900 ;;		On exit  : 3F/0
  7901 ;;		Unchanged: 0/0
  7902 ;; Data sizes:     COMRAM   BANK0   BANK1  BANK2h  BANK2l
  7903 ;;      Params:         0       0       0       0       0
  7904 ;;      Locals:         0       0       0       0       0
  7905 ;;      Temps:          0       0       0       0       0
  7906 ;;      Totals:         0       0       0       0       0
  7907 ;;Total ram usage:        0 bytes
  7908 ;; Hardware stack levels used: 1
  7909 ;; This function calls:
  7910 ;;		Nothing
  7911 ;; This function is called by:
  7912 ;;		_USBDeviceTasks
  7913 ;;		_USBCtrlEPServiceComplete
  7914 ;;		_USBCtrlTrfRxService
  7915 ;; This function uses a non-reentrant model
  7916 ;;
  7917                           
  7918                           	psect	text48
  7919   001698                     __ptext48:
  7920                           	callstack 0
  7921   001698                     _USBCtrlEPAllowStatusStage:
  7922                           	callstack 22
  7923                           
  7924                           ;../framework/usb/src/usb_device.c: 1427:     if(USBStatusStageEnabledFlag1 == 0)
  7925                           
  7926                           ;incstack = 0
  7927   001698  0100               	movlb	0	; () banked
  7928   00169A  5182               	movf	_USBStatusStageEnabledFlag1& (0+255),w,b	;volatile
  7929   00169C  A4D8               	btfss	status,2,c
  7930   00169E  0012               	return	
  7931                           
  7932                           ; BSR set to: 0
  7933                           ;../framework/usb/src/usb_device.c: 1428:     {;../framework/usb/src/usb_device.c: 1429:
      +                                   USBStatusStageEnabledFlag1 = 1;
  7934   0016A0  0E01               	movlw	1
  7935   0016A2  6F82               	movwf	_USBStatusStageEnabledFlag1& (0+255),b	;volatile
  7936                           
  7937                           ;../framework/usb/src/usb_device.c: 1430:         if(USBStatusStageEnabledFlag2 == 0)
  7938   0016A4  5181               	movf	_USBStatusStageEnabledFlag2& (0+255),w,b	;volatile
  7939   0016A6  A4D8               	btfss	status,2,c
  7940   0016A8  0012               	return	
  7941                           
  7942                           ; BSR set to: 0
  7943                           ;../framework/usb/src/usb_device.c: 1431:         {;../framework/usb/src/usb_device.c: 1
      +                          432:             USBStatusStageEnabledFlag2 = 1;
  7944   0016AA  0E01               	movlw	1
  7945   0016AC  6F81               	movwf	_USBStatusStageEnabledFlag2& (0+255),b	;volatile
  7946                           
  7947                           ; BSR set to: 0
  7948                           ;../framework/usb/src/usb_device.c: 1436:             if(controlTransferState == 2)
  7949   0016AE  0E02               	movlw	2
  7950   0016B0  1828               	xorwf	_controlTransferState^0,w,c	;volatile
  7951   0016B2  A4D8               	btfss	status,2,c
  7952   0016B4  D015               	goto	i2l3821
  7953                           
  7954                           ; BSR set to: 0
  7955                           ;../framework/usb/src/usb_device.c: 1437:             {;../framework/usb/src/usb_device.
      +                          c: 1438:                 pBDTEntryIn[0]->CNT = 0;
  7956   0016B6  EE20 F001          	lfsr	2,1
  7957   0016BA  500F               	movf	_pBDTEntryIn^0,w,c
  7958   0016BC  26D9               	addwf	fsr2l,f,c
  7959   0016BE  5010               	movf	(_pBDTEntryIn+1)^0,w,c
  7960   0016C0  22DA               	addwfc	fsr2h,f,c
  7961   0016C2  0E00               	movlw	0
  7962   0016C4  6EDF               	movwf	indf2,c
  7963                           
  7964                           ; BSR set to: 0
  7965                           ;../framework/usb/src/usb_device.c: 1439:                 pBDTEntryIn[0]->STAT.Val = 0x4
      +                          0|(0x08 & 0x08);
  7966   0016C6  C00F  FFD9         	movff	_pBDTEntryIn,fsr2l
  7967   0016CA  C010  FFDA         	movff	_pBDTEntryIn+1,fsr2h
  7968   0016CE  0E48               	movlw	72
  7969   0016D0  6EDF               	movwf	indf2,c
  7970                           
  7971                           ; BSR set to: 0
  7972                           ;../framework/usb/src/usb_device.c: 1440:                 pBDTEntryIn[0]->STAT.Val |= 0x
      +                          80;
  7973   0016D2  C00F  FFD9         	movff	_pBDTEntryIn,fsr2l
  7974   0016D6  C010  FFDA         	movff	_pBDTEntryIn+1,fsr2h
  7975   0016DA  0E00               	movlw	0
  7976   0016DC  8EDB               	bsf	plusw2,7,c
  7977                           
  7978                           ;../framework/usb/src/usb_device.c: 1441:             }
  7979   0016DE  0012               	return	
  7980   0016E0                     i2l3821:
  7981                           
  7982                           ; BSR set to: 0
  7983   0016E0  0428               	decf	_controlTransferState^0,w,c	;volatile
  7984   0016E2  A4D8               	btfss	status,2,c
  7985   0016E4  0012               	return	
  7986                           
  7987                           ; BSR set to: 0
  7988                           ;../framework/usb/src/usb_device.c: 1443:             {;../framework/usb/src/usb_device.
      +                          c: 1444:                 BothEP0OutUOWNsSet = 0;
  7989   0016E6  0E00               	movlw	0
  7990   0016E8  6F83               	movwf	_BothEP0OutUOWNsSet& (0+255),b	;volatile
  7991                           
  7992                           ; BSR set to: 0
  7993                           ;../framework/usb/src/usb_device.c: 1449:                     pBDTEntryEP0OutCurrent->CN
      +                          T = 8;
  7994   0016EA  EE20 F001          	lfsr	2,1
  7995   0016EE  501F               	movf	_pBDTEntryEP0OutCurrent^0,w,c
  7996   0016F0  26D9               	addwf	fsr2l,f,c
  7997   0016F2  5020               	movf	(_pBDTEntryEP0OutCurrent+1)^0,w,c
  7998   0016F4  22DA               	addwfc	fsr2h,f,c
  7999   0016F6  0E08               	movlw	8
  8000   0016F8  6EDF               	movwf	indf2,c
  8001                           
  8002                           ; BSR set to: 0
  8003                           ;../framework/usb/src/usb_device.c: 1450:                     pBDTEntryEP0OutCurrent->AD
      +                          R = ((uint16_t)(&SetupPkt));
  8004   0016FA  EE20 F002          	lfsr	2,2
  8005   0016FE  501F               	movf	_pBDTEntryEP0OutCurrent^0,w,c
  8006   001700  26D9               	addwf	fsr2l,f,c
  8007   001702  5020               	movf	(_pBDTEntryEP0OutCurrent+1)^0,w,c
  8008   001704  22DA               	addwfc	fsr2h,f,c
  8009   001706  0E20               	movlw	32
  8010   001708  6EDE               	movwf	postinc2,c
  8011   00170A  0E02               	movlw	2
  8012   00170C  6EDD               	movwf	postdec2,c
  8013                           
  8014                           ; BSR set to: 0
  8015                           ;../framework/usb/src/usb_device.c: 1451:                     pBDTEntryEP0OutCurrent->ST
      +                          AT.Val = 0x04;
  8016   00170E  C01F  FFD9         	movff	_pBDTEntryEP0OutCurrent,fsr2l
  8017   001712  C020  FFDA         	movff	_pBDTEntryEP0OutCurrent+1,fsr2h
  8018   001716  0E04               	movlw	4
  8019   001718  6EDF               	movwf	indf2,c
  8020                           
  8021                           ; BSR set to: 0
  8022                           ;../framework/usb/src/usb_device.c: 1452:                     pBDTEntryEP0OutCurrent->ST
      +                          AT.Val |= 0x80;
  8023   00171A  C01F  FFD9         	movff	_pBDTEntryEP0OutCurrent,fsr2l
  8024   00171E  C020  FFDA         	movff	_pBDTEntryEP0OutCurrent+1,fsr2h
  8025   001722  0E00               	movlw	0
  8026   001724  8EDB               	bsf	plusw2,7,c
  8027                           
  8028                           ; BSR set to: 0
  8029                           ;../framework/usb/src/usb_device.c: 1453:                     BothEP0OutUOWNsSet = 1;
  8030   001726  0E01               	movlw	1
  8031   001728  6F83               	movwf	_BothEP0OutUOWNsSet& (0+255),b	;volatile
  8032                           
  8033                           ; BSR set to: 0
  8034                           ;../framework/usb/src/usb_device.c: 1457:                 pBDTEntryEP0OutNext->CNT = 8;
  8035   00172A  EE20 F001          	lfsr	2,1
  8036   00172E  501D               	movf	_pBDTEntryEP0OutNext^0,w,c
  8037   001730  26D9               	addwf	fsr2l,f,c
  8038   001732  501E               	movf	(_pBDTEntryEP0OutNext+1)^0,w,c
  8039   001734  22DA               	addwfc	fsr2h,f,c
  8040   001736  0E08               	movlw	8
  8041   001738  6EDF               	movwf	indf2,c
  8042                           
  8043                           ; BSR set to: 0
  8044                           ;../framework/usb/src/usb_device.c: 1458:                 pBDTEntryEP0OutNext->ADR = ((u
      +                          int16_t)(&SetupPkt));
  8045   00173A  EE20 F002          	lfsr	2,2
  8046   00173E  501D               	movf	_pBDTEntryEP0OutNext^0,w,c
  8047   001740  26D9               	addwf	fsr2l,f,c
  8048   001742  501E               	movf	(_pBDTEntryEP0OutNext+1)^0,w,c
  8049   001744  22DA               	addwfc	fsr2h,f,c
  8050   001746  0E20               	movlw	32
  8051   001748  6EDE               	movwf	postinc2,c
  8052   00174A  0E02               	movlw	2
  8053   00174C  6EDD               	movwf	postdec2,c
  8054                           
  8055                           ; BSR set to: 0
  8056                           ;../framework/usb/src/usb_device.c: 1459:                 pBDTEntryEP0OutNext->STAT.Val 
      +                          = 0x80;
  8057   00174E  C01D  FFD9         	movff	_pBDTEntryEP0OutNext,fsr2l
  8058   001752  C01E  FFDA         	movff	_pBDTEntryEP0OutNext+1,fsr2h
  8059   001756  0E80               	movlw	128
  8060   001758  6EDF               	movwf	indf2,c
  8061   00175A  0012               	return	
  8062   00175C                     __end_of_USBCtrlEPAllowStatusStage:
  8063                           	callstack 0
  8064                           
  8065 ;; *************** function _USBCtrlTrfInHandler *****************
  8066 ;; Defined at:
  8067 ;;		line 2599 in file "../framework/usb/src/usb_device.c"
  8068 ;; Parameters:    Size  Location     Type
  8069 ;;		None
  8070 ;; Auto vars:     Size  Location     Type
  8071 ;;  lastDTS         1    3[COMRAM] unsigned char 
  8072 ;; Return value:  Size  Location     Type
  8073 ;;                  1    wreg      void 
  8074 ;; Registers used:
  8075 ;;		wreg, fsr1l, fsr1h, fsr2l, fsr2h, status,2, status,0, pcl, pclath, pclatu, tosl, tblptrl, tblptrh, tblptru, cstack
  8076 ;; Tracked objects:
  8077 ;;		On entry : 0/0
  8078 ;;		On exit  : 0/0
  8079 ;;		Unchanged: 0/0
  8080 ;; Data sizes:     COMRAM   BANK0   BANK1  BANK2h  BANK2l
  8081 ;;      Params:         0       0       0       0       0
  8082 ;;      Locals:         1       0       0       0       0
  8083 ;;      Temps:          0       0       0       0       0
  8084 ;;      Totals:         1       0       0       0       0
  8085 ;;Total ram usage:        1 bytes
  8086 ;; Hardware stack levels used: 1
  8087 ;; Hardware stack levels required when called: 3
  8088 ;; This function calls:
  8089 ;;		_USBCtrlTrfTxService
  8090 ;;		_USBHIDCBSetReportComplete
  8091 ;; This function is called by:
  8092 ;;		_USBCtrlEPService
  8093 ;; This function uses a non-reentrant model
  8094 ;;
  8095                           
  8096                           	psect	text49
  8097   001350                     __ptext49:
  8098                           	callstack 0
  8099   001350                     _USBCtrlTrfInHandler:
  8100                           	callstack 21
  8101                           
  8102                           ;../framework/usb/src/usb_device.c: 2601:     uint8_t lastDTS;;../framework/usb/src/usb_
      +                          device.c: 2603:     lastDTS = pBDTEntryIn[0]->STAT.DTS;
  8103                           
  8104                           ; BSR set to: 0
  8105                           ;incstack = 0
  8106   001350  C00F  FFD9         	movff	_pBDTEntryIn,fsr2l
  8107   001354  C010  FFDA         	movff	_pBDTEntryIn+1,fsr2h
  8108   001358  0E00               	movlw	0
  8109   00135A  BCDF               	btfsc	indf2,6,c
  8110   00135C  0E01               	movlw	1
  8111   00135E  6E31               	movwf	USBCtrlTrfInHandler@lastDTS^0,c
  8112                           
  8113                           ;../framework/usb/src/usb_device.c: 2606:     pBDTEntryIn[0] = (volatile BDT_ENTRY*)(((u
      +                          int16_t)pBDTEntryIn[0]) ^ 0x0004);
  8114   001360  0E04               	movlw	4
  8115   001362  180F               	xorwf	_pBDTEntryIn^0,w,c
  8116   001364  6E0F               	movwf	_pBDTEntryIn^0,c
  8117   001366  5010               	movf	(_pBDTEntryIn+1)^0,w,c
  8118   001368  6E10               	movwf	(_pBDTEntryIn+1)^0,c
  8119                           
  8120                           ;../framework/usb/src/usb_device.c: 2611:     if(USBDeviceState == ADR_PENDING_STATE)
  8121   00136A  0E08               	movlw	8
  8122   00136C  182A               	xorwf	_USBDeviceState^0,w,c
  8123   00136E  A4D8               	btfss	status,2,c
  8124   001370  D00C               	goto	i2l4301
  8125                           
  8126                           ;../framework/usb/src/usb_device.c: 2612:     {;../framework/usb/src/usb_device.c: 2613:
      +                                   UADDR = (SetupPkt.bDevADR & 0x7F);
  8127   001372  0102               	movlb	2	; () banked
  8128   001374  5122               	movf	34,w,b	;volatile
  8129   001376  0B7F               	andlw	127
  8130   001378  010F               	movlb	15	; () banked
  8131   00137A  6F5C               	movwf	92,b	;volatile
  8132                           
  8133                           ; BSR set to: 15
  8134                           ;../framework/usb/src/usb_device.c: 2614:         if(UADDR != 0u)
  8135   00137C  515C               	movf	92,w,b
  8136   00137E  B4D8               	btfsc	status,2,c
  8137   001380  D002               	goto	i2l4299
  8138                           
  8139                           ; BSR set to: 15
  8140                           ;../framework/usb/src/usb_device.c: 2615:         {;../framework/usb/src/usb_device.c: 2
      +                          616:             USBDeviceState=ADDRESS_STATE;
  8141   001382  0E10               	movlw	16
  8142   001384  D001               	goto	L15
  8143   001386                     i2l4299:
  8144                           
  8145                           ; BSR set to: 15
  8146                           ;../framework/usb/src/usb_device.c: 2619:         {;../framework/usb/src/usb_device.c: 2
      +                          620:             USBDeviceState=DEFAULT_STATE;
  8147   001386  0E04               	movlw	4
  8148   001388                     L15:
  8149   001388  6E2A               	movwf	_USBDeviceState^0,c	;volatile
  8150   00138A                     i2l4301:
  8151                           
  8152                           ;../framework/usb/src/usb_device.c: 2625:     if(controlTransferState == 1)
  8153   00138A  0428               	decf	_controlTransferState^0,w,c	;volatile
  8154   00138C  A4D8               	btfss	status,2,c
  8155   00138E  D03A               	goto	i2l524
  8156                           
  8157                           ;../framework/usb/src/usb_device.c: 2626:     {;../framework/usb/src/usb_device.c: 2627:
      +                                   pBDTEntryIn[0]->ADR = ((uint16_t)(CtrlTrfData));
  8158   001390  EE20 F002          	lfsr	2,2
  8159   001394  500F               	movf	_pBDTEntryIn^0,w,c
  8160   001396  26D9               	addwf	fsr2l,f,c
  8161   001398  5010               	movf	(_pBDTEntryIn+1)^0,w,c
  8162   00139A  22DA               	addwfc	fsr2h,f,c
  8163   00139C  0E28               	movlw	40
  8164   00139E  6EDE               	movwf	postinc2,c
  8165   0013A0  0E02               	movlw	2
  8166   0013A2  6EDD               	movwf	postdec2,c
  8167                           
  8168                           ;../framework/usb/src/usb_device.c: 2628:         USBCtrlTrfTxService();
  8169   0013A4  EC84  F00A         	call	_USBCtrlTrfTxService	;wreg free
  8170                           
  8171                           ; BSR set to: 0
  8172                           ;../framework/usb/src/usb_device.c: 2634:         if(shortPacketStatus == 2)
  8173   0013A8  0E02               	movlw	2
  8174   0013AA  1829               	xorwf	_shortPacketStatus^0,w,c	;volatile
  8175   0013AC  A4D8               	btfss	status,2,c
  8176   0013AE  D00D               	goto	i2l4313
  8177                           
  8178                           ; BSR set to: 0
  8179                           ;../framework/usb/src/usb_device.c: 2635:         {;../framework/usb/src/usb_device.c: 2
      +                          638:             pBDTEntryIn[0]->STAT.Val = 0x04;
  8180   0013B0  C00F  FFD9         	movff	_pBDTEntryIn,fsr2l
  8181   0013B4  C010  FFDA         	movff	_pBDTEntryIn+1,fsr2h
  8182   0013B8  0E04               	movlw	4
  8183   0013BA  6EDF               	movwf	indf2,c
  8184                           
  8185                           ; BSR set to: 0
  8186                           ;../framework/usb/src/usb_device.c: 2639:             pBDTEntryIn[0]->STAT.Val |= 0x80;
  8187   0013BC  C00F  FFD9         	movff	_pBDTEntryIn,fsr2l
  8188   0013C0  C010  FFDA         	movff	_pBDTEntryIn+1,fsr2h
  8189   0013C4  0E00               	movlw	0
  8190   0013C6  8EDB               	bsf	plusw2,7,c
  8191                           
  8192                           ;../framework/usb/src/usb_device.c: 2640:         }
  8193   0013C8  0012               	return	
  8194   0013CA                     i2l4313:
  8195                           
  8196                           ; BSR set to: 0
  8197                           ;../framework/usb/src/usb_device.c: 2642:         {;../framework/usb/src/usb_device.c: 2
      +                          643:             if(lastDTS == 0)
  8198   0013CA  5031               	movf	USBCtrlTrfInHandler@lastDTS^0,w,c
  8199   0013CC  A4D8               	btfss	status,2,c
  8200   0013CE  D00D               	goto	i2l4319
  8201                           
  8202                           ; BSR set to: 0
  8203                           ;../framework/usb/src/usb_device.c: 2644:             {;../framework/usb/src/usb_device.
      +                          c: 2645:                 pBDTEntryIn[0]->STAT.Val = 0x40|(0x08 & 0x08);
  8204   0013D0  C00F  FFD9         	movff	_pBDTEntryIn,fsr2l
  8205   0013D4  C010  FFDA         	movff	_pBDTEntryIn+1,fsr2h
  8206   0013D8  0E48               	movlw	72
  8207   0013DA  6EDF               	movwf	indf2,c
  8208                           
  8209                           ; BSR set to: 0
  8210                           ;../framework/usb/src/usb_device.c: 2646:                 pBDTEntryIn[0]->STAT.Val |= 0x
      +                          80;
  8211   0013DC  C00F  FFD9         	movff	_pBDTEntryIn,fsr2l
  8212   0013E0  C010  FFDA         	movff	_pBDTEntryIn+1,fsr2h
  8213   0013E4  0E00               	movlw	0
  8214   0013E6  8EDB               	bsf	plusw2,7,c
  8215                           
  8216                           ;../framework/usb/src/usb_device.c: 2647:             }
  8217   0013E8  0012               	return	
  8218   0013EA                     i2l4319:
  8219                           
  8220                           ; BSR set to: 0
  8221                           ;../framework/usb/src/usb_device.c: 2649:             {;../framework/usb/src/usb_device.
      +                          c: 2650:                 pBDTEntryIn[0]->STAT.Val = 0x00|(0x08 & 0x08);
  8222   0013EA  C00F  FFD9         	movff	_pBDTEntryIn,fsr2l
  8223   0013EE  C010  FFDA         	movff	_pBDTEntryIn+1,fsr2h
  8224   0013F2  0E08               	movlw	8
  8225   0013F4  6EDF               	movwf	indf2,c
  8226                           
  8227                           ; BSR set to: 0
  8228                           ;../framework/usb/src/usb_device.c: 2651:                 pBDTEntryIn[0]->STAT.Val |= 0x
      +                          80;
  8229   0013F6  C00F  FFD9         	movff	_pBDTEntryIn,fsr2l
  8230   0013FA  C010  FFDA         	movff	_pBDTEntryIn+1,fsr2h
  8231   0013FE  0E00               	movlw	0
  8232   001400  8EDB               	bsf	plusw2,7,c
  8233   001402  0012               	return	
  8234   001404                     i2l524:
  8235                           
  8236                           ;../framework/usb/src/usb_device.c: 2656:  {;../framework/usb/src/usb_device.c: 2660:   
      +                                if(outPipes[0].info.bits.busy == 1)
  8237   001404  AE04               	btfss	(_outPipes+3)^0,7,c	;volatile
  8238   001406  D013               	goto	i2l4329
  8239                           
  8240                           ;../framework/usb/src/usb_device.c: 2661:         {;../framework/usb/src/usb_device.c: 2
      +                          662:             if(outPipes[0].pFunc != ((void*)0))
  8241   001408  5007               	movf	(_outPipes+6)^0,w,c	;volatile
  8242   00140A  1008               	iorwf	(_outPipes+7)^0,w,c	;volatile
  8243   00140C  B4D8               	btfsc	status,2,c
  8244   00140E  D00E               	goto	i2u269_49
  8245                           
  8246                           ;../framework/usb/src/usb_device.c: 2663:             {;../framework/usb/src/usb_device.
      +                          c: 2664:                 outPipes[0].pFunc();
  8247   001410  EE20  F007         	lfsr	2,_outPipes+6	;volatile
  8248   001414  D801               	call	i2u269_48
  8249   001416  D00A               	goto	i2u269_49
  8250   001418                     i2u269_48:
  8251   001418  0005               	push	
  8252   00141A  6EFA               	movwf	pclath,c
  8253   00141C  50DE               	movf	postinc2,w,c
  8254   00141E  6EFD               	movwf	tosl,c
  8255   001420  50DE               	movf	postinc2,w,c
  8256   001422  6EFE               	movwf	tosh,c
  8257   001424  50F8               	movf	tblptru,w,c
  8258   001426  6EFF               	movwf	tosu,c
  8259   001428  50FA               	movf	pclath,w,c
  8260   00142A  0012               	return		;indir
  8261   00142C                     i2u269_49:
  8262                           
  8263                           ;../framework/usb/src/usb_device.c: 2666:             outPipes[0].info.bits.busy = 0;
  8264   00142C  9E04               	bcf	(_outPipes+3)^0,7,c	;volatile
  8265   00142E                     i2l4329:
  8266                           
  8267                           ;../framework/usb/src/usb_device.c: 2669:         controlTransferState = 0;
  8268   00142E  0E00               	movlw	0
  8269   001430  6E28               	movwf	_controlTransferState^0,c	;volatile
  8270   001432  0012               	return		;funcret
  8271   001434                     __end_of_USBCtrlTrfInHandler:
  8272                           	callstack 0
  8273                           
  8274 ;; *************** function _USBHIDCBSetReportComplete *****************
  8275 ;; Defined at:
  8276 ;;		line 460 in file "../demo_src/app_device_keyboard.c"
  8277 ;; Parameters:    Size  Location     Type
  8278 ;;		None
  8279 ;; Auto vars:     Size  Location     Type
  8280 ;;		None
  8281 ;; Return value:  Size  Location     Type
  8282 ;;                  1    wreg      void 
  8283 ;; Registers used:
  8284 ;;		wreg, status,2, status,0, cstack
  8285 ;; Tracked objects:
  8286 ;;		On entry : 0/0
  8287 ;;		On exit  : 0/0
  8288 ;;		Unchanged: 0/0
  8289 ;; Data sizes:     COMRAM   BANK0   BANK1  BANK2h  BANK2l
  8290 ;;      Params:         0       0       0       0       0
  8291 ;;      Locals:         0       0       0       0       0
  8292 ;;      Temps:          0       0       0       0       0
  8293 ;;      Totals:         0       0       0       0       0
  8294 ;;Total ram usage:        0 bytes
  8295 ;; Hardware stack levels used: 1
  8296 ;; Hardware stack levels required when called: 2
  8297 ;; This function calls:
  8298 ;;		i2_APP_KeyboardProcessOutputReport
  8299 ;; This function is called by:
  8300 ;;		_USBHIDCBSetReportHandler
  8301 ;;		_USBCtrlTrfRxService
  8302 ;;		_USBCtrlTrfInHandler
  8303 ;; This function uses a non-reentrant model
  8304 ;;
  8305                           
  8306                           	psect	text50
  8307   00214C                     __ptext50:
  8308                           	callstack 0
  8309   00214C                     _USBHIDCBSetReportComplete:
  8310                           	callstack 20
  8311                           
  8312                           ;../demo_src/app_device_keyboard.c: 464:     outputReport.value = CtrlTrfData[0];
  8313                           
  8314                           ;incstack = 0
  8315   00214C  C228 F248          	movff	552,584	;volatile
  8316                           
  8317                           ;../demo_src/app_device_keyboard.c: 467:     APP_KeyboardProcessOutputReport();
  8318   002150  EC85  F010         	call	i2_APP_KeyboardProcessOutputReport	;wreg free
  8319   002154  0012               	return		;funcret
  8320   002156                     __end_of_USBHIDCBSetReportComplete:
  8321                           	callstack 0
  8322                           
  8323 ;; *************** function i2_APP_KeyboardProcessOutputReport *****************
  8324 ;; Defined at:
  8325 ;;		line 448 in file "../demo_src/app_device_keyboard.c"
  8326 ;; Parameters:    Size  Location     Type
  8327 ;;		None
  8328 ;; Auto vars:     Size  Location     Type
  8329 ;;		None
  8330 ;; Return value:  Size  Location     Type
  8331 ;;                  1    wreg      void 
  8332 ;; Registers used:
  8333 ;;		wreg, status,2, status,0, cstack
  8334 ;; Tracked objects:
  8335 ;;		On entry : 0/0
  8336 ;;		On exit  : 0/0
  8337 ;;		Unchanged: 0/0
  8338 ;; Data sizes:     COMRAM   BANK0   BANK1  BANK2h  BANK2l
  8339 ;;      Params:         0       0       0       0       0
  8340 ;;      Locals:         0       0       0       0       0
  8341 ;;      Temps:          0       0       0       0       0
  8342 ;;      Totals:         0       0       0       0       0
  8343 ;;Total ram usage:        0 bytes
  8344 ;; Hardware stack levels used: 1
  8345 ;; Hardware stack levels required when called: 1
  8346 ;; This function calls:
  8347 ;;		i2_LED_Off
  8348 ;;		i2_LED_On
  8349 ;; This function is called by:
  8350 ;;		_USBHIDCBSetReportComplete
  8351 ;; This function uses a non-reentrant model
  8352 ;;
  8353                           
  8354                           	psect	text51
  8355   00210A                     __ptext51:
  8356                           	callstack 0
  8357   00210A                     i2_APP_KeyboardProcessOutputReport:
  8358                           	callstack 20
  8359                           
  8360                           ;../demo_src/app_device_keyboard.c: 450:     if(outputReport.leds.capsLock)
  8361                           
  8362                           ;incstack = 0
  8363   00210A  0102               	movlb	2	; () banked
  8364   00210C  A348               	btfss	72,1,b	;volatile
  8365   00210E  D004               	goto	i2l3773
  8366                           
  8367                           ; BSR set to: 2
  8368                           ;../demo_src/app_device_keyboard.c: 451:     {;../demo_src/app_device_keyboard.c: 452:  
      +                                 LED_On(LED_D2);
  8369   002110  0E02               	movlw	2
  8370   002112  ECEA  F00E         	call	i2_LED_On
  8371                           
  8372                           ;../demo_src/app_device_keyboard.c: 453:     }
  8373   002116  0012               	return	
  8374   002118                     i2l3773:
  8375                           
  8376                           ; BSR set to: 2
  8377                           ;../demo_src/app_device_keyboard.c: 455:     {;../demo_src/app_device_keyboard.c: 456:  
      +                                 LED_Off(LED_D2);
  8378   002118  0E02               	movlw	2
  8379   00211A  EC0C  F00F         	call	i2_LED_Off
  8380   00211E  0012               	return		;funcret
  8381   002120                     __end_ofi2_APP_KeyboardProcessOutputReport:
  8382                           	callstack 0
  8383                           
  8384 ;; *************** function i2_LED_On *****************
  8385 ;; Defined at:
  8386 ;;		line 59 in file "../bsp/pic18f14k50/leds.c"
  8387 ;; Parameters:    Size  Location     Type
  8388 ;;  led             1    wreg     enum E2
  8389 ;; Auto vars:     Size  Location     Type
  8390 ;;  led             1    2[COMRAM] enum E2
  8391 ;; Return value:  Size  Location     Type
  8392 ;;                  1    wreg      void 
  8393 ;; Registers used:
  8394 ;;		wreg, status,2, status,0
  8395 ;; Tracked objects:
  8396 ;;		On entry : 0/0
  8397 ;;		On exit  : 0/0
  8398 ;;		Unchanged: 0/0
  8399 ;; Data sizes:     COMRAM   BANK0   BANK1  BANK2h  BANK2l
  8400 ;;      Params:         0       0       0       0       0
  8401 ;;      Locals:         1       0       0       0       0
  8402 ;;      Temps:          2       0       0       0       0
  8403 ;;      Totals:         3       0       0       0       0
  8404 ;;Total ram usage:        3 bytes
  8405 ;; Hardware stack levels used: 1
  8406 ;; This function calls:
  8407 ;;		Nothing
  8408 ;; This function is called by:
  8409 ;;		_APP_LEDUpdateUSBStatus
  8410 ;;		i2_APP_KeyboardProcessOutputReport
  8411 ;; This function uses a non-reentrant model
  8412 ;;
  8413                           
  8414                           	psect	text52
  8415   001DD4                     __ptext52:
  8416                           	callstack 0
  8417   001DD4                     i2_LED_On:
  8418                           	callstack 23
  8419                           
  8420                           ;incstack = 0
  8421                           ;i2LED_On@led stored from wreg
  8422   001DD4  6E30               	movwf	i2LED_On@led^0,c
  8423                           
  8424                           ;../bsp/pic18f14k50/leds.c: 59: void LED_On(LED led);../bsp/pic18f14k50/leds.c: 60: {;..
      +                          /bsp/pic18f14k50/leds.c: 61:     switch(led)
  8425   001DD6  D008               	goto	i2l3501
  8426   001DD8                     i2l24:
  8427                           
  8428                           ;../bsp/pic18f14k50/leds.c: 64:             LATCbits.LATC0 = 1;
  8429   001DD8  808B               	bsf	139,0,c	;volatile
  8430                           
  8431                           ;../bsp/pic18f14k50/leds.c: 65:             break;
  8432   001DDA  0012               	return	
  8433   001DDC                     i2l26:
  8434                           
  8435                           ;../bsp/pic18f14k50/leds.c: 68:             LATCbits.LATC1 = 1;
  8436   001DDC  828B               	bsf	139,1,c	;volatile
  8437                           
  8438                           ;../bsp/pic18f14k50/leds.c: 69:             break;
  8439   001DDE  0012               	return	
  8440   001DE0                     i2l27:
  8441                           
  8442                           ;../bsp/pic18f14k50/leds.c: 72:             LATCbits.LATC2 = 1;
  8443   001DE0  848B               	bsf	139,2,c	;volatile
  8444                           
  8445                           ;../bsp/pic18f14k50/leds.c: 73:             break;
  8446   001DE2  0012               	return	
  8447   001DE4                     i2l28:
  8448                           
  8449                           ;../bsp/pic18f14k50/leds.c: 76:             LATCbits.LATC3 = 1;
  8450   001DE4  868B               	bsf	139,3,c	;volatile
  8451                           
  8452                           ;../bsp/pic18f14k50/leds.c: 77:             break;
  8453   001DE6  0012               	return	
  8454   001DE8                     i2l3501:
  8455   001DE8  5030               	movf	i2LED_On@led^0,w,c
  8456   001DEA  6E2E               	movwf	??i2_LED_On^0,c
  8457   001DEC  6A2F               	clrf	(??i2_LED_On+1)^0,c
  8458                           
  8459                           ; Switch on 2 bytes has been partitioned into a top level switch of size 1, and 1 sub-sw
      +                          itches
  8460                           ; Switch size 1, requested type "simple"
  8461                           ; Number of cases is 1, Range of values is 0 to 0
  8462                           ; switch strategies available:
  8463                           ; Name         Instructions Cycles
  8464                           ; simple_byte            4     3 (average)
  8465                           ;	Chosen strategy is simple_byte
  8466   001DEE  502F               	movf	(??i2_LED_On+1)^0,w,c
  8467   001DF0  0A00               	xorlw	0	; case 0
  8468   001DF2  A4D8               	btfss	status,2,c
  8469   001DF4  0012               	return	
  8470                           
  8471                           ; Switch size 1, requested type "simple"
  8472                           ; Number of cases is 5, Range of values is 0 to 4
  8473                           ; switch strategies available:
  8474                           ; Name         Instructions Cycles
  8475                           ; simple_byte           16     9 (average)
  8476                           ;	Chosen strategy is simple_byte
  8477   001DF6  502E               	movf	??i2_LED_On^0,w,c
  8478   001DF8  0A00               	xorlw	0	; case 0
  8479   001DFA  B4D8               	btfsc	status,2,c
  8480   001DFC  0012               	return	
  8481   001DFE  0A01               	xorlw	1	; case 1
  8482   001E00  B4D8               	btfsc	status,2,c
  8483   001E02  D7EA               	goto	i2l24
  8484   001E04  0A03               	xorlw	3	; case 2
  8485   001E06  B4D8               	btfsc	status,2,c
  8486   001E08  D7E9               	goto	i2l26
  8487   001E0A  0A01               	xorlw	1	; case 3
  8488   001E0C  B4D8               	btfsc	status,2,c
  8489   001E0E  D7E8               	goto	i2l27
  8490   001E10  0A07               	xorlw	7	; case 4
  8491   001E12  A4D8               	btfss	status,2,c
  8492   001E14  0012               	return	
  8493   001E16  D7E6               	goto	i2l28
  8494   001E18                     __end_ofi2_LED_On:
  8495                           	callstack 0
  8496                           
  8497 ;; *************** function i2_LED_Off *****************
  8498 ;; Defined at:
  8499 ;;		line 100 in file "../bsp/pic18f14k50/leds.c"
  8500 ;; Parameters:    Size  Location     Type
  8501 ;;  led             1    wreg     enum E2
  8502 ;; Auto vars:     Size  Location     Type
  8503 ;;  led             1    2[COMRAM] enum E2
  8504 ;; Return value:  Size  Location     Type
  8505 ;;                  1    wreg      void 
  8506 ;; Registers used:
  8507 ;;		wreg, status,2, status,0
  8508 ;; Tracked objects:
  8509 ;;		On entry : 0/0
  8510 ;;		On exit  : 0/0
  8511 ;;		Unchanged: 0/0
  8512 ;; Data sizes:     COMRAM   BANK0   BANK1  BANK2h  BANK2l
  8513 ;;      Params:         0       0       0       0       0
  8514 ;;      Locals:         1       0       0       0       0
  8515 ;;      Temps:          2       0       0       0       0
  8516 ;;      Totals:         3       0       0       0       0
  8517 ;;Total ram usage:        3 bytes
  8518 ;; Hardware stack levels used: 1
  8519 ;; This function calls:
  8520 ;;		Nothing
  8521 ;; This function is called by:
  8522 ;;		_APP_LEDUpdateUSBStatus
  8523 ;;		i2_APP_KeyboardProcessOutputReport
  8524 ;; This function uses a non-reentrant model
  8525 ;;
  8526                           
  8527                           	psect	text53
  8528   001E18                     __ptext53:
  8529                           	callstack 0
  8530   001E18                     i2_LED_Off:
  8531                           	callstack 23
  8532                           
  8533                           ;incstack = 0
  8534                           ;i2LED_Off@led stored from wreg
  8535   001E18  6E30               	movwf	i2LED_Off@led^0,c
  8536                           
  8537                           ;../bsp/pic18f14k50/leds.c: 100: void LED_Off(LED led);../bsp/pic18f14k50/leds.c: 101: {
      +                          ;../bsp/pic18f14k50/leds.c: 102:     switch(led)
  8538   001E1A  D008               	goto	i2l3511
  8539   001E1C                     i2l34:
  8540                           
  8541                           ;../bsp/pic18f14k50/leds.c: 105:             LATCbits.LATC0 = 0;
  8542   001E1C  908B               	bcf	139,0,c	;volatile
  8543                           
  8544                           ;../bsp/pic18f14k50/leds.c: 106:             break;
  8545   001E1E  0012               	return	
  8546   001E20                     i2l36:
  8547                           
  8548                           ;../bsp/pic18f14k50/leds.c: 109:             LATCbits.LATC1 = 0;
  8549   001E20  928B               	bcf	139,1,c	;volatile
  8550                           
  8551                           ;../bsp/pic18f14k50/leds.c: 110:             break;
  8552   001E22  0012               	return	
  8553   001E24                     i2l37:
  8554                           
  8555                           ;../bsp/pic18f14k50/leds.c: 113:             LATCbits.LATC2 = 0;
  8556   001E24  948B               	bcf	139,2,c	;volatile
  8557                           
  8558                           ;../bsp/pic18f14k50/leds.c: 114:             break;
  8559   001E26  0012               	return	
  8560   001E28                     i2l38:
  8561                           
  8562                           ;../bsp/pic18f14k50/leds.c: 117:             LATCbits.LATC3 = 0;
  8563   001E28  968B               	bcf	139,3,c	;volatile
  8564                           
  8565                           ;../bsp/pic18f14k50/leds.c: 118:             break;
  8566   001E2A  0012               	return	
  8567   001E2C                     i2l3511:
  8568   001E2C  5030               	movf	i2LED_Off@led^0,w,c
  8569   001E2E  6E2E               	movwf	??i2_LED_Off^0,c
  8570   001E30  6A2F               	clrf	(??i2_LED_Off+1)^0,c
  8571                           
  8572                           ; Switch on 2 bytes has been partitioned into a top level switch of size 1, and 1 sub-sw
      +                          itches
  8573                           ; Switch size 1, requested type "simple"
  8574                           ; Number of cases is 1, Range of values is 0 to 0
  8575                           ; switch strategies available:
  8576                           ; Name         Instructions Cycles
  8577                           ; simple_byte            4     3 (average)
  8578                           ;	Chosen strategy is simple_byte
  8579   001E32  502F               	movf	(??i2_LED_Off+1)^0,w,c
  8580   001E34  0A00               	xorlw	0	; case 0
  8581   001E36  A4D8               	btfss	status,2,c
  8582   001E38  0012               	return	
  8583                           
  8584                           ; Switch size 1, requested type "simple"
  8585                           ; Number of cases is 5, Range of values is 0 to 4
  8586                           ; switch strategies available:
  8587                           ; Name         Instructions Cycles
  8588                           ; simple_byte           16     9 (average)
  8589                           ;	Chosen strategy is simple_byte
  8590   001E3A  502E               	movf	??i2_LED_Off^0,w,c
  8591   001E3C  0A00               	xorlw	0	; case 0
  8592   001E3E  B4D8               	btfsc	status,2,c
  8593   001E40  0012               	return	
  8594   001E42  0A01               	xorlw	1	; case 1
  8595   001E44  B4D8               	btfsc	status,2,c
  8596   001E46  D7EA               	goto	i2l34
  8597   001E48  0A03               	xorlw	3	; case 2
  8598   001E4A  B4D8               	btfsc	status,2,c
  8599   001E4C  D7E9               	goto	i2l36
  8600   001E4E  0A01               	xorlw	1	; case 3
  8601   001E50  B4D8               	btfsc	status,2,c
  8602   001E52  D7E8               	goto	i2l37
  8603   001E54  0A07               	xorlw	7	; case 4
  8604   001E56  A4D8               	btfss	status,2,c
  8605   001E58  0012               	return	
  8606   001E5A  D7E6               	goto	i2l38
  8607   001E5C                     __end_ofi2_LED_Off:
  8608                           	callstack 0
  8609                           
  8610 ;; *************** function _USBCtrlTrfTxService *****************
  8611 ;; Defined at:
  8612 ;;		line 1775 in file "../framework/usb/src/usb_device.c"
  8613 ;; Parameters:    Size  Location     Type
  8614 ;;		None
  8615 ;; Auto vars:     Size  Location     Type
  8616 ;;  byteToSend      1    0[COMRAM] unsigned char 
  8617 ;; Return value:  Size  Location     Type
  8618 ;;                  1    wreg      void 
  8619 ;; Registers used:
  8620 ;;		wreg, fsr1l, fsr1h, fsr2l, fsr2h, status,2, status,0, tblptrl, tblptrh, tblptru
  8621 ;; Tracked objects:
  8622 ;;		On entry : 0/2
  8623 ;;		On exit  : 3F/0
  8624 ;;		Unchanged: 0/0
  8625 ;; Data sizes:     COMRAM   BANK0   BANK1  BANK2h  BANK2l
  8626 ;;      Params:         0       0       0       0       0
  8627 ;;      Locals:         1       0       0       0       0
  8628 ;;      Temps:          0       0       0       0       0
  8629 ;;      Totals:         1       0       0       0       0
  8630 ;;Total ram usage:        1 bytes
  8631 ;; Hardware stack levels used: 1
  8632 ;; This function calls:
  8633 ;;		Nothing
  8634 ;; This function is called by:
  8635 ;;		_USBCtrlEPAllowDataStage
  8636 ;;		_USBCtrlTrfInHandler
  8637 ;; This function uses a non-reentrant model
  8638 ;;
  8639                           
  8640                           	psect	text54
  8641   001508                     __ptext54:
  8642                           	callstack 0
  8643   001508                     _USBCtrlTrfTxService:
  8644                           	callstack 21
  8645                           
  8646                           ;../framework/usb/src/usb_device.c: 1777:     uint8_t byteToSend;;../framework/usb/src/u
      +                          sb_device.c: 1781:     byteToSend = 8;
  8647                           
  8648                           ;incstack = 0
  8649   001508  0E08               	movlw	8
  8650   00150A  6E2E               	movwf	USBCtrlTrfTxService@byteToSend^0,c
  8651                           
  8652                           ;../framework/usb/src/usb_device.c: 1782:     if(inPipes[0].wCount.Val < (uint8_t)8)
  8653   00150C  500E               	movf	(_inPipes+5)^0,w,c	;volatile
  8654   00150E  E110               	bnz	i2l3739
  8655   001510  0E08               	movlw	8
  8656   001512  5C0D               	subwf	(_inPipes+4)^0,w,c	;volatile
  8657   001514  B0D8               	btfsc	status,0,c
  8658   001516  D00C               	goto	i2l3739
  8659                           
  8660                           ;../framework/usb/src/usb_device.c: 1783:     {;../framework/usb/src/usb_device.c: 1784:
      +                                   byteToSend = inPipes[0].wCount.Val;
  8661   001518  C00D  F02E         	movff	_inPipes+4,USBCtrlTrfTxService@byteToSend	;volatile
  8662                           
  8663                           ;../framework/usb/src/usb_device.c: 1791:         if(shortPacketStatus == 0)
  8664   00151C  5029               	movf	_shortPacketStatus^0,w,c	;volatile
  8665   00151E  A4D8               	btfss	status,2,c
  8666   001520  D002               	goto	i2l3735
  8667                           
  8668                           ;../framework/usb/src/usb_device.c: 1792:         {;../framework/usb/src/usb_device.c: 1
      +                          793:             shortPacketStatus = 1;
  8669   001522  0E01               	movlw	1
  8670   001524  D004               	goto	L16
  8671   001526                     i2l3735:
  8672   001526  0429               	decf	_shortPacketStatus^0,w,c	;volatile
  8673   001528  A4D8               	btfss	status,2,c
  8674   00152A  D002               	goto	i2l3739
  8675                           
  8676                           ;../framework/usb/src/usb_device.c: 1796:         {;../framework/usb/src/usb_device.c: 1
      +                          797:             shortPacketStatus = 2;
  8677   00152C  0E02               	movlw	2
  8678   00152E                     L16:
  8679   00152E  6E29               	movwf	_shortPacketStatus^0,c	;volatile
  8680   001530                     i2l3739:
  8681                           
  8682                           ;../framework/usb/src/usb_device.c: 1803:     inPipes[0].wCount.Val -= byteToSend;
  8683   001530  502E               	movf	USBCtrlTrfTxService@byteToSend^0,w,c
  8684   001532  5E0D               	subwf	(_inPipes+4)^0,f,c	;volatile
  8685   001534  0E00               	movlw	0
  8686   001536  5A0E               	subwfb	(_inPipes+5)^0,f,c	;volatile
  8687                           
  8688                           ;../framework/usb/src/usb_device.c: 1808:     pBDTEntryIn[0]->CNT = byteToSend;
  8689   001538  EE20 F001          	lfsr	2,1
  8690   00153C  500F               	movf	_pBDTEntryIn^0,w,c
  8691   00153E  26D9               	addwf	fsr2l,f,c
  8692   001540  5010               	movf	(_pBDTEntryIn+1)^0,w,c
  8693   001542  22DA               	addwfc	fsr2h,f,c
  8694   001544  C02E  FFDF         	movff	USBCtrlTrfTxService@byteToSend,indf2
  8695                           
  8696                           ;../framework/usb/src/usb_device.c: 1812:     pDst = (volatile uint8_t*)CtrlTrfData;
  8697   001548  0E28               	movlw	40
  8698   00154A  0100               	movlb	0	; () banked
  8699   00154C  6F7C               	movwf	_pDst& (0+255),b
  8700   00154E  0E02               	movlw	2
  8701   001550  6F7D               	movwf	(_pDst+1)& (0+255),b
  8702                           
  8703                           ; BSR set to: 0
  8704                           ;../framework/usb/src/usb_device.c: 1813:     if(inPipes[0].info.bits.ctrl_trf_mem == 0x
      +                          00)
  8705   001552  A00C               	btfss	(_inPipes+3)^0,0,c	;volatile
  8706   001554  D01C               	goto	i2l3757
  8707   001556  D03A               	goto	i2l3767
  8708   001558                     i2l3749:
  8709                           
  8710                           ; BSR set to: 0
  8711                           ;../framework/usb/src/usb_device.c: 1816:         {;../framework/usb/src/usb_device.c: 1
      +                          817:             *pDst++ = *inPipes[0].pSrc.bRom++;
  8712   001558  C009  FFF6         	movff	_inPipes,tblptrl	;volatile
  8713   00155C  C00A  FFF7         	movff	_inPipes+1,tblptrh	;volatile
  8714   001560  6AF8               	clrf	tblptru,c
  8715   001562  C07C  FFD9         	movff	_pDst,fsr2l
  8716   001566  C07D  FFDA         	movff	_pDst+1,fsr2h
  8717   00156A  0E02               	movlw	(high __ramtop+-1)
  8718   00156C  64F7               	cpfsgt	tblptrh,c
  8719   00156E  D003               	bra	i2u196_47
  8720   001570  0008               	tblrd		*
  8721   001572  50F5               	movf	tablat,w,c
  8722   001574  D005               	bra	i2u196_40
  8723   001576                     i2u196_47:
  8724   001576  CFF6 FFE1          	movff	tblptrl,fsr1l
  8725   00157A  CFF7 FFE2          	movff	tblptrh,fsr1h
  8726   00157E  50E7               	movf	indf1,w,c
  8727   001580                     i2u196_40:
  8728   001580  6EDF               	movwf	indf2,c
  8729   001582  4A09               	infsnz	_inPipes^0,f,c	;volatile
  8730   001584  2A0A               	incf	(_inPipes+1)^0,f,c	;volatile
  8731   001586  0100               	movlb	0	; () banked
  8732   001588  4B7C               	infsnz	_pDst& (0+255),f,b
  8733   00158A  2B7D               	incf	(_pDst+1)& (0+255),f,b
  8734                           
  8735                           ; BSR set to: 0
  8736                           ;../framework/usb/src/usb_device.c: 1818:             byteToSend--;
  8737   00158C  062E               	decf	USBCtrlTrfTxService@byteToSend^0,f,c
  8738   00158E                     i2l3757:
  8739                           
  8740                           ; BSR set to: 0
  8741                           ;../framework/usb/src/usb_device.c: 1815:         while(byteToSend)
  8742   00158E  502E               	movf	USBCtrlTrfTxService@byteToSend^0,w,c
  8743   001590  B4D8               	btfsc	status,2,c
  8744   001592  0012               	return	
  8745   001594  D7E1               	goto	i2l3749
  8746   001596                     i2l3759:
  8747                           
  8748                           ; BSR set to: 0
  8749                           ;../framework/usb/src/usb_device.c: 1824:         {;../framework/usb/src/usb_device.c: 1
      +                          825:             *pDst++ = *inPipes[0].pSrc.bRam++;
  8750   001596  C009  FFF6         	movff	_inPipes,tblptrl	;volatile
  8751   00159A  C00A  FFF7         	movff	_inPipes+1,tblptrh	;volatile
  8752   00159E  6AF8               	clrf	tblptru,c
  8753   0015A0  C07C  FFD9         	movff	_pDst,fsr2l
  8754   0015A4  C07D  FFDA         	movff	_pDst+1,fsr2h
  8755   0015A8  0E02               	movlw	(high __ramtop+-1)
  8756   0015AA  64F7               	cpfsgt	tblptrh,c
  8757   0015AC  D003               	bra	i2u198_47
  8758   0015AE  0008               	tblrd		*
  8759   0015B0  50F5               	movf	tablat,w,c
  8760   0015B2  D005               	bra	i2u198_40
  8761   0015B4                     i2u198_47:
  8762   0015B4  CFF6 FFE1          	movff	tblptrl,fsr1l
  8763   0015B8  CFF7 FFE2          	movff	tblptrh,fsr1h
  8764   0015BC  50E7               	movf	indf1,w,c
  8765   0015BE                     i2u198_40:
  8766   0015BE  6EDF               	movwf	indf2,c
  8767   0015C0  4A09               	infsnz	_inPipes^0,f,c	;volatile
  8768   0015C2  2A0A               	incf	(_inPipes+1)^0,f,c	;volatile
  8769   0015C4  0100               	movlb	0	; () banked
  8770   0015C6  4B7C               	infsnz	_pDst& (0+255),f,b
  8771   0015C8  2B7D               	incf	(_pDst+1)& (0+255),f,b
  8772                           
  8773                           ; BSR set to: 0
  8774                           ;../framework/usb/src/usb_device.c: 1826:             byteToSend--;
  8775   0015CA  062E               	decf	USBCtrlTrfTxService@byteToSend^0,f,c
  8776   0015CC                     i2l3767:
  8777                           
  8778                           ; BSR set to: 0
  8779                           ;../framework/usb/src/usb_device.c: 1823:         while(byteToSend)
  8780   0015CC  502E               	movf	USBCtrlTrfTxService@byteToSend^0,w,c
  8781   0015CE  B4D8               	btfsc	status,2,c
  8782   0015D0  0012               	return	
  8783   0015D2  D7E1               	goto	i2l3759
  8784   0015D4                     __end_of_USBCtrlTrfTxService:
  8785                           	callstack 0
  8786                           
  8787 ;; *************** function _API_Timer1_interrupt *****************
  8788 ;; Defined at:
  8789 ;;		line 67 in file "../demo_src/api_timer.c"
  8790 ;; Parameters:    Size  Location     Type
  8791 ;;		None
  8792 ;; Auto vars:     Size  Location     Type
  8793 ;;		None
  8794 ;; Return value:  Size  Location     Type
  8795 ;;                  1    wreg      void 
  8796 ;; Registers used:
  8797 ;;		wreg, status,2, status,0, cstack
  8798 ;; Tracked objects:
  8799 ;;		On entry : 0/0
  8800 ;;		On exit  : 0/0
  8801 ;;		Unchanged: 0/0
  8802 ;; Data sizes:     COMRAM   BANK0   BANK1  BANK2h  BANK2l
  8803 ;;      Params:         0       0       0       0       0
  8804 ;;      Locals:         0       0       0       0       0
  8805 ;;      Temps:          0       0       0       0       0
  8806 ;;      Totals:         0       0       0       0       0
  8807 ;;Total ram usage:        0 bytes
  8808 ;; Hardware stack levels used: 1
  8809 ;; Hardware stack levels required when called: 1
  8810 ;; This function calls:
  8811 ;;		_LED_Toggle
  8812 ;;		i2_Timer1_reset
  8813 ;; This function is called by:
  8814 ;;		_SYS_InterruptHigh
  8815 ;; This function uses a non-reentrant model
  8816 ;;
  8817                           
  8818                           	psect	text55
  8819   00207E                     __ptext55:
  8820                           	callstack 0
  8821   00207E                     _API_Timer1_interrupt:
  8822                           	callstack 25
  8823                           
  8824                           ;../demo_src/api_timer.c: 69:     if(PIR1bits.TMR1IF)
  8825                           
  8826                           ; BSR set to: 0
  8827                           ;incstack = 0
  8828   00207E  A09E               	btfss	158,0,c	;volatile
  8829   002080  0012               	return	
  8830                           
  8831                           ;../demo_src/api_timer.c: 70:     {;../demo_src/api_timer.c: 71:         g_tsys.system_t
      +                          ime++;
  8832   002082  0E01               	movlw	1
  8833   002084  0100               	movlb	0	; () banked
  8834   002086  276E               	addwf	_g_tsys& (0+255),f,b
  8835   002088  0E00               	movlw	0
  8836   00208A  236F               	addwfc	(_g_tsys+1)& (0+255),f,b
  8837   00208C  2370               	addwfc	(_g_tsys+2)& (0+255),f,b
  8838   00208E  2371               	addwfc	(_g_tsys+3)& (0+255),f,b
  8839                           
  8840                           ; BSR set to: 0
  8841                           ;../demo_src/api_timer.c: 74:         LED_Toggle(LED_D4);
  8842   002090  0E04               	movlw	4
  8843   002092  EC2E  F00F         	call	_LED_Toggle
  8844                           
  8845                           ;../demo_src/api_timer.c: 86:         PIR1bits.TMR1IF = 0;
  8846   002096  909E               	bcf	158,0,c	;volatile
  8847                           
  8848                           ;../demo_src/api_timer.c: 89:         Timer1_reset();
  8849   002098  ECAB  F010         	call	i2_Timer1_reset	;wreg free
  8850   00209C  0012               	return		;funcret
  8851   00209E                     __end_of_API_Timer1_interrupt:
  8852                           	callstack 0
  8853                           
  8854 ;; *************** function i2_Timer1_reset *****************
  8855 ;; Defined at:
  8856 ;;		line 98 in file "../demo_src/api_timer.c"
  8857 ;; Parameters:    Size  Location     Type
  8858 ;;		None
  8859 ;; Auto vars:     Size  Location     Type
  8860 ;;		None
  8861 ;; Return value:  Size  Location     Type
  8862 ;;                  1    wreg      void 
  8863 ;; Registers used:
  8864 ;;		wreg, status,2
  8865 ;; Tracked objects:
  8866 ;;		On entry : 0/0
  8867 ;;		On exit  : 0/0
  8868 ;;		Unchanged: 0/0
  8869 ;; Data sizes:     COMRAM   BANK0   BANK1  BANK2h  BANK2l
  8870 ;;      Params:         0       0       0       0       0
  8871 ;;      Locals:         0       0       0       0       0
  8872 ;;      Temps:          0       0       0       0       0
  8873 ;;      Totals:         0       0       0       0       0
  8874 ;;Total ram usage:        0 bytes
  8875 ;; Hardware stack levels used: 1
  8876 ;; This function calls:
  8877 ;;		Nothing
  8878 ;; This function is called by:
  8879 ;;		_API_Timer1_interrupt
  8880 ;; This function uses a non-reentrant model
  8881 ;;
  8882                           
  8883                           	psect	text56
  8884   002156                     __ptext56:
  8885                           	callstack 0
  8886   002156                     i2_Timer1_reset:
  8887                           	callstack 25
  8888                           
  8889                           ;../demo_src/api_timer.c: 100:     TMR1L = 0x24;
  8890                           
  8891                           ;incstack = 0
  8892   002156  0E24               	movlw	36
  8893   002158  6ECE               	movwf	206,c	;volatile
  8894                           
  8895                           ;../demo_src/api_timer.c: 101:     TMR1H = 0xfa;
  8896   00215A  0EFA               	movlw	250
  8897   00215C  6ECF               	movwf	207,c	;volatile
  8898   00215E  0012               	return		;funcret
  8899   002160                     __end_ofi2_Timer1_reset:
  8900                           	callstack 0
  8901                           
  8902 ;; *************** function _LED_Toggle *****************
  8903 ;; Defined at:
  8904 ;;		line 141 in file "../bsp/pic18f14k50/leds.c"
  8905 ;; Parameters:    Size  Location     Type
  8906 ;;  led             1    wreg     enum E2
  8907 ;; Auto vars:     Size  Location     Type
  8908 ;;  led             1    2[COMRAM] enum E2
  8909 ;; Return value:  Size  Location     Type
  8910 ;;                  1    wreg      void 
  8911 ;; Registers used:
  8912 ;;		wreg, status,2, status,0
  8913 ;; Tracked objects:
  8914 ;;		On entry : 3F/0
  8915 ;;		On exit  : 0/0
  8916 ;;		Unchanged: 0/0
  8917 ;; Data sizes:     COMRAM   BANK0   BANK1  BANK2h  BANK2l
  8918 ;;      Params:         0       0       0       0       0
  8919 ;;      Locals:         1       0       0       0       0
  8920 ;;      Temps:          2       0       0       0       0
  8921 ;;      Totals:         3       0       0       0       0
  8922 ;;Total ram usage:        3 bytes
  8923 ;; Hardware stack levels used: 1
  8924 ;; This function calls:
  8925 ;;		Nothing
  8926 ;; This function is called by:
  8927 ;;		_API_Timer1_interrupt
  8928 ;; This function uses a non-reentrant model
  8929 ;;
  8930                           
  8931                           	psect	text57
  8932   001E5C                     __ptext57:
  8933                           	callstack 0
  8934   001E5C                     _LED_Toggle:
  8935                           	callstack 25
  8936                           
  8937                           ;incstack = 0
  8938                           ;LED_Toggle@led stored from wreg
  8939   001E5C  6E30               	movwf	LED_Toggle@led^0,c
  8940                           
  8941                           ;../bsp/pic18f14k50/leds.c: 141: void LED_Toggle(LED led);../bsp/pic18f14k50/leds.c: 142
      +                          : {;../bsp/pic18f14k50/leds.c: 143:     switch(led)
  8942   001E5E  D008               	goto	i2l4353
  8943   001E60                     i2l44:
  8944                           
  8945                           ;../bsp/pic18f14k50/leds.c: 146:             LATCbits.LATC0 ^= 1;
  8946   001E60  708B               	btg	139,0,c	;volatile
  8947                           
  8948                           ;../bsp/pic18f14k50/leds.c: 147:             break;
  8949   001E62  0012               	return	
  8950   001E64                     i2l46:
  8951                           
  8952                           ;../bsp/pic18f14k50/leds.c: 150:             LATCbits.LATC1 ^= 1;
  8953   001E64  728B               	btg	139,1,c	;volatile
  8954                           
  8955                           ;../bsp/pic18f14k50/leds.c: 151:             break;
  8956   001E66  0012               	return	
  8957   001E68                     i2l47:
  8958                           
  8959                           ;../bsp/pic18f14k50/leds.c: 154:             LATCbits.LATC2 ^= 1;
  8960   001E68  748B               	btg	139,2,c	;volatile
  8961                           
  8962                           ;../bsp/pic18f14k50/leds.c: 155:             break;
  8963   001E6A  0012               	return	
  8964   001E6C                     i2l48:
  8965                           
  8966                           ;../bsp/pic18f14k50/leds.c: 158:             LATCbits.LATC3 ^= 1;
  8967   001E6C  768B               	btg	139,3,c	;volatile
  8968                           
  8969                           ;../bsp/pic18f14k50/leds.c: 159:             break;
  8970   001E6E  0012               	return	
  8971   001E70                     i2l4353:
  8972   001E70  5030               	movf	LED_Toggle@led^0,w,c
  8973   001E72  6E2E               	movwf	??_LED_Toggle^0,c
  8974   001E74  6A2F               	clrf	(??_LED_Toggle+1)^0,c
  8975                           
  8976                           ; Switch on 2 bytes has been partitioned into a top level switch of size 1, and 1 sub-sw
      +                          itches
  8977                           ; Switch size 1, requested type "simple"
  8978                           ; Number of cases is 1, Range of values is 0 to 0
  8979                           ; switch strategies available:
  8980                           ; Name         Instructions Cycles
  8981                           ; simple_byte            4     3 (average)
  8982                           ;	Chosen strategy is simple_byte
  8983   001E76  502F               	movf	(??_LED_Toggle+1)^0,w,c
  8984   001E78  0A00               	xorlw	0	; case 0
  8985   001E7A  A4D8               	btfss	status,2,c
  8986   001E7C  0012               	return	
  8987                           
  8988                           ; Switch size 1, requested type "simple"
  8989                           ; Number of cases is 5, Range of values is 0 to 4
  8990                           ; switch strategies available:
  8991                           ; Name         Instructions Cycles
  8992                           ; simple_byte           16     9 (average)
  8993                           ;	Chosen strategy is simple_byte
  8994   001E7E  502E               	movf	??_LED_Toggle^0,w,c
  8995   001E80  0A00               	xorlw	0	; case 0
  8996   001E82  B4D8               	btfsc	status,2,c
  8997   001E84  0012               	return	
  8998   001E86  0A01               	xorlw	1	; case 1
  8999   001E88  B4D8               	btfsc	status,2,c
  9000   001E8A  D7EA               	goto	i2l44
  9001   001E8C  0A03               	xorlw	3	; case 2
  9002   001E8E  B4D8               	btfsc	status,2,c
  9003   001E90  D7E9               	goto	i2l46
  9004   001E92  0A01               	xorlw	1	; case 3
  9005   001E94  B4D8               	btfsc	status,2,c
  9006   001E96  D7E8               	goto	i2l47
  9007   001E98  0A07               	xorlw	7	; case 4
  9008   001E9A  A4D8               	btfss	status,2,c
  9009   001E9C  0012               	return	
  9010   001E9E  D7E6               	goto	i2l48
  9011   001EA0                     __end_of_LED_Toggle:
  9012                           	callstack 0
  9013                           
  9014                           	psect	text58
  9015   000000                     __ptext58:
  9016                           	callstack 0
  9017                           
  9018                           	psect	rparam
  9019   000000                     
  9020                           	psect	temp
  9021   00005B                     btemp:
  9022                           	callstack 0
  9023   00005B                     	ds	1
  9024   000000                     int$flags	set	btemp
  9025   000000                     wtemp8	set	btemp+1
  9026   000000                     ttemp5	set	btemp+1
  9027   000000                     ttemp6	set	btemp+4
  9028   000000                     ttemp7	set	btemp+8
  9029                           
  9030                           	psect	idloc
  9031                           
  9032                           ;Config register IDLOC0 @ 0x200000
  9033                           ;	unspecified, using default values
  9034   200000                     	org	2097152
  9035   200000  FF                 	db	255
  9036                           
  9037                           ;Config register IDLOC1 @ 0x200001
  9038                           ;	unspecified, using default values
  9039   200001                     	org	2097153
  9040   200001  FF                 	db	255
  9041                           
  9042                           ;Config register IDLOC2 @ 0x200002
  9043                           ;	unspecified, using default values
  9044   200002                     	org	2097154
  9045   200002  FF                 	db	255
  9046                           
  9047                           ;Config register IDLOC3 @ 0x200003
  9048                           ;	unspecified, using default values
  9049   200003                     	org	2097155
  9050   200003  FF                 	db	255
  9051                           
  9052                           ;Config register IDLOC4 @ 0x200004
  9053                           ;	unspecified, using default values
  9054   200004                     	org	2097156
  9055   200004  FF                 	db	255
  9056                           
  9057                           ;Config register IDLOC5 @ 0x200005
  9058                           ;	unspecified, using default values
  9059   200005                     	org	2097157
  9060   200005  FF                 	db	255
  9061                           
  9062                           ;Config register IDLOC6 @ 0x200006
  9063                           ;	unspecified, using default values
  9064   200006                     	org	2097158
  9065   200006  FF                 	db	255
  9066                           
  9067                           ;Config register IDLOC7 @ 0x200007
  9068                           ;	unspecified, using default values
  9069   200007                     	org	2097159
  9070   200007  FF                 	db	255
  9071                           
  9072                           	psect	config
  9073                           
  9074                           ;Config register CONFIG1L @ 0x300000
  9075                           ;	CPU System Clock Selection bits
  9076                           ;	CPUDIV = NOCLKDIV, No CPU System Clock divide
  9077                           ;	USB Clock Selection bit
  9078                           ;	USBDIV = OFF, USB clock comes directly from the OSC1/OSC2 oscillator block; no divide
  9079   300000                     	org	3145728
  9080   300000  00                 	db	0
  9081                           
  9082                           ;Config register CONFIG1H @ 0x300001
  9083                           ;	Oscillator Selection bits
  9084                           ;	FOSC = HS, HS oscillator
  9085                           ;	4 X PLL Enable bit
  9086                           ;	PLLEN = ON, Oscillator multiplied by 4
  9087                           ;	Primary Clock Enable bit
  9088                           ;	PCLKEN = 0x1, unprogrammed default
  9089                           ;	Fail-Safe Clock Monitor Enable
  9090                           ;	FCMEN = OFF, Fail-Safe Clock Monitor disabled
  9091                           ;	Internal/External Oscillator Switchover bit
  9092                           ;	IESO = OFF, Oscillator Switchover mode disabled
  9093   300001                     	org	3145729
  9094   300001  32                 	db	50
  9095                           
  9096                           ;Config register CONFIG2L @ 0x300002
  9097                           ;	Power-up Timer Enable bit
  9098                           ;	PWRTEN = OFF, PWRT disabled
  9099                           ;	Brown-out Reset Enable bits
  9100                           ;	BOREN = OFF, Brown-out Reset disabled in hardware and software
  9101                           ;	Brown-out Reset Voltage bits
  9102                           ;	BORV = 30, VBOR set to 3.0 V nominal
  9103   300002                     	org	3145730
  9104   300002  01                 	db	1
  9105                           
  9106                           ;Config register CONFIG2H @ 0x300003
  9107                           ;	Watchdog Timer Enable bit
  9108                           ;	WDTEN = OFF, WDT is controlled by SWDTEN bit of the WDTCON register
  9109                           ;	Watchdog Timer Postscale Select bits
  9110                           ;	WDTPS = 32768, 1:32768
  9111   300003                     	org	3145731
  9112   300003  1E                 	db	30
  9113                           
  9114                           ; Padding undefined space
  9115   300004                     	org	3145732
  9116   300004  FF                 	db	255
  9117                           
  9118                           ;Config register CONFIG3H @ 0x300005
  9119                           ;	HFINTOSC Fast Start-up bit
  9120                           ;	HFOFST = OFF, The system clock is held off until the HFINTOSC is stable.
  9121                           ;	MCLR Pin Enable bit
  9122                           ;	MCLRE = OFF, RA3 input pin enabled; MCLR disabled
  9123   300005                     	org	3145733
  9124   300005  00                 	db	0
  9125                           
  9126                           ;Config register CONFIG4L @ 0x300006
  9127                           ;	Stack Full/Underflow Reset Enable bit
  9128                           ;	STVREN = ON, Stack full/underflow will cause Reset
  9129                           ;	Single-Supply ICSP Enable bit
  9130                           ;	LVP = OFF, Single-Supply ICSP disabled
  9131                           ;	Boot Block Size Select bit
  9132                           ;	BBSIZ = OFF, 1kW boot block size
  9133                           ;	Extended Instruction Set Enable bit
  9134                           ;	XINST = OFF, Instruction set extension and Indexed Addressing mode disabled (Legacy mo
      +                          de)
  9135                           ;	Background Debugger Enable bit
  9136                           ;	DEBUG = 0x1, unprogrammed default
  9137   300006                     	org	3145734
  9138   300006  81                 	db	129
  9139                           
  9140                           ; Padding undefined space
  9141   300007                     	org	3145735
  9142   300007  FF                 	db	255
  9143                           
  9144                           ;Config register CONFIG5L @ 0x300008
  9145                           ;	Code Protection bit
  9146                           ;	CP0 = OFF, Block 0 not code-protected
  9147                           ;	Code Protection bit
  9148                           ;	CP1 = OFF, Block 1 not code-protected
  9149   300008                     	org	3145736
  9150   300008  03                 	db	3
  9151                           
  9152                           ;Config register CONFIG5H @ 0x300009
  9153                           ;	Boot Block Code Protection bit
  9154                           ;	CPB = OFF, Boot block not code-protected
  9155                           ;	Data EEPROM Code Protection bit
  9156                           ;	CPD = 0x1, unprogrammed default
  9157   300009                     	org	3145737
  9158   300009  C0                 	db	192
  9159                           
  9160                           ;Config register CONFIG6L @ 0x30000A
  9161                           ;	Table Write Protection bit
  9162                           ;	WRT0 = OFF, Block 0 not write-protected
  9163                           ;	Table Write Protection bit
  9164                           ;	WRT1 = OFF, Block 1 not write-protected
  9165   30000A                     	org	3145738
  9166   30000A  03                 	db	3
  9167                           
  9168                           ;Config register CONFIG6H @ 0x30000B
  9169                           ;	Configuration Register Write Protection bit
  9170                           ;	WRTC = OFF, Configuration registers not write-protected
  9171                           ;	Boot Block Write Protection bit
  9172                           ;	WRTB = OFF, Boot block not write-protected
  9173                           ;	Data EEPROM Write Protection bit
  9174                           ;	WRTD = 0x1, unprogrammed default
  9175   30000B                     	org	3145739
  9176   30000B  E0                 	db	224
  9177                           
  9178                           ;Config register CONFIG7L @ 0x30000C
  9179                           ;	Table Read Protection bit
  9180                           ;	EBTR0 = OFF, Block 0 not protected from table reads executed in other blocks
  9181                           ;	Table Read Protection bit
  9182                           ;	EBTR1 = OFF, Block 1 not protected from table reads executed in other blocks
  9183   30000C                     	org	3145740
  9184   30000C  03                 	db	3
  9185                           
  9186                           ;Config register CONFIG7H @ 0x30000D
  9187                           ;	Boot Block Table Read Protection bit
  9188                           ;	EBTRB = OFF, Boot block not protected from table reads executed in other blocks
  9189   30000D                     	org	3145741
  9190   30000D  40                 	db	64
  9191                           tosu	equ	0xFFF
  9192                           tosh	equ	0xFFE
  9193                           tosl	equ	0xFFD
  9194                           stkptr	equ	0xFFC
  9195                           pclatu	equ	0xFFB
  9196                           pclath	equ	0xFFA
  9197                           pcl	equ	0xFF9
  9198                           tblptru	equ	0xFF8
  9199                           tblptrh	equ	0xFF7
  9200                           tblptrl	equ	0xFF6
  9201                           tablat	equ	0xFF5
  9202                           prodh	equ	0xFF4
  9203                           prodl	equ	0xFF3
  9204                           indf0	equ	0xFEF
  9205                           postinc0	equ	0xFEE
  9206                           postdec0	equ	0xFED
  9207                           preinc0	equ	0xFEC
  9208                           plusw0	equ	0xFEB
  9209                           fsr0h	equ	0xFEA
  9210                           fsr0l	equ	0xFE9
  9211                           wreg	equ	0xFE8
  9212                           indf1	equ	0xFE7
  9213                           postinc1	equ	0xFE6
  9214                           postdec1	equ	0xFE5
  9215                           preinc1	equ	0xFE4
  9216                           plusw1	equ	0xFE3
  9217                           fsr1h	equ	0xFE2
  9218                           fsr1l	equ	0xFE1
  9219                           bsr	equ	0xFE0
  9220                           indf2	equ	0xFDF
  9221                           postinc2	equ	0xFDE
  9222                           postdec2	equ	0xFDD
  9223                           preinc2	equ	0xFDC
  9224                           plusw2	equ	0xFDB
  9225                           fsr2h	equ	0xFDA
  9226                           fsr2l	equ	0xFD9
  9227                           status	equ	0xFD8

Data Sizes:
    Strings     0
    Constant    210
    Data        0
    BSS         83
    Persistent  0
    Stack       0

Auto Spaces:
    Space          Size  Autos    Used
    COMRAM           94     45      90
    BANK0           160     18      56
    BANK1           256      0       0
    BANK2h          183      0       0
    BANK2l           16      0       0

Pointer List with Targets:

    USER_USB_CALLBACK_EVENT_HANDLER@pdata	PTR void  size(2) Largest target is 767
		 -> RAM(DATA[767]), USTATcopy(COMRAM[1]), USBActiveConfiguration(COMRAM[1]), NULL(NULL[0]), 
		 -> BDT(BIGRAMl[32]), 

    memset@dest	PTR void  size(2) Largest target is 32
		 -> inputReport(BIGRAMhl[8]), USBAlternateInterface(COMRAM[1]), BDT(BIGRAMl[32]), UEP1(BITBIGSFRlll[1]), 

    memset@s	PTR unsigned char  size(2) Largest target is 32
		 -> inputReport(BIGRAMhl[8]), USBAlternateInterface(COMRAM[1]), BDT(BIGRAMl[32]), UEP1(BITBIGSFRlll[1]), 

    memcpy@d1	PTR void  size(2) Largest target is 8
		 -> SetupPkt(BIGRAMhl[8]), 

    memcpy@d	PTR unsigned char  size(2) Largest target is 8
		 -> SetupPkt(BIGRAMhl[8]), 

    memcpy@s1	PTR const void  size(2) Largest target is 767
		 -> CtrlTrfData(BIGRAMhl[8]), RAM(DATA[767]), SetupPkt(BIGRAMhl[8]), 

    memcpy@s	PTR const unsigned char  size(2) Largest target is 767
		 -> CtrlTrfData(BIGRAMhl[8]), RAM(DATA[767]), SetupPkt(BIGRAMhl[8]), 

    S2686$lastOUTTransmission	PTR void  size(2) Largest target is 767
		 -> RAM(DATA[767]), NULL(NULL[0]), BDT(BIGRAMl[32]), 

    keyboard.lastOUTTransmission	PTR void  size(2) Largest target is 767
		 -> RAM(DATA[767]), NULL(NULL[0]), BDT(BIGRAMl[32]), 

    S2686$lastINTransmission	PTR void  size(2) Largest target is 767
		 -> RAM(DATA[767]), NULL(NULL[0]), BDT(BIGRAMl[32]), 

    keyboard.lastINTransmission	PTR void  size(2) Largest target is 767
		 -> RAM(DATA[767]), NULL(NULL[0]), BDT(BIGRAMl[32]), 

    USBStdFeatureReqHandler@pUEP	PTR unsigned char  size(2) Largest target is 1
		 -> UEP0(BITBIGSFRlll[1]), 

    USBStdFeatureReqHandler@p	PTR struct __BDT size(2) Largest target is 767
		 -> RAM(DATA[767]), NULL(NULL[0]), BDT(BIGRAMl[32]), 

    sp__memcpy	PTR void  size(2) Largest target is 8
		 -> SetupPkt(BIGRAMhl[8]), 

    USBStdGetStatusHandler@p	PTR struct __BDT size(2) Largest target is 767
		 -> RAM(DATA[767]), NULL(NULL[0]), BDT(BIGRAMl[32]), 

    pDst	PTR volatile unsigned char  size(2) Largest target is 8
		 -> CtrlTrfData(BIGRAMhl[8]), NULL(NULL[0]), 

    USBConfigureEndpoint@handle	PTR volatile struct __BDT size(2) Largest target is 32
		 -> BDT(BIGRAMl[32]), 

    pBDTEntryEP0OutCurrent	PTR volatile struct __BDT size(2) Largest target is 32
		 -> NULL(NULL[0]), BDT(BIGRAMl[32]), 

    pBDTEntryEP0OutNext	PTR volatile struct __BDT size(2) Largest target is 767
		 -> RAM(DATA[767]), NULL(NULL[0]), BDT(BIGRAMl[32]), 

    USBTransferOnePacket@data	PTR unsigned char  size(2) Largest target is 8
		 -> inputReport(BIGRAMhl[8]), outputReport(BIGRAMhh[1]), 

    sp__USBTransferOnePacket	PTR void  size(2) Largest target is 767
		 -> RAM(DATA[767]), NULL(NULL[0]), BDT(BIGRAMl[32]), 

    USBTransferOnePacket@handle	PTR volatile struct __BDT size(2) Largest target is 767
		 -> RAM(DATA[767]), NULL(NULL[0]), BDT(BIGRAMl[32]), 

    USBEnableEndpoint@p	PTR unsigned char  size(2) Largest target is 1
		 -> UEP0(BITBIGSFRlll[1]), 

    pBDTEntryOut	PTR volatile struct __BDT[2] size(2) Largest target is 767
		 -> RAM(DATA[767]), NULL(NULL[0]), BDT(BIGRAMl[32]), 

    pBDTEntryIn	PTR volatile struct __BDT[2] size(2) Largest target is 767
		 -> RAM(DATA[767]), NULL(NULL[0]), BDT(BIGRAMl[32]), 

    S691$pFunc	PTR FTN()void  size(2) Largest target is 1
		 -> USBHIDCBSetReportComplete(), 

    outPipes.pFunc	PTR FTN()void  size(2) Largest target is 1
		 -> USBHIDCBSetReportComplete(), 

    S681$wRam	PTR unsigned short  size(2) Largest target is 0

    outPipes.pDst.wRam	PTR unsigned short  size(2) Largest target is 0

    S681$bRam	PTR unsigned char  size(2) Largest target is 0

    outPipes.pDst.bRam	PTR unsigned char  size(2) Largest target is 0

    S657$wRom	PTR const unsigned short  size(2) Largest target is 0

    inPipes.pSrc.wRom	PTR const unsigned short  size(2) Largest target is 0

    S657$wRam	PTR unsigned short  size(2) Largest target is 0

    inPipes.pSrc.wRam	PTR unsigned short  size(2) Largest target is 0

    S657$bRom	PTR const unsigned char  size(2) Largest target is 0

    inPipes.pSrc.bRom	PTR const unsigned char  size(2) Largest target is 0

    S657$bRam	PTR unsigned char  size(2) Largest target is 0

    inPipes.pSrc.bRam	PTR unsigned char  size(2) Largest target is 0

    sp__memset	PTR void  size(2) Largest target is 32
		 -> inputReport(BIGRAMhl[8]), USBAlternateInterface(COMRAM[1]), BDT(BIGRAMl[32]), UEP1(BITBIGSFRlll[1]), 

    USB_SD_Ptr	const PTR const unsigned char [3] size(1) Largest target is 52
		 -> sd002(CODE[28]), sd001(CODE[52]), sd000(CODE[4]), 

    USB_CD_Ptr	const PTR const unsigned char [1] size(1) Largest target is 41
		 -> configDescriptor1(CODE[41]), 


Critical Paths under _main in COMRAM

    None.

Critical Paths under _SYS_InterruptHigh in COMRAM

    _SYS_InterruptHigh->_USBDeviceTasks
    _USBDeviceTasks->_USBCtrlEPService
    i2_USBDeviceInit->i2_memset
    _USBWakeFromSuspend->_USER_USB_CALLBACK_EVENT_HANDLER
    _USBSuspend->_USER_USB_CALLBACK_EVENT_HANDLER
    _USBCtrlTrfSetupHandler->_USBCheckStdRequest
    _USBCtrlEPAllowDataStage->_USBCtrlTrfTxService
    _USBCheckStdRequest->_USBStdFeatureReqHandler
    _USBStdSetCfgHandler->_USER_USB_CALLBACK_EVENT_HANDLER
    _USBStdFeatureReqHandler->_USER_USB_CALLBACK_EVENT_HANDLER
    i2_SYSTEM_Initialize->i2_BUTTON_Enable
    i2_SYSTEM_Initialize->i2_LED_Enable
    _USBCheckHIDRequest->_USBHIDCBSetIdleRateHandler
    _APP_LEDUpdateUSBStatus->i2_LED_Off
    _APP_LEDUpdateUSBStatus->i2_LED_On
    _APP_KeyboardInit->_USBEnableEndpoint
    _USBEnableEndpoint->_USBConfigureEndpoint
    _USBCtrlTrfOutHandler->_USBCtrlTrfRxService
    i2_APP_KeyboardProcessOutputReport->i2_LED_Off
    i2_APP_KeyboardProcessOutputReport->i2_LED_On
    _API_Timer1_interrupt->_LED_Toggle

Critical Paths under _main in BANK0

    _main->_APP_KeyboardTasks
    _USBDeviceInit->_memset
    _SYSTEM_Initialize->_BUTTON_Enable
    _SYSTEM_Initialize->_LED_Enable
    _APP_KeyboardTasks->_memset
    _APP_KeyboardProcessOutputReport->_LED_Off
    _APP_KeyboardProcessOutputReport->_LED_On

Critical Paths under _SYS_InterruptHigh in BANK0

    None.

Critical Paths under _main in BANK1

    None.

Critical Paths under _SYS_InterruptHigh in BANK1

    None.

Critical Paths under _main in BANK2h

    None.

Critical Paths under _SYS_InterruptHigh in BANK2h

    None.

Critical Paths under _main in BANK2l

    None.

Critical Paths under _SYS_InterruptHigh in BANK2l

    None.

Call Graph Tables:

 ---------------------------------------------------------------------------------
 (Depth) Function   	        Calls       Base Space   Used Autos Params    Refs
 ---------------------------------------------------------------------------------
 (0) _main                                                 0     0      0    6638
                    _API_Timer1_init
                   _API_Timer1_start
                  _APP_KeyboardTasks
                         _LED_Enable
                  _SYSTEM_Initialize
                    _USBDeviceAttach
                      _USBDeviceInit
 ---------------------------------------------------------------------------------
 (1) _USBDeviceInit                                        1     1      0    2553
                                             12 BANK0      1     1      0
                             _memset
 ---------------------------------------------------------------------------------
 (1) _USBDeviceAttach                                      0     0      0       0
 ---------------------------------------------------------------------------------
 (1) _SYSTEM_Initialize                                    3     3      0      75
                                              3 BANK0      3     3      0
                      _BUTTON_Enable
                         _LED_Enable
 ---------------------------------------------------------------------------------
 (2) _LED_Enable                                           3     3      0      22
                                              0 BANK0      3     3      0
 ---------------------------------------------------------------------------------
 (2) _BUTTON_Enable                                        3     3      0      22
                                              0 BANK0      3     3      0
 ---------------------------------------------------------------------------------
 (1) _APP_KeyboardTasks                                    6     6      0    3988
                                             12 BANK0      6     6      0
    _APP_KeyboardProcessOutputReport
                   _BUTTON_IsPressed
               _USBTransferOnePacket
                             _memset
 ---------------------------------------------------------------------------------
 (2) _memset                                              12     6      6    2262
                                              0 BANK0     12     6      6
 ---------------------------------------------------------------------------------
 (2) _USBTransferOnePacket                                 9     5      4    1364
                                              0 BANK0      9     5      4
 ---------------------------------------------------------------------------------
 (2) _BUTTON_IsPressed                                     3     3      0      31
                                              0 BANK0      3     3      0
 ---------------------------------------------------------------------------------
 (2) _APP_KeyboardProcessOutputReport                      0     0      0      62
                            _LED_Off
                             _LED_On
 ---------------------------------------------------------------------------------
 (3) _LED_On                                               3     3      0      31
                                              0 BANK0      3     3      0
 ---------------------------------------------------------------------------------
 (3) _LED_Off                                              3     3      0      31
                                              0 BANK0      3     3      0
 ---------------------------------------------------------------------------------
 (1) _API_Timer1_start                                     0     0      0       0
 ---------------------------------------------------------------------------------
 (1) _API_Timer1_init                                      0     0      0       0
                       _Timer1_reset
 ---------------------------------------------------------------------------------
 (2) _Timer1_reset                                         0     0      0       0
 ---------------------------------------------------------------------------------
 Estimated maximum stack depth 3
 ---------------------------------------------------------------------------------
 (Depth) Function   	        Calls       Base Space   Used Autos Params    Refs
 ---------------------------------------------------------------------------------
 (4) _SYS_InterruptHigh                                   12    12      0   31989
                                             33 COMRAM    12    12      0
               _API_Timer1_interrupt
                     _USBDeviceTasks
 ---------------------------------------------------------------------------------
 (5) _USBDeviceTasks                                       1     1      0   31967
                                             32 COMRAM     1     1      0
          _USBCtrlEPAllowStatusStage
                   _USBCtrlEPService
      _USBIncrement1msInternalTimers
                    _USBStallHandler
                         _USBSuspend
                 _USBWakeFromSuspend
    _USER_USB_CALLBACK_EVENT_HANDLER
                    i2_USBDeviceInit
 ---------------------------------------------------------------------------------
 (6) i2_USBDeviceInit                                      1     1      0    1233
                                             12 COMRAM     1     1      0
                           i2_memset
 ---------------------------------------------------------------------------------
 (6) _USBWakeFromSuspend                                   0     0      0    4033
    _USER_USB_CALLBACK_EVENT_HANDLER
 ---------------------------------------------------------------------------------
 (6) _USBSuspend                                           0     0      0    4033
    _USER_USB_CALLBACK_EVENT_HANDLER
 ---------------------------------------------------------------------------------
 (6) _USBStallHandler                                      1     1      0       0
                                              0 COMRAM     1     1      0
 ---------------------------------------------------------------------------------
 (6) _USBIncrement1msInternalTimers                        0     0      0       0
 ---------------------------------------------------------------------------------
 (6) _USBCtrlEPService                                     1     1      0   18589
                                             31 COMRAM     1     1      0
                _USBCtrlTrfInHandler
               _USBCtrlTrfOutHandler
             _USBCtrlTrfSetupHandler
                             _memcpy
 ---------------------------------------------------------------------------------
 (7) _memcpy                                              11     5      6     410
                                              0 COMRAM    11     5      6
 ---------------------------------------------------------------------------------
 (7) _USBCtrlTrfSetupHandler                               0     0      0   17862
                 _USBCheckStdRequest
           _USBCtrlEPServiceComplete
    _USER_USB_CALLBACK_EVENT_HANDLER
 ---------------------------------------------------------------------------------
 (8) _USBCtrlEPServiceComplete                             0     0      0      92
            _USBCtrlEPAllowDataStage
          _USBCtrlEPAllowStatusStage
 ---------------------------------------------------------------------------------
 (9) _USBCtrlEPAllowDataStage                              0     0      0      92
                _USBCtrlTrfTxService
 ---------------------------------------------------------------------------------
 (8) _USBCheckStdRequest                                   2     2      0   13737
                                             29 COMRAM     2     2      0
            _USBStdFeatureReqHandler
                _USBStdGetDscHandler
             _USBStdGetStatusHandler
                _USBStdSetCfgHandler
    _USER_USB_CALLBACK_EVENT_HANDLER
 ---------------------------------------------------------------------------------
 (9) _USBStdSetCfgHandler                                  1     1      0    5154
                                             22 COMRAM     1     1      0
    _USER_USB_CALLBACK_EVENT_HANDLER
                           i2_memset
 ---------------------------------------------------------------------------------
 (7) i2_memset                                            12     6      6    1031
                                              0 COMRAM    12     6      6
 ---------------------------------------------------------------------------------
 (9) _USBStdGetStatusHandler                               4     4      0      46
                                              0 COMRAM     4     4      0
 ---------------------------------------------------------------------------------
 (9) _USBStdGetDscHandler                                  2     2      0       0
                                              0 COMRAM     2     2      0
 ---------------------------------------------------------------------------------
 (9) _USBStdFeatureReqHandler                              7     7      0    4504
                                             22 COMRAM     7     7      0
    _USER_USB_CALLBACK_EVENT_HANDLER
 ---------------------------------------------------------------------------------
 (6) _USER_USB_CALLBACK_EVENT_HANDLER                      8     2      6    4033
                                             14 COMRAM     8     2      6
                   _APP_KeyboardInit
             _APP_LEDUpdateUSBStatus
                 _USBCheckHIDRequest
                i2_SYSTEM_Initialize
 ---------------------------------------------------------------------------------
 (7) i2_SYSTEM_Initialize                                  3     3      0      66
                                              3 COMRAM     3     3      0
                    i2_BUTTON_Enable
                       i2_LED_Enable
 ---------------------------------------------------------------------------------
 (8) i2_LED_Enable                                         3     3      0      22
                                              0 COMRAM     3     3      0
 ---------------------------------------------------------------------------------
 (8) i2_BUTTON_Enable                                      3     3      0      22
                                              0 COMRAM     3     3      0
 ---------------------------------------------------------------------------------
 (7) _USBCheckHIDRequest                                   2     2      0     133
                                              2 COMRAM     2     2      0
         _USBHIDCBSetIdleRateHandler
           _USBHIDCBSetReportHandler
 ---------------------------------------------------------------------------------
 (8) _USBHIDCBSetReportHandler                             0     0      0       0
 ---------------------------------------------------------------------------------
 (8) _USBHIDCBSetIdleRateHandler                           2     1      1     133
                                              0 COMRAM     2     1      1
 ---------------------------------------------------------------------------------
 (7) _APP_LEDUpdateUSBStatus                               2     2      0      44
                                              3 COMRAM     2     2      0
                          i2_LED_Off
                           i2_LED_On
 ---------------------------------------------------------------------------------
 (7) _APP_KeyboardInit                                     0     0      0    1098
                  _USBEnableEndpoint
             i2_USBTransferOnePacket
 ---------------------------------------------------------------------------------
 (8) i2_USBTransferOnePacket                               9     5      4     454
                                              0 COMRAM     9     5      4
 ---------------------------------------------------------------------------------
 (8) _USBEnableEndpoint                                    4     3      1     644
                                             10 COMRAM     4     3      1
               _USBConfigureEndpoint
 ---------------------------------------------------------------------------------
 (9) _USBConfigureEndpoint                                10     9      1     400
                                              0 COMRAM    10     9      1
 ---------------------------------------------------------------------------------
 (7) _USBCtrlTrfOutHandler                                 0     0      0     158
                _USBCtrlTrfRxService
 ---------------------------------------------------------------------------------
 (8) _USBCtrlTrfRxService                                  2     2      0     158
                                              3 COMRAM     2     2      0
          _USBCtrlEPAllowStatusStage
          _USBHIDCBSetReportComplete *
 ---------------------------------------------------------------------------------
 (9) _USBCtrlEPAllowStatusStage                            0     0      0       0
 ---------------------------------------------------------------------------------
 (7) _USBCtrlTrfInHandler                                  1     1      0     159
                                              3 COMRAM     1     1      0
                _USBCtrlTrfTxService
          _USBHIDCBSetReportComplete *
 ---------------------------------------------------------------------------------
 (9) _USBHIDCBSetReportComplete                            0     0      0      44
  i2_APP_KeyboardProcessOutputReport
 ---------------------------------------------------------------------------------
 (10) i2_APP_KeyboardProcessOutputReport                   0     0      0      44
                          i2_LED_Off
                           i2_LED_On
 ---------------------------------------------------------------------------------
 (8) i2_LED_On                                             3     3      0      22
                                              0 COMRAM     3     3      0
 ---------------------------------------------------------------------------------
 (8) i2_LED_Off                                            3     3      0      22
                                              0 COMRAM     3     3      0
 ---------------------------------------------------------------------------------
 (10) _USBCtrlTrfTxService                                 1     1      0      92
                                              0 COMRAM     1     1      0
 ---------------------------------------------------------------------------------
 (5) _API_Timer1_interrupt                                 0     0      0      22
                         _LED_Toggle
                     i2_Timer1_reset
 ---------------------------------------------------------------------------------
 (6) i2_Timer1_reset                                       0     0      0       0
 ---------------------------------------------------------------------------------
 (6) _LED_Toggle                                           3     3      0      22
                                              0 COMRAM     3     3      0
 ---------------------------------------------------------------------------------
 Estimated maximum stack depth 10
 ---------------------------------------------------------------------------------

 Call Graph Graphs:

 _main (ROOT)
   _API_Timer1_init
     _Timer1_reset
   _API_Timer1_start
   _APP_KeyboardTasks
     _APP_KeyboardProcessOutputReport
       _LED_Off
       _LED_On
     _BUTTON_IsPressed
     _USBTransferOnePacket
     _memset
   _LED_Enable
   _SYSTEM_Initialize
     _BUTTON_Enable
     _LED_Enable
   _USBDeviceAttach
   _USBDeviceInit
     _memset

 _SYS_InterruptHigh (ROOT)
   _API_Timer1_interrupt
     _LED_Toggle
     i2_Timer1_reset
   _USBDeviceTasks
     _USBCtrlEPAllowStatusStage
     _USBCtrlEPService
       _USBCtrlTrfInHandler
         _USBCtrlTrfTxService
         _USBHIDCBSetReportComplete *
           i2_APP_KeyboardProcessOutputReport
             i2_LED_Off
             i2_LED_On
       _USBCtrlTrfOutHandler
         _USBCtrlTrfRxService
           _USBCtrlEPAllowStatusStage
           _USBHIDCBSetReportComplete *
       _USBCtrlTrfSetupHandler
         _USBCheckStdRequest
           _USBStdFeatureReqHandler
             _USER_USB_CALLBACK_EVENT_HANDLER
               _APP_KeyboardInit
                 _USBEnableEndpoint
                   _USBConfigureEndpoint
                 i2_USBTransferOnePacket
               _APP_LEDUpdateUSBStatus
                 i2_LED_Off
                 i2_LED_On
               _USBCheckHIDRequest
                 _USBHIDCBSetIdleRateHandler
                 _USBHIDCBSetReportHandler
               i2_SYSTEM_Initialize
                 i2_BUTTON_Enable
                 i2_LED_Enable
           _USBStdGetDscHandler
           _USBStdGetStatusHandler
           _USBStdSetCfgHandler
             _USER_USB_CALLBACK_EVENT_HANDLER
             i2_memset
           _USER_USB_CALLBACK_EVENT_HANDLER
         _USBCtrlEPServiceComplete
           _USBCtrlEPAllowDataStage
             _USBCtrlTrfTxService
           _USBCtrlEPAllowStatusStage
         _USER_USB_CALLBACK_EVENT_HANDLER
       _memcpy
     _USBIncrement1msInternalTimers
     _USBStallHandler
     _USBSuspend
       _USER_USB_CALLBACK_EVENT_HANDLER
     _USBWakeFromSuspend
       _USER_USB_CALLBACK_EVENT_HANDLER
     _USER_USB_CALLBACK_EVENT_HANDLER
     i2_USBDeviceInit
       i2_memset

 Address spaces:
Name               Size   Autos  Total    Cost      Usage
BIGRAMl            1FF      0       0      28        0.0%
EEDATA             100      0       0       0        0.0%
BITBANK1           100      0       0       6        0.0%
BANK1              100      0       0       7        0.0%
BIGRAMhh            B7      0       0      26        0.0%
BANK2h              B7      0       0      10        0.0%
BITBANK2h           B7      0       0       8        0.0%
BITBANK0            A0      0       0       4        0.0%
BANK0               A0     12      38       5       35.0%
BITCOMRAM           5E      0       0       0        0.0%
COMRAM              5E     2D      5A       1       95.7%
BITBIGSFRhhhhhh     21      0       0      13        0.0%
BITBIGSFRlhhh       1A      0       0      22        0.0%
BIGRAMhl            10      0       0      27        0.0%
BITBANK2l           10      0       0       9        0.0%
BANK2l              10      0       0      11        0.0%
BITBIGSFRhhhhhh      D      0       0      12        0.0%
BITBIGSFRhl          A      0       0      21        0.0%
BITBIGSFRhhhhlh      9      0       0      16        0.0%
BITBIGSFRhhhlh       8      0       0      17        0.0%
BITBIGSFRhhhhhh      8      0       0      14        0.0%
BITBIGSFRhhhlll      8      0       0      19        0.0%
BITBIGSFRhhhhhl      7      0       0      15        0.0%
BITBIGSFRhhl         7      0       0      20        0.0%
BITBIGSFRlll         6      0       0      24        0.0%
BITBIGSFRllh         2      0       0      23        0.0%
BITBIGSFRhhhllh      1      0       0      18        0.0%
BIGSFR               0      0       0     200        0.0%
BITSFR_1             0      0       0     200        0.0%
SFR_1                0      0       0     200        0.0%
BITSFR               0      0       0     200        0.0%
SFR                  0      0       0     200        0.0%
STACK                0      0       0       2        0.0%
NULL                 0      0       0       0        0.0%
ABS                  0      0      92      25        0.0%
DATA                 0      0      92       3        0.0%
CODE                 0      0       0       0        0.0%


Microchip Technology PIC18 Macro Assembler V2.40 build 20220703182018 
Symbol Table                                                                                   Fri Feb 09 18:32:30 2024

                                _USB_SD_Ptr 0301                                           l6 1F52  
                                        l24 1C7E                                          l34 1CC6  
                                        l26 1C82                                          l27 1C86  
                                        l36 1CCA                                          l28 1C8A  
                                        l37 1CCE                                          l38 1CD2  
                                        l64 1C36                                          l66 1C3A  
                                        l67 1C3E                                          l68 1C42  
                               ?_LED_Enable 002E                               _USBDeviceInit 0B18  
                            i2_Timer1_reset 2156                          _USBCheckHIDRequest 0F9C  
          __end_of_USBHIDCBSetReportHandler 20F4        USER_USB_CALLBACK_EVENT_HANDLER@event 003C  
      USER_USB_CALLBACK_EVENT_HANDLER@pdata 003E                                 ?_LED_Toggle 002E  
               __end_of_USBStdGetDscHandler 0E84                                         l387 1FDE  
                                       l388 1FDC                                         l750 05FA  
                                       l755 0606                                         _BDT 000200  
                                       l765 06C0                                         l757 0646  
                                       l758 0662                                         _UIE 000F60  
                                       _UIR 000F62                      _APP_LEDUpdateUSBStatus 19C4  
                                _USBSuspend 1FE8                        USBStdSetCfgHandler@i 0044  
                                       prod 000FF3                                         tosl 000FFD  
                                       wreg 000FE8                              _USBDeviceTasks 0E84  
                       ?_USBCheckHIDRequest 002E                              _USBDeviceState 002A  
                             _BUTTON_Enable 209E                       ??_USBCtrlTrfRxService 0031  
                  USBEnableEndpoint@options 0038                             __end_of_LED_Off 1D08  
                USBConfigureEndpoint@handle 0036                                        l5401 1C46  
                                      l5431 0868                                        l5433 089A  
                                      l5425 0830                                        l5521 0B86  
                                      l5347 1C8E                                        l5419 07CC  
                                      l5453 10D6                                        l5445 10B0  
                                      l5509 0B5A                                        l5359 1CD6  
                                      l5375 1F62                                        l5439 08B0  
                                      l5631 06C8                                        l5369 1F5E  
                                      l5465 114A                                        l5625 06BC  
                                      l5481 1EA6                                        l5537 0BB6  
                                      l5475 2102                                        l5635 06EA  
                                      l5645 0712                                        l5653 0750  
                                      l5485 1EBA                                        l5675 2058  
                                      l5599 060E                       ??i2_SYSTEM_Initialize 0031  
                                      u3360 1F5A                                        u3630 06F2  
                                      u3580 0676                                        u3671 0722  
                                      u3690 0764                                        i2l24 1DD8  
                                      i2l34 1E1C                                        i2l26 1DDC  
                                      i2l27 1DE0                                        i2l44 1E60  
                                      i2l36 1E20                                        i2l28 1DE4  
                                      i2l37 1E24                                        i2l46 1E64  
                                      i2l38 1E28                                        i2l47 1E68  
                     ??_USBCtrlTrfTxService 002E                                        i2l48 1E6C  
                                      i2l64 1D94                                        i2l66 1D98  
                                      i2l67 1D9C                                        i2l68 1DA0  
                                      _UCFG 000F61                                        _UEP0 000F53  
                                      _UEP1 000F54                                        _UEIE 000F5B  
                                      _UEIR 000F5F                                        _UCON 000F64  
    USBStdFeatureReqHandler@current_ep_data 0048                                        _pDst 007C  
                                      _main 203C                    ??i2_USBTransferOnePacket 0032  
                                      fsr1h 000FE2                                        fsr2h 000FDA  
                                      indf1 000FE7                                        indf2 000FDF  
                                      fsr1l 000FE1                                        fsr2l 000FD9  
                           _USBDeviceAttach 1FB6                                        btemp 005B  
                                      prodh 000FF4                                        prodl 000FF3  
                                      start 0078                        ??_USBCheckHIDRequest 0030  
                __end_of_USBCheckStdRequest 1508                      ??_USBCtrlTrfOutHandler 0033  
                             _LocalSOFCount 0078                                ___param_bank 000000  
                 ??_USBStdFeatureReqHandler 0044                      __end_ofi2_Timer1_reset 2160  
                  ??_USBStdGetStatusHandler 002E                              ?_USBDeviceInit 002E  
                                     ?_main 002E                                       _T1CON 000FCD  
                    __end_of_USBDeviceTasks 0F9C                   ?_USBCtrlEPServiceComplete 002E  
                                     i2l412 11FC                                       i2l350 0F42  
                                     i2l338 0EAC                                       i2l524 1404  
                                     i2l348 0F3A                            __end_ofi2_LED_On 1E18  
                                     i2l480 1778                                       i2l553 03F8  
                                     i2l538 1444                                       i2l475 1768  
                                     i2l547 148A                                       i2l564 04EA  
                                     i2l478 17EC                                       i2l479 1774  
                                     i2l745 1BF0                                       i2l489 1D48  
                                     _UADDR 000F5C                                       _RCREG 000FAE  
                                     _RCSTA 000FAB                                       _TMR1H 000FCF  
                                     _TMR1L 000FCE                                       _USTAT 000F63  
                                     _TXREG 000FAD                                       _TXSTA 000FAC  
                              _outputReport 000248          __end_of_USBHIDCBSetIdleRateHandler 2132  
                _USBHIDCBSetIdleRateHandler 2120                              ?_BUTTON_Enable 002E  
           __end_of_USBCtrlEPAllowDataStage 19C4                                       _sd000 03CF  
                                     _sd001 0344                                       _sd002 03A1  
            ?_USBIncrement1msInternalTimers 002E                                       pclath 000FFA  
                                     pclatu 000FFB                                       tablat 000FF5  
                                     plusw1 000FE3                                       plusw2 000FDB  
                                     ttemp5 005C                                       ttemp6 005F  
                                     ttemp7 0063                                       status 000FD8  
                                     wtemp8 005C                            __end_ofi2_memset 09EC  
                           __initialization 2016                                __end_of_main 205E  
                           ?i2_Timer1_reset 002E                                      ??_main 0098  
                             __activetblptr 000002                             ?_USBDeviceTasks 002E  
                               ?_USBSuspend 002E                                   ??_LED_Off 0086  
                  _USBHIDCBSetReportHandler 20D8                     __end_of_USBDeviceAttach 1FE8  
                                    _ADCON1 000FC1                                      _ADCON2 000FC0  
                                    _ADRESH 000FC4                                      _ADRESL 000FC3  
                    SYSTEM_Initialize@state 008B                                      i2l4011 0486  
                                    i2l4003 044E                                      _LED_On 1C78  
                                    i2l4041 055C                                      i2l4017 04A0  
                                    i2l2521 1D46                                      i2l4131 0A36  
                                    i2l4027 04DA                                      i2l3501 1DE8  
                                    i2l4301 138A                                      i2l4125 0A18  
                                    i2l4029 0504                                      i2l3511 1E2C  
                                    i2l4143 0A90                                      i2l4055 05C2  
                                    i2l4039 0550                                      i2l4313 13CA  
                                    i2l3521 1DA4                                      i2l4057 05CE  
                                    i2l4049 0588                                      i2l4401 1FAA  
                                    i2l4147 0AAA                                      i2l3531 127C  
                                    i2l4171 1452                                      i2l3605 1BF8  
                                    i2l3621 0FB8                                      i2l4181 1468  
                                    i2l4173 1458                                      i2l4077 11A6  
                                    i2l4237 1D5E                                      i2l4245 1D7E  
                                    i2l4319 13EA                                      i2l3471 1F32  
                                    i2l3551 1316                                      i2l3711 1840  
                                    i2l3703 1818                                      i2l4183 146E  
                                    i2l4503 0C7E                                      i2l4353 1E70  
                                    i2l4329 142E                                      i2l3457 1B48  
                                    i2l3705 1822                                      i2l4185 1474  
                                    i2l4169 144C                                      i2l4097 1224  
                                    i2l3467 1F24                                      i2l3539 12A2  
                                    i2l3571 19F2                                      i2l3563 19D0  
                                    i2l3651 1034                                      i2l3643 101A  
                                    i2l3627 0FD2                                      i2l3707 182E  
                                    i2l3715 1846                                      i2l4195 149A  
                                    i2l4443 1918                                      i2l4531 0CDA  
                                    i2l4515 0CAA                                      i2l3821 16E0  
                                    i2l4285 1BCE                                      i2l4277 1B84  
                                    i2l3645 1020                                      i2l3629 0FD8  
                                    i2l3637 0FEE                                      i2l3709 183A  
                                    i2l3805 09E2                                      i2l4445 191E  
                                    i2l3735 1526                                      i2l3583 1A2A  
                                    i2l3575 1A08                                      i2l3591 1A50  
                                    i2l3567 19E0                                      i2l3663 105C  
                                    i2l3639 100C                                      i2l4199 14B8  
                                    i2l3657 1048                                      i2l3905 0D74  
                                    i2l4721 0F30                                      i2l4713 0F0A  
                                    i2l3739 1530                                      i2l4299 1386  
                                    i2l3579 1A18                                      i2l3931 0E60  
                                    i2l3851 197C                                      i2l4707 0F00  
                                    i2l3749 1558                                      i2l3757 158E  
                                    i2l3773 2118                                      i2l3589 1A38  
                                    i2l3669 1066                                      i2l3685 1EE0  
                                    i2l3925 0E54                                      i2l3917 0E06  
                                    i2l3909 0D8A                                      i2l4741 0F60  
                                    i2l4661 0E98                                      i2l3759 1596  
                                    i2l3767 15CC                                      i2l3927 0E5A  
                                    i2l3919 0E0C                                      i2l3791 0962  
                                    i2l3855 1992                                      i2l4399 1FA8  
                                    i2l3689 1EF4                                      i2l3697 1802  
                                    i2l3953 1794                                      i2l3785 08FE  
                                    i2l6195 185E                                      i2l3963 17C8  
                                    i2l3875 1614                                      i2l4747 0F76  
                                    i2l4683 0EBE                                      i2l6197 1892  
                                    i2l3797 099A                                      i2l4749 0F90  
                                    i2l4669 0EA4                                      i2l3799 09CC  
                                    i2l4695 0EEC                                      i2l3897 1678  
                                    i2l4689 0EC8                                      i2l3987 03F4  
                         __end_ofi2_LED_Off 1E5C                    i2USBTransferOnePacket@ep 0034  
                         ??i2_USBDeviceInit 003A                           _shortPacketStatus 0029  
                          _APP_KeyboardInit 1BD4                             USBDeviceTasks@i 004E  
               USBStdFeatureReqHandler@pUEP 0046                    USBTransferOnePacket@data 0087  
                USBCtrlTrfInHandler@lastDTS 0031                             ??_USBDeviceInit 0092  
                                    _g_tsys 006E                           ??i2_BUTTON_Enable 002E  
                         _USBEnableEndpoint 1F14                                      _memcpy 1D4C  
                             ?i2_LED_Enable 002E                                      _memset 0788  
                                    clear_0 201C                                      clear_1 2028  
                                    isa$std 000001                          ?_USBEnableEndpoint 0038  
                           ??_BUTTON_Enable 0086                                __mediumconst 0000  
                                    tblptrh 000FF7                                      tblptrl 000FF6  
                                    tblptru 000FF8                                 _OldSOFCount 0076  
                       ??_USBEnableEndpoint 0039                          APP_KeyboardTasks@i 0097  
                               _CtrlTrfData 000228                             _API_Timer1_init 2132  
        USBHIDCBSetIdleRateHandler@reportID 002F                        _controlTransferState 0028  
                         _SYSTEM_Initialize 1EA0                                  __accesstop 0060  
                   __end_of__initialization 202E                          ?_SYSTEM_Initialize 002E  
                             ___rparam_used 000001                                   ?i2_LED_On 002E  
                            __pcstackCOMRAM 002E                   __end_of_USBEnableEndpoint 1F4C  
                             __end_of_sd000 03D3                               __end_of_sd001 0378  
                             __end_of_sd002 03BD                         ??_SYSTEM_Initialize 0089  
                                 LED_On@led 0088                              ??i2_LED_Enable 002E  
                           _active_protocol 0084                                ??_LED_Enable 0086  
               __end_of_USBCtrlTrfInHandler 1434                     ?_APP_LEDUpdateUSBStatus 002E  
                    i2_USBTransferOnePacket 126A                                ??_LED_Toggle 002E  
                                 ?i2_memset 002E                    ??_USBCtrlTrfSetupHandler 004D  
                   _USBTicksSinceSuspendEnd 007E                            ?_USBDeviceAttach 002E  
                 __end_of_SYSTEM_Initialize 1EDC                            _BUTTON_IsPressed 1F4C  
                    _USBStdGetStatusHandler 175C                                  __pbssBANK0 0060  
                                   ?_LED_On 002E                          __end_of_LED_Enable 1C78  
                               _pBDTEntryIn 000F            __end_of_USBCtrlEPServiceComplete 126A  
                        __end_of_LED_Toggle 1EA0                                  ??i2_LED_On 002E  
                      USBCtrlTrfRxService@i 0031                               ?_Timer1_reset 002E  
                             LED_Enable@led 0088              __end_of_APP_LEDUpdateUSBStatus 1A56  
                                   ?_memcpy 002E                                     _BAUDCON 000FB8  
                                   ?_memset 0086                                  _device_dsc 03BD  
                              i2LED_Off@led 0030                            _USBCtrlEPService 1898  
                                _ep_data_in 001B                 __end_of_USBCtrlTrfRxService 0B18  
                        _USBCheckStdRequest 1434                           _configDescriptor1 0378  
                   __end_of_API_Timer1_init 2142                                     _LED_Off 1CC0  
               __end_ofi2_SYSTEM_Initialize 1F14                                  ??i2_memset 0034  
    APP_KeyboardTasks@TimeDeltaMilliseconds 0095                 __end_of_USBCtrlTrfTxService 15D4  
                       _USBStdSetCfgHandler 15D4                 ?_USBHIDCBSetIdleRateHandler 002E  
                       ?_USBCheckStdRequest 002E                                     _UIEbits 000F60  
                                   _UIRbits 000F62              APP_LEDUpdateUSBStatus@ledCount 0017  
                          ??i2_Timer1_reset 002E                                     __Hparam 0000  
           ??_USBIncrement1msInternalTimers 002E                        ?_USBStdSetCfgHandler 002E  
                                   __Lparam 0000                           _APP_KeyboardTasks 05F2  
                            ??_Timer1_reset 0086                           __end_of_hid_rpt01 0344  
                      ??_USBCheckStdRequest 004B                          ?_APP_KeyboardTasks 002E  
                          ??_USBDeviceTasks 004E                  ??_USBHIDCBSetReportHandler 002E  
                         ??_USBStallHandler 002E                                __psmallconst 0300  
                          _keyboardIdleRate 007A                                     __pcinit 2016  
                 __end_of_configDescriptor1 03A1                                     __ramtop 0300  
                                   __ptext0 203C                                     __ptext1 0B18  
                                   __ptext2 1FB6                                     __ptext3 1EA0  
                                   __ptext4 1C30                                     __ptext5 209E  
                                   __ptext6 05F2                                     __ptext7 0788  
                                   __ptext8 109C                                     __ptext9 1F4C  
                              i2memset@dest 002E                                     _inPipes 0009  
               _USBDeferOUTDataStagePackets 007F                         ??_APP_KeyboardTasks 0092  
                                 _T1CONbits 000FCD                                ??_USBSuspend 0044  
                  __end_of_APP_KeyboardInit 1C30                             i2_USBDeviceInit 0C40  
                          i2USBDeviceInit@i 003A                          __end_of_USB_CD_Ptr 0305  
                      end_of_initialization 202E                        __end_ofi2_LED_Enable 1DD4  
                        __end_of_USB_SD_Ptr 0304                                     memcpy@d 0034  
                                   memcpy@n 0032                                     memcpy@s 0036  
                       _pBDTEntryEP0OutNext 001D                                     memset@c 0088  
                                   memset@k 008E                                     memset@n 008A  
                                   memset@s 0090                               __Lmediumconst 0000  
                           _USB1msTickCount 0072                             i2_BUTTON_Enable 20BC  
                  ?_USBStdFeatureReqHandler 002E                   __end_of_APP_KeyboardTasks 0788  
                                 i2_LED_Off 1E18                       ??_USBStdSetCfgHandler 0044  
                        __end_of_USBSuspend 2016                     _USBCtrlEPAllowDataStage 192E  
                                   postdec2 000FDD                                     postinc0 000FEE  
                                   postinc1 000FE6                                     postinc2 000FDE  
                  _USBCtrlEPServiceComplete 1184                  _USBStatusStageEnabledFlag1 0082  
                _USBStatusStageEnabledFlag2 0081                          USBEnableEndpoint@p 0039  
                                 _PORTAbits 000F80                               LED_Toggle@led 0030  
                          _API_Timer1_start 2160                            ?_API_Timer1_init 002E  
                                 _TRISBbits 000F93                                   _TRISCbits 000F94  
                        _BothEP0OutUOWNsSet 0083                   USBConfigureEndpoint@EPNum 0035  
                ?_USBCtrlEPAllowStatusStage 002E         USER_USB_CALLBACK_EVENT_HANDLER@size 0040  
                                 _USTATcopy 002B                __end_of_USBTransferOnePacket 1184  
                            __end_of_LED_On 1CC0                                  ?i2_LED_Off 002E  
                    _USBCtrlTrfSetupHandler 1A56                    __end_of_BUTTON_IsPressed 1F82  
                   ?i2_USBTransferOnePacket 002E                       __end_of_USBDeviceInit 0C40  
     __end_of_USBIncrement1msInternalTimers 207E               _USBIncrement1msInternalTimers 205E  
                                LED_Off@led 0088                     __end_ofi2_USBDeviceInit 0D64  
                                 i2memset@c 0030                                   i2memset@k 0036  
                                 i2memset@n 0032                                   i2memset@s 0038  
                            __end_of_memcpy 1D90                              __end_of_memset 08BA  
                ?_USBHIDCBSetReportComplete 002E                           _USBBusIsSuspended 0026  
                       start_initialization 2016                     ?_USBStdGetStatusHandler 002E  
                  i2SYSTEM_Initialize@state 0033                       __end_of_BUTTON_Enable 20BC  
             USBCtrlTrfRxService@byteToRead 0032                        __end_of_Timer1_reset 214C  
                            _oldInputReport 0060                     __end_ofi2_BUTTON_Enable 20D8  
              __end_of_USBConfigureEndpoint 1B76             __end_of_USBStdFeatureReqHandler 05F2  
                                  ??_LED_On 0086           __end_of_USBCtrlEPAllowStatusStage 175C  
                  __end_of_USBCtrlEPService 192E                   ??_USBCtrlEPAllowDataStage 002F  
                            USBDeviceInit@i 0092                      _pBDTEntryEP0OutCurrent 001F  
                   USBTransferOnePacket@dir 0086                     USBTransferOnePacket@len 0089  
            __end_ofi2_USBTransferOnePacket 1350                __end_of_API_Timer1_interrupt 209E  
                       _USBStdGetDscHandler 0D64                                    ??_memcpy 0034  
                                  ??_memset 008C                                  memset@dest 0086  
                    BUTTON_IsPressed@button 0088                      _USBActiveConfiguration 002D  
            __end_of_USBStdGetStatusHandler 1800                                    ?_LED_Off 002E  
         __end_of_USBHIDCBSetReportComplete 2156                                 __pbssCOMRAM 0001  
                             __pcstackBANK0 0086                        ?_USBStdGetDscHandler 002E  
 __end_ofi2_APP_KeyboardProcessOutputReport 2120     __end_of_APP_KeyboardProcessOutputReport 210A  
       ??i2_APP_KeyboardProcessOutputReport 0031          ?i2_APP_KeyboardProcessOutputReport 002E  
          ?_APP_KeyboardProcessOutputReport 002E           ??_APP_KeyboardProcessOutputReport 0089  
         i2_APP_KeyboardProcessOutputReport 210A             _APP_KeyboardProcessOutputReport 20F4  
                __end_of_USBWakeFromSuspend 1FB6                             _USBStallHandler 1D08  
                              _pBDTEntryOut 0013                                 ??i2_LED_Off 002E  
                     i2BUTTON_Enable@button 0030                                   __pintcode 0008  
                               i2LED_On@led 0030                                   _hid_rpt01 0305  
                                 _idle_rate 0085                                i2_LED_Enable 1D90  
                          ?i2_USBDeviceInit 002E                        _USBTransferOnePacket 109C  
                               __smallconst 0300                __end_of_USBCtrlTrfOutHandler 1BD4  
                         ?_APP_KeyboardInit 002E                       ??_USBStdGetDscHandler 002E  
                               _ep_data_out 0019                            ?i2_BUTTON_Enable 002E  
             USBConfigureEndpoint@direction 002E                          ??_APP_KeyboardInit 003C  
                                  _LATCbits 000F8B                  __end_of_USBCheckHIDRequest 109C  
                  __end_of_API_Timer1_start 2164                  ??_USBCtrlEPServiceComplete 002F  
                                  _IPR2bits 000FA2                                    _PIE1bits 000F9D  
                                  _PIE2bits 000FA0                                    i2_LED_On 1DD4  
                                  i2u216_40 0DD4                                    i2u216_47 0DCA  
                                  i2u217_40 0E02                                    i2u217_47 0DF8  
                                  i2u242_40 0576                                    i2u219_40 0E4A  
                                  i2u315_40 0F98                                    i2u219_47 0E40  
                                  i2u181_40 19FE                                    i2u191_40 1812  
                                  i2u256_48 0AF6                                    i2u256_49 0B0A  
                                  _PIR1bits 000F9E                                    _PIR2bits 000FA1  
                                  i2u196_40 1580                                    i2u196_47 1576  
                                  i2u198_40 15BE                                    i2u269_48 1418  
                                  i2u269_49 142C                                    i2u198_47 15B4  
                                  _RCONbits 000FD0                                    _UEP0bits 000F53  
                _USBDeferINDataStagePackets 0080                                    _UCONbits 000F64  
                      _USBConfigureEndpoint 1AE6                                  _ADCON0bits 000FC2  
                     ?_USBTransferOnePacket 0086                             i2LED_Enable@led 0030  
                         _SYS_InterruptHigh 0008                                _RemoteWakeup 0027  
                                  i2_memset 08BA                          ?_SYS_InterruptHigh 002E  
                   __end_of_USBStallHandler 1D4C                   ?_USBHIDCBSetReportHandler 002E  
               ??_USBCtrlEPAllowStatusStage 002E                        _API_Timer1_interrupt 207E  
               __end_of_USBStdSetCfgHandler 1698                         ??_SYS_InterruptHigh 004F  
                        __end_of_device_dsc 03CF                    ??_APP_LEDUpdateUSBStatus 0031  
                   ?_USBCtrlTrfSetupHandler 002E                     USBStdGetStatusHandler@p 0030  
                                  __Hrparam 0000                                   memcpy@tmp 0038  
                                  __Lrparam 0000                      USBTransferOnePacket@ep 008C  
                                  _SetupPkt 000220                                _Timer1_reset 2142  
                     ?_USBConfigureEndpoint 002E                           ??_USBDeviceAttach 0086  
                         ?_BUTTON_IsPressed 002E                   __end_of_SYS_InterruptHigh 0078  
                        ??_BUTTON_IsPressed 0086                                  _ANSELHbits 000F7F  
               ??_USBHIDCBSetReportComplete 0031                                    __ptext10 20F4  
                                  __ptext11 1C78                                    __ptext20 1FE8  
                                  __ptext12 1CC0                                    __ptext21 1D08  
                                  __ptext13 2160                                    __ptext30 08BA  
                                  __ptext22 205E                                    __ptext14 2132  
                                  __ptext31 175C                                    __ptext23 1898  
                                  __ptext15 2142                                    __ptext40 2120  
                                  __ptext32 0D64                                    __ptext24 1D4C  
                                  __ptext41 19C4                                    __ptext33 03D4  
                                  __ptext25 1A56                                    __ptext17 0E84  
                                  __ptext50 214C                                    __ptext42 1BD4  
                                  __ptext34 1800                                    __ptext26 1184  
                                  __ptext18 0C40                                    __ptext51 210A  
                                  __ptext43 126A                                    __ptext35 1EDC  
                                  __ptext27 192E                                    __ptext19 1F82  
                                  __ptext52 1DD4                                    __ptext44 1F14  
                                  __ptext36 1D90                                    __ptext28 1434  
                                  __ptext53 1E18                                    __ptext45 1AE6  
                                  __ptext37 20BC                                    __ptext29 15D4  
                                  __ptext54 1508                                    __ptext46 1B76  
                                  __ptext38 0F9C                                    __ptext55 207E  
                                  __ptext47 09EC                                    __ptext39 20D8  
                                  __ptext56 2156                                    __ptext48 1698  
                                  __ptext57 1E5C                                    __ptext49 1350  
                                  __ptext58 0000                       ?_API_Timer1_interrupt 002E  
                                  _keyboard 0068              __end_of_USBCtrlTrfSetupHandler 1AE6  
                         ?_USBCtrlEPService 002E                          ??_USBCtrlEPService 004D  
                       _USBCtrlTrfInHandler 1350                                 _inputReport 000240  
                                  isa$xinst 000000                         BUTTON_Enable@button 0088  
                                  _outPipes 0001                        _USBCtrlTrfOutHandler 1B76  
                                  int$flags 005B                   _USBCtrlEPAllowStatusStage 1698  
                                _LED_Enable 1C30                      ??_USBTransferOnePacket 008A  
                                _LED_Toggle 1E5C                   _USBDeferStatusStagePacket 0023  
                                _INTCONbits 000FF2                        ?_USBCtrlTrfInHandler 002E  
                                  memcpy@d1 002E                                    memcpy@s1 0030  
             USBCtrlTrfTxService@byteToSend 002E                ??_USBHIDCBSetIdleRateHandler 002F  
                          ?_USBStallHandler 002E                    USBStdFeatureReqHandler@p 0049  
                                  intlevel2 0000     __end_of_USER_USB_CALLBACK_EVENT_HANDLER 1898  
         ??_USER_USB_CALLBACK_EVENT_HANDLER 0042            ?_USER_USB_CALLBACK_EVENT_HANDLER 003C  
           _USER_USB_CALLBACK_EVENT_HANDLER 1800                i2USBTransferOnePacket@handle 0035  
                 _USBHIDCBSetReportComplete 214C                  i2USBTransferOnePacket@data 002F  
                    ??_USBConfigureEndpoint 002F                       ?_USBCtrlTrfOutHandler 002E  
                       _USBCtrlTrfRxService 09EC                          _USBWakeFromSuspend 1F82  
                   _USBStdFeatureReqHandler 03D4                         i2_SYSTEM_Initialize 1EDC  
                       _USBCtrlTrfTxService 1508                         ?_USBWakeFromSuspend 002E  
                     ??_USBCtrlTrfInHandler 0031                       _USBAlternateInterface 002C  
                 i2USBTransferOnePacket@dir 002E                   i2USBTransferOnePacket@len 0031  
     USBHIDCBSetIdleRateHandler@newIdleRate 002E                         USBEnableEndpoint@ep 003B  
                    ??_API_Timer1_interrupt 0031                             _endpoint_number 0025  
                      ?_USBCtrlTrfRxService 002E                        ?i2_SYSTEM_Initialize 002E  
                  ?_USBCtrlEPAllowDataStage 002E                        ?_USBCtrlTrfTxService 002E  
                                _SOFCounter 0021                _USBStatusStageTimeoutCounter 0024  
                      ??_USBWakeFromSuspend 0044                  USBTransferOnePacket@handle 008D  
                         ?_API_Timer1_start 002E  APP_KeyboardTasks@needToSendNewReportPacket 0094  
                                _USB_CD_Ptr 0304                           ??_API_Timer1_init 0086  
                        ??_API_Timer1_start 0086  
